cx:_glClearStencil
dU:__ZNSt3__26vectorIiNS_9allocatorIiEEE26__swap_out_circular_bufferERNS_14__split_bufferIiRS2_EE
ZLd:__ZTv0_n12_NSt3__210ostrstreamD1Ev
Ina:__ZN6ginput12InputManager11touchCancelEiiii
ffd:__ZNSt3__213basic_istreamIcNS_11char_traitsIcEEE7getlineEPcic
bZc:_mbrlen
ft:_emscripten_glUniform4iv
Yaa:__ZNSt3__25stackI7Matrix4NS_5dequeIS1_NS_9allocatorIS1_EEEEED2Ev
Yla:__ZNSt3__213__vector_baseIP17ginput_TouchEventNS_9allocatorIS2_EEED2Ev
Wbb:__ZN16EventTypeVisitor5visitEP10TimerEvent
EJb:_term_destination
PDc:_tracks_in_pattern_alloc
ska:__ZNSt3__26vectorINS_4pairINS_12basic_stringIcNS_11char_traitsIcEENS_9allocatorIcEEEEfEENS5_IS8_EEE18__construct_at_endEj
MCa:__ZN16b2ContactManager7CollideEv
yFd:__ZNKSt3__212basic_stringIcNS_11char_traitsIcEENS_9allocatorIcEEE5rfindENS_17basic_string_viewIcS2_EEj
jFa:__ZN9b2Fixture14DestroyProxiesEP12b2BroadPhase
Lc:ClassHandle
tUa:__ZN12Path2DBinder10setSvgPathEP9lua_State
mWb:_luaO_str2d
hl:__emval_get_property
aMa:__ZNK7b2World13GetTreeHeightEv
Hnb:__ZN14GGAudioManager7preTickEv
tod:__ZNKSt3__217moneypunct_bynameIwLb1EE16do_positive_signEv
G$c:_drand48
b0a:__ZN12Box2DBinder221b2Contact_getFrictionEP9lua_State
gSa:__ZNSt3__26__treeINS_12__value_typeINS_12basic_stringIcNS_11char_traitsIcEENS_9allocatorIcEEEEdEENS_19__map_value_compareIS7_S8_NS_4lessIS7_EELb1EEENS5_IS8_EEED2Ev
GPa:__ZN15b2ParticleGroupC2Ev
Ev:_emscripten_webgl_create_context
pAd:__ZNSt3__26localeC2ERKS0_
cK:__ZN9Particles6setTtlEii
EBd:__ZdlPvRKSt9nothrow_t
n2c:___pthread_self_616
NN:__ZNKSt3__26vectorI6Point2IfENS_9allocatorIS2_EEE8max_sizeEv
Hud:__ZNKSt3__27num_putIwNS_19ostreambuf_iteratorIwNS_11char_traitsIwEEEEE3putES4_RNS_8ios_baseEwPKv
kKd:__ZNSt3__25stollERKNS_12basic_stringIwNS_11char_traitsIwEENS_9allocatorIwEEEEPji
yD:_pthread_attr_init
eZb:__ZL14check_conflictP8LexStateP10LHS_assignP7expdesc
WP:__ZNSt3__213__vector_baseIN7TileMap6TileIdENS_9allocatorIS2_EEED2Ev
f4a:__ZN12Box2DBinder219b2World_DestroyBodyEP9lua_State
jfc:_bc_give
DMb:_grayscale_convert_156
Hnc:_af_cjk_hints_init
Fwb:_png_info_init_3
cJb:_median_cut
A3a:__ZN12Box2DBinder221b2Body_getWorldVectorEP9lua_State
HGb:_jpeg_calc_output_dimensions
aA:_glewGetErrorString
hZ:__ZN13ScreenManager4tickEv
KXa:__ZN17GeolocationBinder20startUpdatingHeadingEP9lua_State
Na:invoke_iiiiiid
y6:__ZN5Timer5pauseEv
hnc:_FT_Set_Charmap
Yfd:__ZNSt3__213basic_istreamIwNS_11char_traitsIwEEE3getERNS_15basic_streambufIwS2_EEw
DBd:__ZdlPv
sWa:__ZN10MeshBinder16setPrimitiveTypeEP9lua_State
qQb:__ZNK11CPVRTString13find_first_ofERKS_j
x3b:__ZL7pushIntP9lua_Statex
IOd:__ZNSt14overflow_errorD0Ev
Tsd:__ZNKSt3__215__codecvt_utf16IDsLb1EE9do_lengthER11__mbstate_tPKcS5_j
mNb:_start_pass_coef_181
smd:__ZNKSt3__215time_get_bynameIwNS_19istreambuf_iteratorIwNS_11char_traitsIwEEEEE3__xEv
GDa:__ZN15b2CircleContactC2EP9b2FixtureS1_
HEc:_period_to_note
G5a:__ZN15GGAccelerometer5startEv
uf:_SDL_LoadBMP_RW
pob:__ZN14GGAudioManager26BackgroundChannelSetVolumeEmf
Sjb:__ZNSt3__26__treeINS_12__value_typeImPN9g_private19RenderTargetElementEEENS_19__map_value_compareImS5_NS_4lessImEELb1EEENS_9allocatorIS5_EEE16__construct_nodeIJRKNS_21piecewise_construct_tENS_5tupleIJRKmEEENSH_IJEEEEEENS_10unique_ptrINS_11__tree_nodeIS5_PvEENS_22__tree_node_destructorINSA_ISP_EEEEEEDpOT_
eHc:_xmp_get_frame_info
_uc:_cf2_hintmap_insertHint
xC:_llvm_log2_f32
Sic:_tt_cmap4_char_map_binary
P3b:__ZL9LtostringP9lua_State
rn:_alcCreateContext
arc:_Ins_WCVTP
uOa:__ZNSt3__214__rotate_rightIPiEET_S2_S2_
$Ud:mftCall_iiiiiii
t5a:__ZN20EventContactListener22dispatchEventParticle2ERK9EventTypeI5EventEP16b2ParticleSystemii
yac:_rand_xorshift32
gpa:__ZNSt3__212__deque_baseINS_4pairIjjEENS_9allocatorIS2_EEED2Ev
S3a:__ZN6b2Body17SetAngularDampingEf
Ovb:_gz_reset
dcb:__ZN14EventBinderMapC2Ev
h7b:__ZL9ll_moduleP9lua_State
_md:__ZNKSt3__210moneypunctIcLb0EE14do_frac_digitsEv
r7b:__ZL10mkfuncnameP9lua_StatePKc
Pkd:__ZNKSt3__220__time_get_c_storageIcE3__XEv
eT:__ZNSt3__26vectorIN8FontBase11ChunkLayoutENS_9allocatorIS2_EEE12__move_rangeEPS2_S6_S6_
j9c:__ZNSt3__224__libcpp_debug_exceptionD0Ev
CJa:__ZNK12_GLOBAL__N_117FixedSetAllocator8GetCountEv
HDa:__ZN15b2GrowableStackIiLi256EEC2Ev
iYc:_grantpt
Uga:__ZN17ogl2ShaderTextureC2EN13ShaderTexture6FormatENS0_7PackingEiiPKvNS0_4WrapENS0_9FilteringE
R3a:__ZN6b2Body15SetGravityScaleEf
tr:_emscripten_glFlush
aM:__ZNSt3__219__tree_right_rotateIPNS_16__tree_node_baseIPvEEEEvT_
h2c:___ftello
DUc:_llrintf
H_a:__ZN9DibBinderC2EP9lua_State
XR:__ZN13TexturePackerC2Ev
nR:__ZN5GMesh16resizeColorArrayEj
KXd:_glGenTextures__wrapper
Scd:__ZNKSt3__29basic_iosIwNS_11char_traitsIwEEEntEv
nHd:__ZNSt3__212basic_stringIwNS_11char_traitsIwEENS_9allocatorIwEEE6rbeginEv
pE:_pthread_rwlock_trywrlock
Pda:__ZN7Matrix45scaleEf
KWd:_emscripten_set_wheel_callback__wrapper
Jab:__ZN4SlotI13TimerListener10TimerEventE4callEP5Event
Zjc:_load_post_names
RCd:__ZNSt3__212basic_stringIcNS_11char_traitsIcEENS_9allocatorIcEEEC2Ev
g4:__ZNSt3__214__split_bufferIN8TTBMFont8FontFaceERNS_9allocatorIS2_EEEC2EjjS5_
K4c:_bzero
Oo:_eglWaitClient
dqa:__ZN21GGSampleOpenALManager11ChannelStopEm
GXb:_lua_pushfstring
yNb:__ZN11CPVRTStringD0Ev
B5c:_wcswcs
Fzb:_png_malloc_default
_oa:__ZNSt3__26__treeINS_12__value_typeImPN12_GLOBAL__N_121GGStreamOpenALManager5SoundEEENS_19__map_value_compareImS6_NS_4lessImEELb1EEENS_9allocatorIS6_EEE12__find_equalImEERPNS_16__tree_node_baseIPvEERPNS_15__tree_end_nodeISI_EERKT_
gSd:__ZN10__cxxabiv112_GLOBAL__N_111string_pairC2ILj7EEERAT__Kc
nu:_emscripten_set_blur_callback
iAd:__ZNSt3__26locale5__imp12install_fromINS_8time_getIwNS_19istreambuf_iteratorIwNS_11char_traitsIwEEEEEEEEvRKS1_
Mu:_emscripten_set_mouseout_callback
jXc:_get_current_dir_name
Oub:_z_crc32_combine64
yMc:___crypt_r
Nba:__ZN6Sprite14clearBlendFuncEv
Pyd:__ZNSt3__212_GLOBAL__N_14makeINS_8messagesIwEEjEERT_T0_
Jrc:_Ins_WCVTF
s1a:__ZN12b2WheelJoint21SetSpringDampingRatioEf
FSb:_CheckForRightSplice
kGd:__ZNSt3__212basic_stringIcNS_11char_traitsIcEENS_9allocatorIcEEE19__move_assign_allocERS5_
R1b:__ZL11luaB_rawsetP9lua_State
Nfb:_AES128_CBC_decrypt_buffer
wlc:_sfnt_stream_close
Anc:_af_glyph_hints_init
Z8c:__ZNSt3__26chrono12system_clock11from_time_tEl
RRb:_MakeDormant
V8:__ZNSt3__26__treeIP6SpriteNS_4lessIS2_EENS_9allocatorIS2_EEE12__find_equalIS2_EERPNS_16__tree_node_baseIPvEERPNS_15__tree_end_nodeISC_EERKT_
Te:_SDL_Has3DNow
GVb:_luaV_equalval
Mkd:__ZNKSt3__220__time_get_c_storageIcE3__cEv
OXb:_lua_getfield
jad:__ZNSt3__217__assoc_sub_stateD2Ev
f_b:__ZL15adjustlocalvarsP8LexStatei
NNb:__ZL12deinitializev
_g:__Exit
GTa:__ZN11PixelBinder13setDimensionsEP9lua_State
cZb:__ZL8compoundP8LexStateP10LHS_assign
Ojc:_tt_face_find_bdf_prop
pV:___cxx_global_var_init_104
w7b:__ZL6ll_symP9lua_StatePvPKc
YNb:__ZNSt3__25dequeIP12QueueElementNS_9allocatorIS2_EEE9pop_frontEv
pra:__GLOBAL__sub_I_platform_js_cpp
Rm:_alListenerfv
NDa:__ZNSt3__27__sort4IRPFbRK6b2PairS3_EPS1_EEjT0_S8_S8_S8_T_
$6a:__ZN13TextureBinderC2EP9lua_State
ZIb:_fill_inverse_cmap
Y$b:_lua_gethookcount
YZa:__ZN17ApplicationBinder12isPlayerModeEP9lua_State
P2c:_pop_arg_689
Chc:_FT_Outline_New
S9b:__ZN6snappy12LittleEndian8ToHost32Ej
tK:__ZNSt3__213__vector_baseIP6SpriteNS_9allocatorIS2_EEED2Ev
oZc:_accept4
UPb:__ZNK11CPVRTString7compareERKS_
vKc:_strtoull
YBb:_png_read_end
d8c:__ZNSt3__27__sort3IRNS_6__lessImmEEPmEEjT0_S5_S5_T_
Tka:__ZN12luaExceptionC2EPKc
oob:__ZN14GGAudioManager26BackgroundChannelIsPlayingEm
hqd:__ZNSt3__214codecvt_bynameIDic11__mbstate_tED0Ev
h6:__ZNSt3__26__treeIP15EventDispatcherNS_4lessIS2_EENS_9allocatorIS2_EEE7destroyEPNS_11__tree_nodeIS2_PvEE
oR:__ZN5GMesh28resizeTextureCoordinateArrayEj
Fuc:_cf2_arrstack_getPointer
Yq:_emscripten_glDepthRange
HTa:__ZN11PixelBinder13getDimensionsEP9lua_State
J0c:_tre_set_empty
$Z:__ZNSt3__23mapIiiNS_4lessIiEENS_9allocatorINS_4pairIKiiEEEEED2Ev
Jd:_Mix_SetPosition
ah:__Unwind_DeleteException
Srb:__ZNSt3__26__treeINS_12__value_typeIi5DriveEENS_19__map_value_compareIiS3_NS_4lessIiEELb1EEENS_9allocatorIS3_EEE7destroyEPNS_11__tree_nodeIS3_PvEE
uPa:__ZZN16b2ParticleSystem33CreateParticlesWithShapesForGroupEPKPK7b2ShapeiRK18b2ParticleGroupDefRK11b2TransformENK14CompositeShape15ComputeDistanceESA_RK6b2Vec2PfPSC_i
Qnd:__ZNKSt3__217moneypunct_bynameIcLb0EE14do_frac_digitsEv
puc:_cf2_arrstack_getBuffer
gjd:__ZNSt3__215__num_get_floatIfEET_PKcS3_Rj
M9b:__ZN6snappy17SnappyArrayWriter13TryFastAppendEPKcjj
Ei:___syscall180
Fi:___syscall181
Gi:___syscall183
sPa:__ZZN16b2ParticleSystem33CreateParticlesWithShapesForGroupEPKPK7b2ShapeiRK18b2ParticleGroupDefRK11b2TransformENK14CompositeShape13GetChildCountEv
oXb:_lua_rawequal
kZ:__ZNK6Sprite7visibleEv
p1:__ZN8SlotBaseC2ERKS_
Tab:__ZN21EventDispatcherBinder19removeEventListenerEP9lua_State
UHc:_hio_open_file
GKc:_strtoul
dA:_glewInit
cpd:__ZNSt3__28messagesIcED2Ev
BIc:__ZN12_GLOBAL__N_1L20register_memory_viewIcEEvPKc
BMd:__ZNKSt3__212__do_message7messageEi
Opb:__ZL7s_lseekiii
Dna:__ZNSt3__26__treeINS_12__value_typeIj7PointerEENS_19__map_value_compareIjS3_NS_4lessIjEELb1EEENS_9allocatorIS3_EEE4findIjEENS_15__tree_iteratorIS3_PNS_11__tree_nodeIS3_PvEEiEERKT_
INc:_hashmd
wcd:__ZNSt3__29basic_iosIcNS_11char_traitsIcEEE3tieEPNS_13basic_ostreamIcS2_EE
HQa:__ZN14LuaApplication12deinitializeEv
pyd:__ZNSt3__212_GLOBAL__N_14makeINS_10moneypunctIcLb0EEEjEERT_T0_
yed:__ZNSt3__213basic_istreamIcNS_11char_traitsIcEEEC1EOS3_
gcc:_frame_fuzzy_find
LYb:__ZL14getjumpcontrolP9FuncStatei
TO:__ZNKSt3__26vectorIN11TexturePack4RectENS_9allocatorIS2_EEE8max_sizeEv
mka:__ZrsR10ByteBufferRf
xwa:__ZNK13b2CircleShape11ComputeMassEP10b2MassDataf
ika:__ZrsR10ByteBufferRc
keb:_tlsf_create
jPb:__Z22util_number_is_power_2j
jka:__ZrsR10ByteBufferRi
d1b:_luaL_addvalue
eOa:__ZNK6b2Vec24SkewEv
xMd:__ZNKSt3__214error_category23default_error_conditionEi
ga:ftCall_did
bic:_Sort
rRc:_isprint_l
EXa:__ZN17GeolocationBinder12setThresholdEP9lua_State
f6:__ZNSt3__213__vector_baseIP8SlotBaseNS_9allocatorIS2_EEED2Ev
ia:ftCall_dii
YN:__ZNSt3__214__split_bufferI6Point2IfERNS_9allocatorIS2_EEEC2EjjS5_
iN:__ZN12SplashScreen6doDrawERK7Matrix4ffff
$da:__ZNSt3__213__vector_baseIN13ShaderProgram12ConstantDescENS_9allocatorIS2_EEED2Ev
tuc:_cff_blend_check_vector
YIb:_finish_pass2
Hbb:__ZN16PushEventVisitor5visitEP13CompleteEvent
brd:__ZNKSt3__28numpunctIcE16do_thousands_sepEv
Rtc:_cf2_decoder_parse_charstrings
ula:__ZN18ApplicationManager10foregroundEv
q8a:__ZN12SpriteBinder9getMatrixEP9lua_State
NHa:__ZL18IsSignificantForceRK6b2Vec2
Nwa:__ZN17b2ContactListener10EndContactEP16b2ParticleSystemii
ax:_glClearDepth
r3:__ZN8TTBMFont11getAscenderEv
xua:_JSPlayer_writeFile
nja:__ZL12kh_init_pathv
Trb:__ZNSt3__24pairIKi5DriveED2Ev
a9c:__ZNSt3__218condition_variable10notify_oneEv
sS:__ZNSt3__26vectorI8RectSizeNS_9allocatorIS1_EEE26__swap_out_circular_bufferERNS_14__split_bufferIS1_RS3_EE
vpb:__ZL10mpg123readPvS_j
VAb:_png_handle_sCAL
iUb:_unzOpenCurrentFile
Ric:_tt_cmap4_next
Ftd:__ZNKSt3__220__codecvt_utf8_utf16IDsE6do_outER11__mbstate_tPKDsS5_RS5_PcS7_RS7_
yOc:___iswalpha_l
M:Math_atan2
Udb:_tlsf_align_size
yP:__ZN7Matrix43setEPKf
l5a:__ZN20EventContactListener10EndContactEP9b2Contact
aMc:_cproj
hHc:_read24b
G$a:__ZN22b2ParticleSystemSprite8GetWorldEv
qba:__ZNSt3__214__split_bufferIP9_cliprectNS_9allocatorIS2_EEE10push_frontEOS2_
Zna:__ZN14GGAudioManager20AdvanceStreamBuffersEv
Twc:_cff_cmap_unicode_done
gHc:_read24l
zJc:__ZN10emscripten8internal6TypeIDItE3getEv
OK:__ZNK15EventDispatcher16hasEventListenerI13KeyboardEventEEbRK9EventTypeIT_E
Q2b:__ZL7io_readP9lua_State
mS:__ZNSt3__26vectorI4RectNS_9allocatorIS1_EEE26__swap_out_circular_bufferERNS_14__split_bufferIS1_RS3_EE
zza:__ZN13b2PulleyJoint24SolvePositionConstraintsERK12b2SolverData
zf:_SDL_LowerBlit
SVc:_S
Apc:_ft_var_apply_tuple
Vdb:_tlsf_block_size_min
L1:__ZN13GRenderTarget14prepareForDrawEv
Jsb:_g__swbuf
yjb:__ZN9g_private14TextureManager14reloadTexturesEv
hAc:_ft_stroke_border_conicto
WYc:_shm_unlink
P6a:__ZN16BitmapDataBinder9setRegionEP9lua_State
T1b:__ZL12luaB_setfenvP9lua_State
TKb:_jinit_marker_writer
KMc:_setup_salt
AYa:__ZNSt3__214__split_bufferI12ghttp_HeaderRNS_9allocatorIS1_EEE18__construct_at_endEj
Ala:__ZN20GGApplicationManager11addCallbackEPFviPvS0_ES0_
Y2b:__ZL8test_eofP9lua_StateP8g__sFILE
nYc:_setpriority
Ihb:__ZL11init_sourceP22jpeg_decompress_struct
SEd:__ZNSt3__212basic_stringIcNS_11char_traitsIcEENS_9allocatorIcEEE6insertEjRKS5_jj
$1a:__ZN12Box2DBinder228b2PrismaticJoint_enableLimitEP9lua_State
spa:__ZNSt3__26__treeINS_12__value_typeImPN12_GLOBAL__N_121GGStreamOpenALManager7ChannelEEENS_19__map_value_compareImS6_NS_4lessImEELb1EEENS_9allocatorIS6_EEE12__find_equalImEERPNS_16__tree_node_baseIPvEERPNS_15__tree_end_nodeISI_EERKT_
Cd:_Mix_QuerySpec
H7c:__ZNSt3__27__sort3IRNS_6__lessIttEEPtEEjT0_S5_S5_T_
jTa:__ZN15ParticlesBinder16getParticleDecayEP9lua_State
I7b:__ZN8pystring4findERKNSt3__212basic_stringIcNS0_11char_traitsIcEENS0_9allocatorIcEEEES8_ii
J4:__ZNSt3__26vectorI6Point2IfENS_9allocatorIS2_EEE21__push_back_slow_pathIS2_EEvOT_
m2c:___fgetwc_unlocked_internal
k8c:__ZNSt3__27__sort4IRNS_6__lessIxxEEPxEEjT0_S5_S5_S5_T_
Y7:__ZNK14TimerContainer17isAllTimersPausedEv
RKc:_hypotf
YKa:__ZNSt3__218__insertion_sort_3IRPFbRKN12_GLOBAL__N_115LightweightPairIP9b2FixtureiEES7_EPS5_EEvT0_SC_T_
oYc:___setrlimit
Acc:_INT123_do_rva
kYa:__ZN11GGUrlLoader4postEPKcP12ghttp_HeaderPKvj
Slc:_inflate_blocks_new
uLd:__ZNKSt3__212_GLOBAL__N_114initial_stringINS_12basic_stringIwNS_11char_traitsIwEENS_9allocatorIwEEEEmLb0EEclEv
Ozd:__ZNSt3__26locale5__imp12install_fromINS_7collateIwEEEEvRKS1_
tXc:___fmodeflags
Mob:_gaudio_ChannelGetVolume
m1c:_select
Ord:__ZNKSt3__214__codecvt_utf8IwE13do_max_lengthEv
dQb:__ZNK11CPVRTString4copyEPcjj
rWb:__ZL12call_orderTMP9lua_StatePK10lua_TValueS3_3TMS
PKc:_sq
xlb:__ZNSt3__214__split_bufferIPN6gevent12EventManager17EventQueueElementENS_9allocatorIS4_EEED2Ev
pmb:__ZNSt3__26__treeINS_12__value_typeImPN14GGSoundManager5SoundEEENS_19__map_value_compareImS5_NS_4lessImEELb1EEENS_9allocatorIS5_EEED2Ev
rKc:_strlwr
kia:__ZL20get_quadratic_boundsdddddddPdS_S_S_
F6a:__ZN12BitmapBinder8destructEP9lua_State
emb:_g_iclock
$Bd:__ZNSt3__213random_deviceclEv
bYa:__ZN15UrlLoaderBinder8setProxyEP9lua_State
IAa:__ZN6b2Draw10ClearFlagsEj
Omc:_af_glyph_hints_align_edge_points
cya:__Z5b2AbsIfET_S0_
sPc:_strcoll
kid:__ZNSt3__210__stdinbufIcE9underflowEv
fPc:___towlower_l
WFc:_smix_stereo_16bit_spline
ipa:__ZNSt3__26__treeIPN12_GLOBAL__N_121GGStreamOpenALManager7ChannelENS_4lessIS4_EENS_9allocatorIS4_EEE4findIS4_EENS_15__tree_iteratorIS4_PNS_11__tree_nodeIS4_PvEEiEERKT_
xHb:_start_pass
BOc:_iswcntrl
bCb:_png_set_strip_alpha
_9c:__ZNSt13exception_ptrC2ERKS_
Ekc:_tt_face_get_kerning
Dkb:__ZN6gevent12EventManager4tickEv
Rab:__ZN21EventDispatcherBinder8destructEP9lua_State
APc:_fcntl
H_:__ZL11easeOutCircd
GAc:_hash_init
Qdb:_tlsf_block_size
upd:__ZNSt3__2L19utf8_to_ucs4_lengthEPKhS1_jmNS_12codecvt_modeE
Fzc:_FT_Stroker_Set
Aob:_gaudio_SoundCreateFromFile
RJd:__ZNSt3__212_GLOBAL__N_117as_integer_helperIlNS_12basic_stringIcNS_11char_traitsIcEENS_9allocatorIcEEEEPFlPKcPPciEEET_RKS7_RKT0_PjiT1_
m3a:__ZN12Box2DBinder215b2Body_isActiveEP9lua_State
ppa:__ZNSt3__26__treeIPN12_GLOBAL__N_121GGStreamOpenALManager7ChannelENS_4lessIS4_EENS_9allocatorIS4_EEE25__emplace_unique_key_argsIS4_JRKS4_EEENS_4pairINS_15__tree_iteratorIS4_PNS_11__tree_nodeIS4_PvEEiEEbEERKT_DpOT0_
pdb:__ZN14LuaApplication17disableExceptionsEv
Sub:_fixedtables
_Xb:_lua_setfenv
JTb:_unzOpenInternal
i4a:__ZN12Box2DBinder217b2World_QueryAABBEP9lua_State
i7b:__ZL10ll_requireP9lua_State
Rua:__ZNK10emscripten8internal12WithPoliciesIJEE11ArgTypeListIJvNS_11memory_viewIhEEEE8getTypesEv
TK:__ZNSt3__214__split_bufferIP6SpriteRNS_9allocatorIS2_EEEC2EjjS5_
x2:__ZN6TTFont7getFaceEiRj
RH:FUNCTION_TABLE_vidi
Ip:_emscripten_force_exit
HH:FUNCTION_TABLE_vidd
DNb:__ZN6snappy6SourceD2Ev
_Gd:__ZNSt3__212basic_stringIwNS_11char_traitsIwEENS_9allocatorIwEEE13__move_assignERS5_NS_17integral_constantIbLb1EEE
q5c:_wcscspn
iCc:_FT_Face_GetCharsOfVariant
Dad:__ZNSt3__27promiseIvED2Ev
Cgc:_mpg123_seek_frame
V_c:_poll
TBc:_FT_Attach_Stream
o1:__ZNSt3__214__split_bufferIP8SlotBaseRNS_9allocatorIS2_EEED2Ev
D7:__ZNSt3__26vectorIP5TimerNS_9allocatorIS2_EEE18__construct_at_endIPS2_EENS_9enable_ifIXsr21__is_forward_iteratorIT_EE5valueEvE4typeES9_S9_j
aAd:__ZNSt3__26locale5__imp12install_fromINS_9money_putIwNS_19ostreambuf_iteratorIwNS_11char_traitsIwEEEEEEEEvRKS1_
cX:__ZNSt3__218__insertion_sort_3IRNS_6__lessIN11Application10ImageScaleES3_EEPS3_EEvT0_S7_T_
Z0:__ZNSt3__26__treeINS_12__value_typeIiiEENS_19__map_value_compareIiS2_NS_4lessIiEELb1EEENS_9allocatorIS2_EEE13__lower_boundIiEENS_15__tree_iteratorIS2_PNS_11__tree_nodeIS2_PvEEiEERKT_SF_PNS_15__tree_end_nodeIPNS_16__tree_node_baseISD_EEEE
zp:_emscripten_create_worker
sOd:__ZNSt13bad_exceptionD0Ev
tSc:_wcsxfrm
fCc:_FT_Face_GetCharVariantIsDefault
pXc:_lockf
lYd:b63
k$a:__ZN12Box2DBinder215getWeldJointDefEP9lua_State
fUa:__ZN14ViewportBinder10getContentEP9lua_State
qh:___atomic_store_8
Jxb:_png_ascii_from_fixed
Ioc:_tt_size_request
SNd:__ZNK10__cxxabiv117__class_type_info16search_below_dstEPNS_19__dynamic_cast_infoEPKvib
kJc:__ZN10emscripten8internal11LightTypeIDINSt3__212basic_stringIwNS2_11char_traitsIwEENS2_9allocatorIwEEEEE3getEv
rUc:_sin_pi_320
o3b:_luaopen_package
cp:_emscripten_async_call
zob:_gaudio_Cleanup
_f:_SDL_SetWindowFullscreen
NIc:__ZN10emscripten8internal6TypeIDINS_11memory_viewIeEEE3getEv
mHa:__ZN15b2ParticleGroup7GetNextEv
brb:__ZN8GGPlugin4mainEP9lua_Statei
dBb:_png_set_tIME
mkb:__ZNSt3__26__treeINS_12__value_typeImPN9g_private14TextureManager18TempTextureElementEEENS_19__map_value_compareImS6_NS_4lessImEELb1EEENS_9allocatorIS6_EEE4findImEENS_15__tree_iteratorIS6_PNS_11__tree_nodeIS6_PvEEiEERKT_
APa:__ZN11b2Transform3SetERK6b2Vec2f
C7b:__ZN8pystring12_GLOBAL__N_116split_whitespaceERKNSt3__212basic_stringIcNS1_11char_traitsIcEENS1_9allocatorIcEEEERNS1_6vectorIS7_NS5_IS7_EEEEi
xrc:_Ins_SDB
cvb:_z_inflateGetDictionary
lN:__ZN11Application17getTextureManagerEv
F_:__ZL13easeOutInCircd
Ngb:__ZNSt3__23mapIdNS_6vectorIiNS_9allocatorIiEEEENS_4lessIdEENS2_INS_4pairIKdS4_EEEEED2Ev
$Hc:_hio_tell
xSc:___lctrans_cur
yrc:_Ins_SDS
SFd:__ZNKSt3__212basic_stringIcNS_11char_traitsIcEENS_9allocatorIcEEE16find_last_not_ofERKS5_j
Pcc:_process_comment
ckb:_gtexture_TempTextureCreate
C8c:__ZNSt3__27__sort4IRNS_6__lessIddEEPdEEjT0_S5_S5_S5_T_
Cvc:_cf2_getVStore
Gdc:_INT123_synth_1to1
id:_Mix_FreeMusic
qic:_FT_MulDiv
QUb:__ZL6atomicP9lua_State
mod:__ZNKSt3__217moneypunct_bynameIwLb0EE13do_neg_formatEv
bAc:_ft_stroke_border_moveto
Ond:__ZNKSt3__217moneypunct_bynameIcLb0EE16do_positive_signEv
Ayd:__ZNSt3__26locale5__imp7installINS_9money_getIwNS_19istreambuf_iteratorIwNS_11char_traitsIwEEEEEEEEvPT_
VJ:__ZNSt3__214__split_bufferIfRNS_9allocatorIfEEEC2EjjS3_
ly:_glGetFloatv
$fc:_INT123_make_conv16to8_table
jWc:___emscripten_pthread_data_constructor
Wrb:__ZNSt3__26__treeINS_12basic_stringIcNS_11char_traitsIcEENS_9allocatorIcEEEENS_4lessIS6_EENS4_IS6_EEED2Ev
Dha:__ZNKSt3__26__treeINS_12__value_typeINS_12basic_stringIcNS_11char_traitsIcEENS_9allocatorIcEEEES7_EENS_19__map_value_compareIS7_S8_NS_4lessIS7_EELb1EEENS5_IS8_EEE10__root_ptrEv
WGc:_set_period
wZ:__ZNSt3__214__split_bufferIdRNS_9allocatorIdEEE18__construct_at_endEj
kS:__ZNKSt3__26vectorI4RectNS_9allocatorIS1_EEE8max_sizeEv
Q$:__ZNKSt3__26vectorIN9MovieClip5FrameENS_9allocatorIS2_EEE8max_sizeEv
lXa:__ZN15GyroscopeBinder6createEP9lua_State
T9b:__ZN6snappy6SourceC2Ev
ud:_Mix_PauseMusic
iCa:__ZNK13b2DynamicTree9GetHeightEv
PF:_uuid_variant
M$:__ZN9MovieClip5FrameC2Ev
tha:__ZNKSt3__215basic_stringbufIcNS_11char_traitsIcEENS_9allocatorIcEEE3strEv
pAc:_ft_stroker_add_reverse_left
gid:__ZNSt3__210__stdinbufIwE9__getcharEb
Jha:__ZN6Path2DD2Ev
$rc:_Ins_MIN
Qpa:__ZN16GGSoundInterface18ChannelGetStreamIdEm
h9c:__ZNSt3__2L13make_what_strERKNS_19__libcpp_debug_infoE
V1a:__ZN15b2DistanceJoint12SetFrequencyEf
gfa:__ZN13ShaderProgram6RetainEv
TG:throwBindingError
yd:_Mix_PlayChannelTimed
E7a:__ZN12SpriteBinder4getZEP9lua_State
joa:__ZN12_GLOBAL__N_121GGStreamOpenALManager9SoundPlayEmb
dC:_llvm_ceil_f64
$2b:__ZL8g_iofileP9lua_StateiPKc
S2a:__ZN12Box2DBinder218b2Fixture_IsSensorEP9lua_State
RP:__ZneRK8Matrix2DS1_
$ac:_INT123_frame_init_par
aac:__ZN6snappy18SnappyDecompressor17DecompressAllTagsINS_28SnappyDecompressionValidatorEEEvPT_
Fyd:__ZNSt3__212_GLOBAL__N_14makeINS_8time_getIcNS_19istreambuf_iteratorIcNS_11char_traitsIcEEEEEEjEERT_T0_
sIa:__ZN16b2VoronoiDiagram12NodeCallbackD2Ev
LQa:__ZN14LuaApplication10clearErrorEv
tp:_emscripten_autodebug_i64
SQb:__Z36PVRTStringGetContainingDirectoryPathRK11CPVRTString
ric:_FT_MulDiv_No_Round
jm:_alGetBuffer3i
CB:_glutKeyboardFunc
Htc:_cff_get_advances
PDa:__ZNSt3__218__insertion_sort_3IRPFbRK6b2PairS3_EPS1_EEvT0_S8_T_
Goa:__ZN12_GLOBAL__N_121GGStreamOpenALManager4tickEPNS0_7ChannelE
H$b:_lua_status
Ywa:__ZL18b2FindIncidentEdgeP12b2ClipVertexPK14b2PolygonShapeRK11b2TransformiS3_S6_
cUc:_j1f
im:_alGetBuffer3f
aGb:_alloc_sarray
Vlc:_gray_raster_reset
YLa:__ZN7b2Joint7GetNextEv
Bca:__ZN9Transform4setXEf
SOc:___wctype_l
nlb:__ZN6gevent12EventManager20removeEventsWithTypeEi
ukc:_tt_face_load_os2
Gdb:_block_next
zQc:_catgets
BL:__ZN10TouchEventC2ERK9EventTypeIS_EP17ginput_TouchEventffff
XIa:__ZN16b2ParticleSystem16ReallocateBufferINS_4PairEEEPT_S3_ii
HE:_rectangleRGBA
RXc:_fseek
eIa:__ZNSt3__213__stable_sortIRPFbRKN16b2ParticleSystem4PairES4_EPS2_EEvT0_S9_T_NS_15iterator_traitsIS9_E15difference_typeEPNSC_10value_typeEi
N_a:__ZN12Box2DBinder214b2World_createEP9lua_State
RW:__ZN11Application19setLogicalScaleModeE16LogicalScaleMode
Zc:_IMG_Load_RW
rD:_posix_spawn_file_actions_init
Ueb:__ZNSt3__26__treeINS_12__value_typeIi8FileInfoEENS_19__map_value_compareIiS3_NS_4lessIiEELb1EEENS_9allocatorIS3_EEE7destroyEPNS_11__tree_nodeIS3_PvEE
Vva:__ZNK14b2PolygonShape15ComputeDistanceERK11b2TransformRK6b2Vec2PfPS3_i
w1:__ZNSt3__23mapIiiNS_4lessIiEENS_9allocatorINS_4pairIKiiEEEEEixERS5_
Hfa:__ZN17ogl2ShaderProgramD2Ev
_vd:__ZNKSt3__210moneypunctIcLb0EE11frac_digitsEv
ntc:_tt_get_sfnt_checksum
t8a:__ZN12SpriteBinder8setAlphaEP9lua_State
j2:__ZNK6TTFont12getSmoothingEv
Dub:_gz_zero
knb:__ZN14GGSoundManager18ChannelGetPositionEm
qab:__ZN11TimerBinder10getRunningEP9lua_State
b6c:_getegid
Eu:_emscripten_set_main_loop
BUa:__ZN12ShaderBinder11setConstantEP9lua_State
tGa:__ZN15b2WorldManifoldC2Ev
vFc:_virt_cstat
UEb:_png_set_filter
zzd:__ZNSt3__26locale5__imp7installINS_15time_get_bynameIwNS_19istreambuf_iteratorIwNS_11char_traitsIwEEEEEEEEvPT_
Hx:_glDrawArraysInstancedNV
hOb:__ZNSt3__214__split_bufferIPP12QueueElementRNS_9allocatorIS3_EEEC2EjjS6_
RTa:__ZN5Pixel18getTexturePositionERfS0_
PFd:__ZNKSt3__212basic_stringIcNS_11char_traitsIcEENS_9allocatorIcEEE17find_first_not_ofEPKcjj
hmb:__ZNSt3__26__treeINS_12__value_typeImPN14GGSoundManager5SoundEEENS_19__map_value_compareImS5_NS_4lessImEELb1EEENS_9allocatorIS5_EEEC2ERKS9_
C8a:__ZN6Sprite19setStencilOperationEN12ShaderEngine12DepthStencilE
yU:__ZNSt3__215basic_stringbufIcNS_11char_traitsIcEENS_9allocatorIcEEED2Ev
iJb:_new_color_map_1_quant
cDd:__ZNSt3__212basic_stringIcNS_11char_traitsIcEENS_9allocatorIcEEE18__get_long_pointerEv
F0a:__ZThn508_N11b2DebugDrawD1Ev
$Md:__ZNSt3__211this_thread9sleep_forERKNS_6chrono8durationIxNS_5ratioILx1ELx1000000000EEEEE
p4b:__ZL15Lutf8_matchUTF8P9lua_State
Vja:__ZNSt3__24pairIKNS_12basic_stringIcNS_11char_traitsIcEENS_9allocatorIcEEEENS_6vectorIhNS4_IhEEEEED2Ev
cCa:__ZNK7b2Sweep12GetTransformEP11b2Transformf
i4b:__ZL10Lutf8_nextP9lua_State
vZb:_luaK_dischargevars
Gyd:__ZNSt3__26locale5__imp7installINS_8time_getIcNS_19istreambuf_iteratorIcNS_11char_traitsIcEEEEEEEEvPT_
iKa:__ZN12_GLOBAL__N_118FixtureParticleSetC2EP16b2StackAllocator
fy:_glGetActiveUniform
_7b:__ZN8pystring10capitalizeERKNSt3__212basic_stringIcNS0_11char_traitsIcEENS0_9allocatorIcEEEE
n$a:__ZN12Box2DBinder211testOverlapEP9lua_State
fOd:__ZSt9terminatev
uW:__ZN11Application5keyUpEii
tQd:__ZN10__cxxabiv112_GLOBAL__N_116parse_expressionINS0_2DbEEEPKcS4_S4_RT_
DB:_glutKeyboardUpFunc
Bmd:__ZNKSt3__218__time_get_storageIwE15__do_date_orderEv
Jyc:_ps_dimension_add_t1stem
xyb:_png_get_color_type
OIb:_merged_1v_upsample
Tw:_glBlendEquation
era:__ZNSt3__23setIPN21GGSampleOpenALManager7ChannelENS_4lessIS3_EENS_9allocatorIS3_EEED2Ev
e7:__ZNSt3__26__treeINS_12__value_typeIdNS_6vectorIP5TimerNS_9allocatorIS4_EEEEEENS_19__map_value_compareIdS8_NS_4lessIdEELb1EEENS5_IS8_EEE25__emplace_unique_key_argsIdJRKNS_21piecewise_construct_tENS_5tupleIJOdEEENSJ_IJEEEEEENS_4pairINS_15__tree_iteratorIS8_PNS_11__tree_nodeIS8_PvEEiEEbEERKT_DpOT0_
A4b:__ZL19push_onecaptureUTF8P14MatchStateUTF8iPKcS2_
IWb:_luaG_logicerror
xnb:__ZN14GGSoundManager21ChannelRemoveCallbackEmPFviPvS0_ES0_
nFb:_png_write_image_16bit
wpb:__ZL11mpg123lseekPvii
IHd:__ZNSt3__212basic_stringIwNS_11char_traitsIwEENS_9allocatorIwEEE13shrink_to_fitEv
x4:__ZN5Shape17setSolidFillStyleEjf
y9a:__ZN12MatrixBinder11setElementsEP9lua_State
LYc:_mlock
$C:_llvm_va_copy
_Ic:__ZN10emscripten8internal11LightTypeIDINS_11memory_viewIiEEE3getEv
ePa:__ZZN16b2ParticleSystem23DestroyParticlesInShapeERK7b2ShapeRK11b2TransformbEN31DestroyParticlesInShapeCallback13ReportFixtureEP9b2Fixture
OVa:__ZN10MeshBinder8destructEP9lua_State
Xqb:_lua_pcall_traceback
YMb:_jpeg_default_qtables
KCd:__ZNSt3__218__libcpp_refstringaSERKS0_
Gca:__ZNK6Sprite1zEv
RLd:__ZNSt3__212strstreambuf8overflowEi
lI:FUNCTION_TABLE_viiiiii
TKc:_cacos
cYa:__ZN11GGUrlLoader5closeEv
uBa:__ZNK6b2AABB7RayCastEP15b2RayCastOutputRK14b2RayCastInput
P2b:__ZL8io_popenP9lua_State
Vya:__ZmlfRK6b2Vec3
fva:__ZmlfRK6b2Vec2
I9:__ZN6GGPoolINSt3__25stackINS0_4pairIP6SpritebEENS0_5dequeIS5_NS0_9allocatorIS5_EEEEEEE6createEv
Pnc:_af_cjk_align_serif_edge
mp:_emscripten_atomic_exchange_u64
inb:__ZNSt3__26__treeIPN14GGSoundManager7ChannelENS_4lessIS3_EENS_9allocatorIS3_EEE13__lower_boundIS3_EENS_15__tree_iteratorIS3_PNS_11__tree_nodeIS3_PvEEiEERKT_SE_PNS_15__tree_end_nodeIPNS_16__tree_node_baseISC_EEEE
mUd:_pthread_cond_broadcast
sYd:_glTexImage2D__wrapper
SZb:__ZL12codecompoundP9FuncState6OpCodeP7expdescS3_
Hy:_glGetVertexAttribfv
PVb:_luaF_findupval
$0:__ZN9MovieClip4playEb
bJc:__ZN10emscripten8internal6TypeIDINS_11memory_viewIsEEE3getEv
snc:_FT_Outline_Check
sRd:__ZN10__cxxabiv112_GLOBAL__N_111string_pairC2Ev
Md:_Mix_VolumeChunk
LId:__ZNKSt3__212basic_stringIwNS_11char_traitsIwEENS_9allocatorIwEEE4copyEPwjj
AR:__ZN5GMesh27clearTextureCoordinateArrayEv
qN:___cxx_global_var_init_21
_1b:__ZL7getfuncP9lua_Statei
s5c:_wcsncasecmp_l
Hbd:__ZTv0_n12_NSt3__213basic_istreamIwNS_11char_traitsIwEEED1Ev
oea:__ZN12ShaderEngine8setColorEffff
t9:__ZNSt3__26__treeIP6SpriteNS_4lessIS2_EENS_9allocatorIS2_EEEC2ERKS4_
EEc:_mod_load
oSa:__ZNSt3__26__treeINS_12__value_typeINS_12basic_stringIcNS_11char_traitsIcEENS_9allocatorIcEEEEP11ProfileInfoEENS_19__map_value_compareIS7_SA_NS_4lessIS7_EELb1EEENS5_ISA_EEE16__construct_nodeIJRKNS_21piecewise_construct_tENS_5tupleIJRKS7_EEENSL_IJEEEEEENS_10unique_ptrINS_11__tree_nodeISA_PvEENS_22__tree_node_destructorINS5_IST_EEEEEEDpOT_
cFd:__ZNSt3__212basic_stringIcNS_11char_traitsIcEENS_9allocatorIcEEE7replaceEjjNS_17basic_string_viewIcS2_EE
vOa:__ZNSt3__212__rotate_gcdIPiEET_S2_S2_S2_
Hm:_alGetSourcei
Kfa:__ZN17ogl2ShaderProgram13resetUniformsEv
gYd:_glGetShaderInfoLog__wrapper
fda:__ZNK9Transform1zEv
Fm:_alGetSourcef
bs:_emscripten_glGetTexParameteriv
p4a:__ZN12Box2DBinder228b2World_createParticleSystemEP9lua_State
sx:_glDeleteTextures
tzc:_ft_new_glyph
Twb:_png_access_version_number
Jlc:_inflate_trees_fixed
rRa:__ZL13lzlib_versionP9lua_State
Hsa:__ZNK10emscripten8internal12WireTypePackIJbEEcvPKvEv
O4:__ZN5Shape6lineToEff
qLa:__ZN12_GLOBAL__N_124ExpirationTimeComparatorC2EPKi
$zb:_png_read_push_finish_row
h:HEAPF64
gLb:_emit_sos
DDb:_png_set_chunk_malloc_max
K8c:__ZNSt3__218__insertion_sort_3IRNS_6__lessIeeEEPeEEvT0_S5_T_
fJa:__ZNSt3__214__rotate_rightIPN16b2ParticleSystem4PairEEET_S4_S4_
ubd:__ZNSt3__215basic_streambufIwNS_11char_traitsIwEEE6xsputnEPKwi
Sq:_emscripten_glDeleteShader
Ug:_XMapWindow
jpd:__ZNKSt3__28messagesIwE7do_openERKNS_12basic_stringIcNS_11char_traitsIcEENS_9allocatorIcEEEERKNS_6localeE
gPc:_wcswidth
PBa:__ZN6b2AABB7CombineERKS_S1_
nIb:_start_pass_dpost
hLb:_emit_sof
tmb:__ZN14GGSoundManagerD2Ev
tOd:__ZNKSt13bad_exception4whatEv
Vud:__ZNKSt3__28time_getIwNS_19istreambuf_iteratorIwNS_11char_traitsIwEEEEE8get_dateES4_S4_RNS_8ios_baseERjP2tm
ZMd:__ZNSt3__26thread6detachEv
Q7b:__ZN8pystring8endswithERKNSt3__212basic_stringIcNS0_11char_traitsIcEENS0_9allocatorIcEEEES8_ii
Sqb:_luaL_newweaktable
neb:_tlsf_destroy
kV:__ZNKSt3__26__treeINS_12__value_typeINS_4pairIiiEEiEENS_19__map_value_compareIS3_S4_NS_4lessIS3_EELb1EEENS_9allocatorIS4_EEE10__root_ptrEv
jZ:__ZN13GridBagLayout24preInitMaximumArraySizesEP6SpriteRjS2_
T3:__ZNSt3__26__treeINS_12__value_typeIiN8TTBMFont12TextureGlyphEEENS_19__map_value_compareIiS4_NS_4lessIiEELb1EEENS_9allocatorIS4_EEE7destroyEPNS_11__tree_nodeIS4_PvEE
chc:_mpg123_copy_string
Gpd:__ZNKSt3__27codecvtIcc11__mbstate_tE10do_unshiftERS1_PcS4_RS4_
SDb:_png_write_iCCP
DJd:__ZNKSt3__217basic_string_viewIwNS_11char_traitsIwEEE7compareES3_
yDd:__ZNSt3__212basic_stringIcNS_11char_traitsIcEENS_9allocatorIcEEE21__grow_by_and_replaceEjjjjjjPKc
b2c:___fseterr
VPc:___getdents
qW:__ZN11Application9mouseMoveEiiii
gPb:__ZL17UnpackModulationsPK17AMTC_BLOCK_STRUCTiPA16_iS3_ii
JEa:__ZN16b2ParticleSystem16ReallocateBufferI6b2Vec2EEPT_S3_iiib
vS:__ZNSt3__26vectorI8RectSizeNS_9allocatorIS1_EEE8__appendEj
Lbc:_null_id3_links
Aqc:_Ins_DUP
bH:FUNCTION_TABLE_d
sLb:_jinit_forward_dct
QDc:_instrument_init
elb:__ZNSt3__212__deque_baseIN6gevent12EventManager17EventQueueElementENS_9allocatorIS3_EEE5beginEv
mH:FUNCTION_TABLE_i
UEa:__ZN16b2ParticleSystem16ReallocateBufferI6b2Vec2EEPT_S3_ii
j9a:__ZN12MatrixBinder8destructEP9lua_State
vJb:_make_odither_array
DH:FUNCTION_TABLE_v
zBb:_png_set_progressive_read_fn
gRc:_get_16
Zha:__ZL12check_offsetP4pathf
vga:__ZNSt3__214__split_bufferIP17ogl2ShaderProgramRNS_9allocatorIS2_EEEC2EjjS5_
Tdd:__ZNSt3__215basic_streambufIcNS_11char_traitsIcEEE4setpEPcS4_
KF:_uuid_parse
Usc:_tt_face_load_loca
d0b:__ZL17collectvalidlinesP9lua_StateP7Closure
zkc:_tt_face_load_gasp
fxb:_png_colorspace_sync
H1b:__ZL11luaB_gcinfoP9lua_State
pxb:_png_colorspace_check_XYZ
Ir:_emscripten_glGetAttribLocation
cEc:_CAN_READ
Eaa:__ZN6Sprite22recursiveDispatchEventEP5Eventbb
Evd:__ZNKSt3__28time_putIcNS_19ostreambuf_iteratorIcNS_11char_traitsIcEEEEE3putES4_RNS_8ios_baseEcPK2tmPKcSC_
Qhc:_Vertical_Sweep_Span
Rq:_emscripten_glDeleteRenderbuffers
YT:__ZNSt3__26vectorIN8FontBase11ChunkLayoutENS_9allocatorIS2_EEE13__move_assignERS5_NS_17integral_constantIbLb1EEE
Zlc:_gray_convert_glyph
o5c:_wcscasecmp_l
SV:__ZNSt3__213__vector_baseINS_4pairINS_12basic_stringIcNS_11char_traitsIcEENS_9allocatorIcEEEEfEENS5_IS8_EEED2Ev
Ysc:_tt_check_single_notdef
zFa:__ZN7b2Joint8GetBodyAEv
bMd:__ZNSt3__29strstreamD0Ev
FBc:_raccess_guess_linux_double_from_file_name
vE:_pthread_rwlockattr_setpshared
wQa:__ZNSt3__212__deque_baseIN14LuaApplication12AsyncLuaTaskENS_9allocatorIS2_EEE5beginEv
zCd:__ZNSt3__218shared_timed_mutex15try_lock_sharedEv
aRc:_fuzzycmp
nZb:_luaK_exp2anyreg
oIa:__ZNSt3__213__stable_sortIRPFbRKN16b2ParticleSystem5TriadES4_EPS2_EEvT0_S9_T_NS_15iterator_traitsIS9_E15difference_typeEPNSC_10value_typeEi
Stb:_deflate_rle
nBd:__ZNSt3__215recursive_mutex8try_lockEv
$uc:_cf2_hint_init
tXa:__ZN11GGGyroscope5startEv
mKa:__ZZN16b2ParticleSystem18UpdateBodyContactsEvEN26UpdateBodyContactsCallbackC2EPS_P7b2WorldP15b2ContactFilterP17b2ContactListenerPN12_GLOBAL__N_118FixtureParticleSetE
ZRa:__ZNSt3__26__treeINS_12__value_typeINS_12basic_stringIcNS_11char_traitsIcEENS_9allocatorIcEEEEdEENS_19__map_value_compareIS7_S8_NS_4lessIS7_EELb1EEENS5_IS8_EEE25__emplace_unique_key_argsIS7_JRKNS_21piecewise_construct_tENS_5tupleIJRKS7_EEENSJ_IJEEEEEENS_4pairINS_15__tree_iteratorIS8_PNS_11__tree_nodeIS8_PvEEiEEbEERKT_DpOT0_
Pgd:__ZNSt3__213basic_ostreamIwNS_11char_traitsIwEEEC1EPNS_15basic_streambufIwS2_EE
iC:_llvm_cttz_i64
NMc:_memcmp
Rid:__ZNSt3__26__clocEv
Sp:_emscripten_get_deviceorientation_status
WDa:__ZNK7b2World8IsLockedEv
qn:_alcCloseDevice
gfc:_buffered_forget
nZc:_accept
cbb:__ZN8LuaEventC2ERK9EventTypeIS_E
Nud:__ZNKSt3__28time_getIcNS_19istreambuf_iteratorIcNS_11char_traitsIcEEEEE11get_weekdayES4_S4_RNS_8ios_baseERjP2tm
kQb:__ZNK11CPVRTString17find_first_not_ofEPKcjj
zad:__ZNSt3__26futureIvED2Ev
OBb:_png_init_rgb_transformations
UIc:__ZN10emscripten8internal11LightTypeIDINS_11memory_viewImEEE3getEv
Xw:_glBufferData
BMc:___crypt_sha256
Kp:_emscripten_get_battery_status
$bd:__ZNSt3__219__iostream_categoryD0Ev
aBb:_png_set_text_2
Gob:_gaudio_ChannelSetPosition
afd:__ZNSt3__213basic_istreamIcNS_11char_traitsIcEEE3getEPci
Q9:__ZNSt3__26vectorIPNS_5stackINS_4pairIP6SpritebEENS_5dequeIS5_NS_9allocatorIS5_EEEEEENS7_ISB_EEE21__push_back_slow_pathIRKSB_EEvOT_
MOb:__ZN10ByteBuffer6appendEt
LOb:__ZN10ByteBuffer6appendEs
M0c:___tre_mem_alloc_impl
i_a:__ZNSt3__2lsINS_11char_traitsIcEEEERNS_13basic_ostreamIcT_EES6_PKc
Krd:__ZNKSt3__214__codecvt_utf8IwE10do_unshiftER11__mbstate_tPcS4_RS4_
_Lb:_flush_bits_e
nMc:_csinl
eib:_gtexture_set_engine
Eqb:__ZNKSt3__26__treeINS_12__value_typeIPKciEENS_19__map_value_compareIS3_S4_N8StringId5ltstrELb1EEENS_9allocatorIS4_EEE10__root_ptrEv
q1a:__ZN12Box2DBinder227b2WheelJoint_getMotorTorqueEP9lua_State
qV:__ZN3DibC2EP11Applicationiib
yIa:__ZNSt3__215__inplace_mergeIRPFbRKN16b2ParticleSystem5TriadES4_EPS2_EEvT0_S9_S9_T_NS_15iterator_traitsIS9_E15difference_typeESD_PNSC_10value_typeEi
HOb:__ZN10ByteBuffer6appendEc
gy:_glGetAttachedShaders
JAc:_hash_str_compare
nQd:__ZNSt3__26vectorIN10__cxxabiv112_GLOBAL__N_111string_pairENS2_11short_allocIS3_Lj4096EEEE21__push_back_slow_pathIS3_EEvOT_
mG:extendError
Wib:_gtexture_create
NQc:_evalbinop
SLb:_flush_bits_s
NOb:__ZN10ByteBuffer6appendEi
JOb:__ZN10ByteBuffer6appendEh
_6c:_ttyname_r
ZLc:_cpow
Ek:__embind_register_function
z6b:__ZL10gmatch_auxP9lua_State
ttb:_gpath_getDriveFlags
rGc:_get_envelope
zxb:_png_icc_check_tag_table
S6:__ZNSt3__212__deque_baseINS_4pairIP5TimeriEENS_9allocatorIS4_EEED2Ev
apa:__ZNSt3__26__treeINS_12__value_typeImPN12_GLOBAL__N_121GGStreamOpenALManager5SoundEEENS_19__map_value_compareImS6_NS_4lessImEELb1EEENS_9allocatorIS6_EEE16__insert_node_atEPNS_15__tree_end_nodeIPNS_16__tree_node_baseIPvEEEERSI_SI_
Yhc:_Convert_Glyph
Tg:_XInternAtom
_Xc:_twoway_strstr
U4a:__ZN7b2World4StepEfii
X0:__ZNSt3__26__treeINS_12__value_typeIiNS_6vectorIPN9MovieClip5FrameENS_9allocatorIS5_EEEEEENS_19__map_value_compareIiS9_NS_4lessIiEELb1EEENS6_IS9_EEE13__lower_boundIiEENS_15__tree_iteratorIS9_PNS_11__tree_nodeIS9_PvEEiEERKT_SL_PNS_15__tree_end_nodeIPNS_16__tree_node_baseISJ_EEEE
xed:__ZNSt3__213basic_istreamIcNS_11char_traitsIcEEEC2EOS3_
Adb:__ZN14LuaApplication14setOrientationE11Orientation
_vc:_cff_parse_font_matrix
UFa:__ZN15b2TypedFreeListI16b2ParticleHandleEC2Ev
Nnd:__ZNKSt3__217moneypunct_bynameIcLb0EE14do_curr_symbolEv
WGb:_alloc_funny_pointers
jna:__ZN6ginput12InputManager10mouseHoverEiiii
hAb:_png_do_encode_alpha
BBb:_png_default_read_data
U8a:__ZN6Sprite8setRefXYEff
gkb:__ZNSt3__26__treeINS_12__value_typeImPN9g_private14TextureManager18TempTextureElementEEENS_19__map_value_compareImS6_NS_4lessImEELb1EEENS_9allocatorIS6_EEE12__find_equalImEERPNS_16__tree_node_baseIPvEERPNS_15__tree_end_nodeISI_EERKT_
h7a:__ZN12SpriteBinder6createEP9lua_State
Vua:_serverDataReceived
l1a:__ZN12Box2DBinder230b2WheelJoint_getMaxMotorTorqueEP9lua_State
kzb:_png_get_sCAL_s
Zdc:_synth_stereo_wrap
Zb:invoke_viidii
cAb:_png_do_strip_channel
$Ua:__ZN11AudioBinder22SoundChannel_setPausedEP9lua_State
hKc:_malloc_usable_size
Qua:__ZNK10emscripten8internal12WithPoliciesIJEE11ArgTypeListIJvNS_11memory_viewIhEEEE8getCountEv
xRa:__ZL16lzlib_decompressP9lua_State
Xb:invoke_viidid
ix:_glCopyTexSubImage2D
Ssd:__ZNKSt3__215__codecvt_utf16IDsLb1EE16do_always_noconvEv
m7:__ZNKSt3__26__treeIP5TimerNS_4lessIS2_EENS_9allocatorIS2_EEE10__root_ptrEv
R_a:__ZN12Box2DBinder216b2Shape_destructEP9lua_State
Gib:__ZNSt3__26__treeINS_12__value_typeImPN9g_private19RenderTargetElementEEENS_19__map_value_compareImS5_NS_4lessImEELb1EEENS_9allocatorIS5_EEE7destroyEPNS_11__tree_nodeIS5_PvEE
Sw:_glBlendColor
qya:__ZN6b2Vec37SetZeroEv
l1:__ZNKSt3__26vectorIP8SlotBaseNS_9allocatorIS2_EEE8max_sizeEv
Xac:_INT123_bytes_to_samples
x2b:__ZL8settabsiP9lua_StatePKci
qNc:_frexp
gNc:_fmt_x
lS:__ZNSt3__214__split_bufferI4RectRNS_9allocatorIS1_EEEC2EjjS4_
_Md:__ZNSt3__26thread20hardware_concurrencyEv
NJd:__ZNSt3__212basic_stringIwNS_11char_traitsIwEENS_9allocatorIwEEE19__move_assign_allocERS5_NS_17integral_constantIbLb1EEE
OHb:_jpeg_idct_6x12
C1a:__ZN12Box2DBinder224b2MouseJoint_getMaxForceEP9lua_State
iNc:_fmt_u
x$a:__ZN18b2DistanceJointDefC2Ev
rRb:___gl_noVertexData
oCc:_FT_Get_CMap_Language_ID
Utc:_ft_synthesize_vertical_metrics
saa:__ZNSt3__214__split_bufferIPPK6SpriteRNS_9allocatorIS4_EEEC2EjjS7_
l4b:__ZL14Lutf8_ncasecmpP9lua_State
X9b:__ZN6snappy23IsValidCompressedBufferEPKcj
_J:__ZN9Particles11getPositionEiPfS0_
_ma:_ginput_removeCallbackWithGid
Esd:__ZNKSt3__215__codecvt_utf16IDsLb0EE5do_inER11__mbstate_tPKcS5_RS5_PDsS7_RS7_
SSc:_erff
wId:__ZNSt3__212basic_stringIwNS_11char_traitsIwEENS_9allocatorIwEEE5eraseENS_11__wrap_iterIPKwEE
Blb:__ZN6gevent12EventManagerD2Ev
xnc:_FT_Lookup_Renderer
Dka:__ZN14NetworkManager20setResourceDirectoryEPKc
O0b:_luaL_optnumber
zyd:__ZNSt3__212_GLOBAL__N_14makeINS_9money_getIwNS_19istreambuf_iteratorIwNS_11char_traitsIwEEEEEEjEERT_T0_
mnc:_af_shaper_buf_destroy
NVd:mftCall_viiii
bdc:_INT123_getbits
Nrb:_g_p_read
IVd:mftCall_viiid
uWc:_vdprintf
Fnd:__ZNKSt3__210moneypunctIwLb1EE14do_frac_digitsEv
Aad:__ZNSt3__26futureIvE3getEv
T_:__ZL12easeOutQuintd
cfa:__ZNSt3__214__split_bufferIPN12ShaderEngine12DepthStencilENS_9allocatorIS3_EEED2Ev
Ijd:__ZNKSt3__27num_getIwNS_19istreambuf_iteratorIwNS_11char_traitsIwEEEEE6do_getES4_S4_RNS_8ios_baseERjRPv
rUa:__ZN12Path2DBinder12setFillColorEP9lua_State
dBd:__ZNSt3__221__undeclare_reachableEPv
wfa:__Z15pathShadersInitb
o4:__ZN5Shape6doDrawERK7Matrix4ffff
x8b:__ZN8pystring2os4path7join_ntERKNSt3__212basic_stringIcNS2_11char_traitsIcEENS2_9allocatorIcEEEESA_
tEa:__ZNK15b2SlabAllocatorI16b2ParticleHandleE4Slab12GetFirstItemEv
S5b:__ZL8str_byteP9lua_State
yA:_glfwGetProcAddress
Ikc:_tt_face_free_sbit
qAb:_png_do_bgr
lf:_SDL_JoystickNumBalls
Skb:__ZNSt3__26vectorIN19gevent_CallbackList8CallbackENS_9allocatorIS2_EEE26__swap_out_circular_bufferERNS_14__split_bufferIS2_RS4_EE
Op:_emscripten_get_canvas_size
TFb:_get_dri
ctc:_TT_Load_Simple_Glyph
Id:_Mix_SetPanning
F7:__ZN14TimerContainer15queueTimerEventEP5Timer
D2:__ZN6TTFontC2EP11ApplicationNSt3__26vectorIN8FontBase8FontSpecENS2_9allocatorIS5_EEEEffP7GStatus
Phb:_gimage_saveJpg
P5c:_tcflow
dSb:_allocVertex
scb:__ZN14EventBinderMap9push_backEiP12CppLuaBridge
Lgd:__ZNSt3__213basic_ostreamIcNS_11char_traitsIcEEE5seekpExNS_8ios_base7seekdirE
AWb:__ZL9currentpcP9lua_StateP8CallInfo
dkc:_FT_Stream_Read
rB:_glutCreateWindow
Xda:__ZN13ShaderProgramD0Ev
j7c:__ZNSt3__27__sort3IRNS_6__lessIwwEEPwEEjT0_S5_S5_T_
q_b:_luaK_setlist
s1c:_utimensat
wRc:_iswalpha_l
Pb:invoke_viidddd
Xv:_execve
NJ:__ZNKSt3__26vectorIhNS_9allocatorIhEEE8max_sizeEv
zha:__ZNSt3__26__treeINS_12__value_typeINS_12basic_stringIcNS_11char_traitsIcEENS_9allocatorIcEEEES7_EENS_19__map_value_compareIS7_S8_NS_4lessIS7_EELb1EEENS5_IS8_EEE25__emplace_unique_key_argsIS7_JRKNS_21piecewise_construct_tENS_5tupleIJOS7_EEENSJ_IJEEEEEENS_4pairINS_15__tree_iteratorIS8_PNS_11__tree_nodeIS8_PvEEiEEbEERKT_DpOT0_
SCa:__ZNK12b2BroadPhase11TestOverlapEii
$Ra:__ZNSt3__26__treeINS_12__value_typeINS_12basic_stringIcNS_11char_traitsIcEENS_9allocatorIcEEEEdEENS_19__map_value_compareIS7_S8_NS_4lessIS7_EELb1EEENS5_IS8_EEE16__construct_nodeIJRKNS_21piecewise_construct_tENS_5tupleIJRKS7_EEENSJ_IJEEEEEENS_10unique_ptrINS_11__tree_nodeIS8_PvEENS_22__tree_node_destructorINS5_ISR_EEEEEEDpOT_
QId:__ZNKSt3__212basic_stringIwNS_11char_traitsIwEENS_9allocatorIwEEE4findERKS5_j
Yv:_execvp
Qob:_gaudio_ChannelSetLooping
bbb:__ZN9EventTypeI8LuaEventEC2EPKc
uSa:__ZNSt3__26__treeINS_12__value_typeIP7ClosureP11ProfileInfoEENS_19__map_value_compareIS3_S6_NS_4lessIS3_EELb1EEENS_9allocatorIS6_EEE25__emplace_unique_key_argsIS3_JRKNS_21piecewise_construct_tENS_5tupleIJRKS3_EEENSI_IJEEEEEENS_4pairINS_15__tree_iteratorIS6_PNS_11__tree_nodeIS6_PvEEiEEbEERKT_DpOT0_
xRb:_RenderFan
gh:___assert_func
ME:_sem_init
ned:__ZNKSt3__215basic_streambufIwNS_11char_traitsIwEEE5egptrEv
N$b:__ZL9findindexP9lua_StateP5TableP10lua_TValue
jcc:_INT123_ntom_val
K$c:_jrand48
VFb:_jpeg_alloc_quant_table
fea:__ZN12ShaderEngine10setFrustumEffffff
sCb:_png_image_format
vx:_glDepthFunc
EMc:__crypt_extended_r_uut
GSd:runPostSets1
lUb:_unzGetCurrentFileZStreamPos64
Iud:__ZNSt3__28time_getIcNS_19istreambuf_iteratorIcNS_11char_traitsIcEEEEEC2Ej
pUa:__ZN12Path2DBinder8destructEP9lua_State
med:__ZNKSt3__215basic_streambufIwNS_11char_traitsIwEEE4gptrEv
tfb:__ZN21GEventDispatcherProxyD0Ev
wvd:__ZNSt3__220__get_up_to_n_digitsIwPwEEiRT0_S2_RjRKNS_5ctypeIT_EEi
SId:__ZNSt3__211char_traitsIwE4findEPKwjRS2_
UJ:__ZNKSt3__26vectorIfNS_9allocatorIfEEE8max_sizeEv
$7:__ZN14TimerContainer15resumeAllTimersEv
y9:__ZN18GridBagConstraintsC2Ev
iSc:_towctrans_l
wjc:_tt_cmap14_char_var_index
Qfa:__ZNSt3__213__vector_baseIN13ShaderProgram8DataDescENS_9allocatorIS2_EEED2Ev
Gzd:__ZNSt3__26vectorIPNS_6locale5facetENS_15__sso_allocatorIS3_Lj28EEEE18__construct_at_endIPS3_EENS_9enable_ifIXsr21__is_forward_iteratorIT_EE5valueEvE4typeESA_SA_j
vSa:__ZNSt3__26__treeINS_12__value_typeIP7ClosureP11ProfileInfoEENS_19__map_value_compareIS3_S6_NS_4lessIS3_EELb1EEENS_9allocatorIS6_EEE12__find_equalIS3_EERPNS_16__tree_node_baseIPvEERPNS_15__tree_end_nodeISI_EERKT_
xFb:_reset_input_controller
E8a:__ZN6Sprite11ShaderParamC2ERKS0_
_yc:_psh_globals_new
Oeb:__GLOBAL__sub_I_eventdispatcher_cpp
vZa:__ZN17ApplicationBinder15getLogicalWidthEP9lua_State
q_c:_ntohl
Y_c:_getnetbyname
M6b:__ZL12os_setlocaleP9lua_State
GEb:_png_do_write_interlace
FJd:__ZNKSt3__212basic_stringIwNS_11char_traitsIwEENS_9allocatorIwEEE7compareEjjPKw
xLa:__ZNK12_GLOBAL__N_124ExpirationTimeComparatorclEii
Prb:__GLOBAL__sub_I_gpath_cpp
zfd:__ZNSt3__213basic_ostreamIwNS_11char_traitsIwEEE6sentryD2Ev
mgd:__ZNSt3__213basic_ostreamIcNS_11char_traitsIcEEEC1EOS3_
RLa:__ZNK16b2ParticleSystem9GetRadiusEv
j$a:__ZN12Box2DBinder216getWheelJointDefEP9lua_State
oya:__ZmiRK6b2Vec3S1_
mWa:__ZN10MeshBinder9getVertexEP9lua_State
YMa:__ZN16b2PrismaticJoint9SetLimitsEff
h_b:__ZL11pushclosureP8LexStateP9FuncStateP7expdesc
pVd:mftCall_viddddddddd
VEc:_virt_mapchannel
Kpd:__ZNKSt3__27codecvtIcc11__mbstate_tE13do_max_lengthEv
Fxa:__ZN12b2MouseJoint11ShiftOriginERK6b2Vec2
EE:_putenv
APb:__ZN17CPVRTResourceFileC2EPKcj
rBb:_png_set_unknown_chunks
oNa:__ZN15b2RevoluteJoint13SetMotorSpeedEf
Cpa:__ZN12_GLOBAL__N_121GGStreamOpenALManager5SoundD2Ev
Deb:_block_trim_free_leading
opb:_gaudio_unregisterType
UEd:__ZNSt3__212basic_stringIcNS_11char_traitsIcEENS_9allocatorIcEEE6insertEjjc
Ko:_eglReleaseThread
Y0c:_parse_dup_count
iUd:_llvm_round_f64
jFb:_png_image_write_to_stdio
lxb:_png_XYZ_from_xy
wzb:_png_get_user_height_max
THb:_jpeg_idct_6x3
ltc:_tt_check_trickyness_family
osa:__ZN10emscripten8internal9SignatureIiJNS_3valES2_RS2_S2_S2_S2_iiiEE17get_method_callerEv
gIb:_jpeg_idct_6x6
cac:__ZN6snappy28SnappyDecompressionValidator13TryFastAppendEPKcjj
Vob:_gaudio_ChannelRemoveCallbackWithGid
bAa:__ZN24b2TypedIntrusiveListNodeI14b2TrackedBlockED2Ev
p2a:__ZN12Box2DBinder230b2RevoluteJoint_isMotorEnabledEP9lua_State
DPc:_open
ulb:__ZN19gevent_CallbackListD2Ev
tMa:__ZN6b2Body7SetTypeE10b2BodyType
pYc:_setrlimit
jia:__ZL11calculatepqddddddddPdS_
gxd:__ZNKSt3__29money_getIwNS_19istreambuf_iteratorIwNS_11char_traitsIwEEEEE3getES4_S4_bRNS_8ios_baseERjRNS_12basic_stringIwS3_NS_9allocatorIwEEEE
MDd:__ZNSt3__212basic_stringIcNS_11char_traitsIcEENS_9allocatorIcEEE13__get_pointerEv
T$a:__ZN12Box2DBinder221b2Contact_getManifoldEP9lua_State
P$a:__ZN12Box2DBinder232b2ParticleGroup_getParticleCountEP9lua_State
y4:__ZN5Shape19setTextureFillStyleEP11TextureBasePK7Matrix4
xPb:__ZN21CPVRTMemoryFileSystem7GetFileEPKcPPKvPj
u9:__ZN6Sprite9setShaderEP13ShaderProgram
hrc:_Ins_FLIPON
Vub:_z_inflateResetKeep
hZb:__ZL13adjust_assignP8LexStateiiP7expdesc
cC:_llvm_ceil_f32
UE:_setprotoent
xyd:__ZNSt3__212_GLOBAL__N_14makeINS_9money_getIcNS_19istreambuf_iteratorIcNS_11char_traitsIcEEEEEEjEERT_T0_
yIc:__ZN10emscripten8internal6TypeIDINSt3__212basic_stringIhNS2_11char_traitsIhEENS2_9allocatorIhEEEEE3getEv
esd:__ZNKSt3__214__codecvt_utf8IDiE9do_lengthER11__mbstate_tPKcS5_j
xTb:_fwrite_file_func
Kyd:__ZNSt3__26locale5__imp7installINS_8time_putIcNS_19ostreambuf_iteratorIcNS_11char_traitsIcEEEEEEEEvPT_
L5b:__ZL15math_randomseedP9lua_State
c$a:__ZN12Box2DBinder210b2SetScaleEP9lua_State
Aed:__ZNSt3__213basic_istreamIcNS_11char_traitsIcEEE4swapERS3_
ss:_emscripten_glLineWidth
eQ:__ZN7TileMap10setTextureEP11TextureBaseiiiiii
Zsb:_gpath_cleanup
lQb:__ZNK11CPVRTString17find_first_not_ofERKS_j
eu:_emscripten_resume_main_loop
Mya:__ZNK11b2WeldJoint16GetReactionForceEf
Y0b:_luaL_buffinit
Bsc:_Project_y
Psa:__ZN10emscripten8internal11BindingTypeImE10toWireTypeERKm
wUd:_llvm_ctlz_i16
tRd:__ZNSt3__26vectorIN10__cxxabiv112_GLOBAL__N_111string_pairENS2_11short_allocIS3_Lj4096EEEE24__emplace_back_slow_pathIJEEEvDpOT_
BVd:mftCall_viidddddd
VIa:__ZN12b2StackQueueIN16b2VoronoiDiagram20b2VoronoiDiagramTaskEED2Ev
dzb:_png_get_sPLT
DPd:__ZNSt3__213__vector_baseINS_6vectorIN10__cxxabiv112_GLOBAL__N_111string_pairENS3_11short_allocIS4_Lj4096EEEEENS5_IS7_Lj4096EEEED2Ev
uya:__ZNK15b2FrictionJoint17GetReactionTorqueEf
Jzb:_png_process_some_data
hRc:_put_16
Im:_alGetSourceiv
kYd:b62
Buc:_cf2_glyphpath_moveTo
eYd:b60
qYd:b67
N1:__ZN13GRenderTarget4drawEPK6Sprite7Matrix4
oYd:b65
nYd:b64
tYd:b69
yzc:_FT_Glyph_To_Bitmap
Kqa:__ZNSt3__26__treeIPN21GGSampleOpenALManager7ChannelENS_4lessIS3_EENS_9allocatorIS3_EEE13__lower_boundIS3_EENS_15__tree_iteratorIS3_PNS_11__tree_nodeIS3_PvEEiEERKT_SE_PNS_15__tree_end_nodeIPNS_16__tree_node_baseISC_EEEE
JG:registerInheritedInstance
N0b:_luaL_checknumber
z1c:_mkfifoat
Bqc:_Ins_CLEAR
Vha:__ZL22add_stroke_line_dashedP4pathddddPd
wTa:__ZN15ParticlesBinder12clearTextureEP9lua_State
r_c:___bswap_32_492
MU:__ZNSt3__211char_traitsIcE7not_eofEi
cec:_INT123_synth_2to1_m2s
vfa:__ZN12ShaderBufferD0Ev
G3:__ZNSt3__26vectorIP11TextureDataNS_9allocatorIS2_EEE21__push_back_slow_pathIS2_EEvOT_
D0a:__ZN11b2DebugDraw13DrawTransformERK11b2Transform
_Pc:_fegetexceptflag
LX:__ZN11Application19createAutounrefPoolEv
fWd:b8
Iub:_z_inflate_table
Bjb:__ZNSt3__23setIPN9g_private14TextureElementENS_4lessIS3_EENS_9allocatorIS3_EEED2Ev
No:_eglTerminate
ymd:__ZThn8_NKSt3__215time_get_bynameIwNS_19istreambuf_iteratorIwNS_11char_traitsIwEEEEE3__rEv
djc:_tt_cmap10_get_info
uxb:_png_icc_tag_name
hQ:__ZN7TileMap5shiftEii
QBc:_FT_New_Memory_Face
Lbb:__ZNK5Event4typeEv
bhb:__ZNKSt3__26__treeINS_12__value_typeIdNS_6vectorIiNS_9allocatorIiEEEEEENS_19__map_value_compareIdS6_NS_4lessIdEELb1EEENS3_IS6_EEE10__root_ptrEv
Q5a:__ZN15TextFieldBinder12getTextColorEP9lua_State
gxc:_cff_index_load_offsets
VY:__ZNSt3__26__treeIP6ScreenNS_4lessIS2_EENS_9allocatorIS2_EEE5eraseENS_21__tree_const_iteratorIS2_PNS_11__tree_nodeIS2_PvEEiEE
U3c:___stdio_exit
NM:__ZN8Viewport10lookAnglesEffffff
hUa:__ZN14ViewportBinder13getProjectionEP9lua_State
wHd:__ZNKSt3__212basic_stringIwNS_11char_traitsIwEENS_9allocatorIwEEE6lengthEv
Zvd:__ZNKSt3__210moneypunctIcLb0EE13negative_signEv
Er:_emscripten_glGenerateMipmap
qs:_emscripten_glIsTexture
i8b:__ZN8pystring5sliceERKNSt3__212basic_stringIcNS0_11char_traitsIcEENS0_9allocatorIcEEEEii
OWc:_fputs
R4:__ZNSt3__26vectorI6Point2IfENS_9allocatorIS2_EEE21__push_back_slow_pathIRKS2_EEvOT_
qWd:_atexit__wrapper
is:_emscripten_glHint
pJa:__ZNK16b2ParticleSystem16ConnectionFilter17ShouldCreateTriadEiii
x$b:__ZL10DumpHeaderP9DumpState
KJc:___getTypeName
MQc:_evalexpr
bsb:_g_fread
gJ:__ZN12VertexBufferItEC2Ev
Frb:__ZN21GEventDispatcherProxyC2EN6GProxy5GTypeE
VDa:__ZN16b2ContactManagerD2Ev
Uud:__ZNKSt3__28time_getIwNS_19istreambuf_iteratorIwNS_11char_traitsIwEEEEE8get_timeES4_S4_RNS_8ios_baseERjP2tm
h6b:__ZL8lmemfindPKcjS0_j
Gqb:__ZN8StringIdD2Ev
Nxb:_png_reciprocal2
EJa:__ZNK12_GLOBAL__N_117FixedSetAllocator14GetValidBufferEv
V0:__ZNSt3__26vectorIPN9MovieClip5FrameENS_9allocatorIS3_EEE26__swap_out_circular_bufferERNS_14__split_bufferIS3_RS5_EE
HM:__ZNK7Vector3miERKS_
MW:__ZNSt3__26vectorIP15EventDispatcherNS_9allocatorIS2_EEE8allocateEj
jg:_SDL_UpperBlit
_cb:__ZN14LuaApplication12fileNameFuncEPKc
gj:___syscall221
fj:___syscall220
Fwc:_cff_charset_free_cids
UPa:__ZN16b2ParticleSystem18ApplyLinearImpulseEiiRK6b2Vec2
zl:__inet_ntop6_raw
v$:__ZL13easeOutBouncedd
GFc:_next_row
iFc:_virt_setpatch
Axa:__ZNK12b2MouseJoint10GetAnchorAEv
yVa:__ZN12_GLOBAL__N_114GGSoundChannelC2EP9lua_StatePNS_7GGSoundEjbb
tAa:__ZN10b2FreeList13AddToFreeListEP19b2IntrusiveListNode
ODb:_png_write_info_before_PLTE
YOd:__ZNK10__cxxabiv117__array_type_info9can_catchEPKNS_16__shim_type_infoERPv
cVd:mftCall_iiiiiiiiii
LXb:_lua_pushlightuserdata
E0:__ZN13CompleteEventC2ERK9EventTypeIS_E
Lxb:_png_fixed_error
vLd:__ZNSt3__212_GLOBAL__N_19as_stringINS_12basic_stringIwNS_11char_traitsIwEENS_9allocatorIwEEEEPFiPwjPKwzEmEET_T0_SD_PKNSD_10value_typeET1_
pBa:__ZNK9b2Simplex10WriteCacheEP14b2SimplexCache
acc:_buffy_del_chain
_xa:__ZN16b2PrismaticJoint23InitVelocityConstraintsERK12b2SolverData
NNc:_BF_crypt
cmb:_glog_setLevel
pwb:_png_malloc_base
NAa:__ZNK16b2BlockAllocator22GetNumGiantAllocationsEv
Q4:__ZN5Shape9closePathEv
f2:__ZN11TTTextField9setSampleEPKc
v2c:_mclose_2649
U8:__ZNSt3__26__treeIP6SpriteNS_4lessIS2_EENS_9allocatorIS2_EEE13__lower_boundIS2_EENS_15__tree_iteratorIS2_PNS_11__tree_nodeIS2_PvEEiEERKT_SD_PNS_15__tree_end_nodeIPNS_16__tree_node_baseISB_EEEE
Pnd:__ZNKSt3__217moneypunct_bynameIcLb0EE16do_negative_signEv
glb:__ZNSt3__29remove_ifINS_16__deque_iteratorIN6gevent12EventManager17EventQueueElementEPS4_RS4_PS5_iLi0EEENS3_9equal_gidIS4_EEEET_SB_SB_T0_
u8a:__ZN12SpriteBinder9getBoundsEP9lua_State
s8c:__ZNSt3__218__insertion_sort_3IRNS_6__lessIyyEEPyEEvT0_S5_T_
pFa:__ZN12b2MotorJointC2EPK15b2MotorJointDef
R1c:___fsetlocking
_ac:_INT123_frame_init
Ss:_emscripten_glUniform1f
Le:_SDL_GetRGB
xS:__ZNSt3__214__split_bufferI8RectSizeRNS_9allocatorIS1_EEE18__construct_at_endEj
OJd:__ZNSt3__212basic_stringIwNS_11char_traitsIwEENS_9allocatorIwEEE19__move_assign_allocERS5_NS_17integral_constantIbLb0EEE
hfc:_buffered_fullread
Us:_emscripten_glUniform1i
CH:FUNCTION_TABLE_iiiiiiiiiiiii
$Gd:__ZNSt3__212basic_stringIwNS_11char_traitsIwEENS_9allocatorIwEEEaSEPKw
zTa:__ZN9Particles8isPausedEv
Urd:__ZNKSt3__214__codecvt_utf8IDsE16do_always_noconvEv
$vb:_z_gzclearerr
Uca:__ZNK6Sprite5skewXEv
xXb:_lua_touserdata
MGc:_is_same_sid
BO:__ZN10TimerEventD0Ev
b1:__ZN15EventDispatcher16addEventListenerI15EnterFrameEvent9MovieClipS1_EEvRK9EventTypeIT_EPT0_MS8_FvPT1_E
GYb:_luaX_syntaxerror
c3b:__ZL7f_linesP9lua_State
SB:_gmtime_r
ygb:__ZNSt3__26vectorINS_12basic_stringIcNS_11char_traitsIcEENS_9allocatorIcEEEENS4_IS6_EEE13__move_assignERS8_NS_17integral_constantIbLb1EEE
Loa:__ZNSt3__25dequeINS_4pairIjjEENS_9allocatorIS2_EEE9push_backEOS2_
hFd:__ZNSt3__212basic_stringIcNS_11char_traitsIcEENS_9allocatorIcEEE7replaceENS_11__wrap_iterIPKcEES9_NS_17basic_string_viewIcS2_EE
hlb:__ZNSt3__25dequeIN6gevent12EventManager17EventQueueElementENS_9allocatorIS3_EEE5eraseENS_16__deque_iteratorIS3_PKS3_RS8_PKS9_iLi0EEESD_
I2:__ZN8FontBase8FontSpecD2Ev
Hua:_serverStart
NOd:__ZNSt10bad_typeidD2Ev
byc:_psh_hint_table_align_hints
hq:_emscripten_glAttachShader
I_b:_luaK_stringK
zJa:__ZN16b2ParticleSystem10AddContactEiiP15b2ContactFilterP17b2ContactListenerP17b2ParticlePairSet
Zmd:__ZNKSt3__210moneypunctIcLb0EE16do_negative_signEv
nOd:__ZNKSt20bad_array_new_length4whatEv
KH:FUNCTION_TABLE_vidddddd
gWb:__ZL6resizeP9lua_StateP5Tableii
sVc:_remainderf
wua:_JSPlayer_stop
B0b:_luaL_error
lMa:__ZN9b2FixtureC2Ev
cr:_emscripten_glDrawArraysInstanced
nT:__ZNSt3__2plIcNS_11char_traitsIcEENS_9allocatorIcEEEENS_12basic_stringIT_T0_T1_EERKS9_PKS6_
sc:ftCall_viiiii
gka:__ZN12NetworkEventD2Ev
uyc:_psh_glyph_compute_inflections
wFa:__ZN12b2WheelJointC2EPK15b2WheelJointDef
M_c:___get_resolv_conf
DRa:__ZL14lzstream_closeP9lua_State
b6a:__ZN8FontBase8FontSpecC2Ev
k2c:___pthread_self_587
iMb:_encode_mcu
Qga:__ZN17ogl2ShaderTexture9setNativeEPv
Qmd:__ZNSt3__215time_put_bynameIwNS_19ostreambuf_iteratorIwNS_11char_traitsIwEEEEED2Ev
GKd:__ZNSt3__212_GLOBAL__N_18as_floatIeNS_12basic_stringIcNS_11char_traitsIcEENS_9allocatorIcEEEEEET_RKS7_RKT0_Pj
CRd:__ZN10__cxxabiv112_GLOBAL__N_121parse_floating_numberIfNS0_2DbEEEPKcS4_S4_RT0_
ALb:_start_iMCU_row_155
a7b:__ZL4sortP9lua_State
Cyd:__ZNSt3__26locale5__imp7installINS_9money_putIcNS_19ostreambuf_iteratorIcNS_11char_traitsIcEEEEEEEEvPT_
BSc:_acoshf
CLb:_compress_first_pass
PGc:_is_valid_note
NMa:__ZN19b2PrismaticJointDef10InitializeEP6b2BodyS1_RK6b2Vec2S4_
KNa:__ZNK13b2PulleyJoint10GetLengthAEv
Jqc:_Ins_LOOPCALL
z$a:__ZN18b2RevoluteJointDefC2Ev
fNd:__ZNSt3__213__vector_baseINS_4pairIPNS_18condition_variableEPNS_5mutexEEENS_18__hidden_allocatorIS6_EEED2Ev
lLa:__ZNSt3__29remove_ifIPN16b2ParticleSystem5TriadEPFbRKS2_EEET_S8_S8_T0_
Hec:_mpg123_getparam
Cma:_ginput_stopGyroscope
hb:invoke_vid
vka:__ZNSt3__26vectorINS_4pairINS_12basic_stringIcNS_11char_traitsIcEENS_9allocatorIcEEEEfEENS5_IS8_EEE26__swap_out_circular_bufferERNS_14__split_bufferIS8_RS9_EE
TEd:__ZNSt3__212basic_stringIcNS_11char_traitsIcEENS_9allocatorIcEEE6insertEjPKc
iRd:__ZN10__cxxabiv112_GLOBAL__N_111string_pairC2ILj12EEERAT__Kc
Jb:invoke_vii
aV:__ZN4Font20readTextureGlyphsOldEPKc
gP:__ZNSt3__23mapINS_12basic_stringIcNS_11char_traitsIcEENS_9allocatorIcEEEEiNS_4lessIS6_EENS4_INS_4pairIKS6_iEEEEEixEOS6_
W0a:__ZN12Box2DBinder228b2FrictionJoint_setMaxTorqueEP9lua_State
aCc:_FT_Get_Charmap_Index
e9b:__ZN6snappy16UNALIGNED_LOAD32EPKv
LNc:_processblock_51
Fyb:_png_get_pixel_aspect_ratio_fixed
BGb:_jpeg_start_decompress
TZb:__ZL8codecompP9FuncState6OpCodeiP7expdescS3_
I2c:_a_store_607
k$c:___res_msend
oOb:__ZN11NetworkBase8sendDataEPKvjb
cId:__ZNKSt3__212basic_stringIwNS_11char_traitsIwEENS_9allocatorIwEEE5frontEv
NKb:_jpeg_suppress_tables
aSb:___gl_meshSplice
rbc:_INT123_reset_icy
mwc:_cf2_builder_cubeTo
KSc:_cbrt
iT:__ZNSt3__214__split_bufferIN8FontBase11ChunkLayoutERNS_9allocatorIS2_EEE18__construct_at_endINS_13move_iteratorIPS2_EEEENS_9enable_ifIXsr21__is_forward_iteratorIT_EE5valueEvE4typeESC_SC_
gWa:__ZN10MeshBinder15clearColorArrayEP9lua_State
Gv:_emscripten_webgl_enable_extension
pga:__ZN20gl2ShaderBufferCache8recreateEv
JA:_glfwLoadTextureImage2D
c5:__ZN10Tesselator9tesselateERKNSt3__26vectorINS1_I6Point2IfENS0_9allocatorIS3_EEEENS4_IS6_EEEEb
fAc:_ft_conic_is_small_enough
jU:__ZNSt3__23mapINS_4pairIiiEEiNS_4lessIS2_EENS_9allocatorINS1_IKS2_iEEEEED2Ev
uwd:__ZNKSt3__210moneypunctIwLb0EE10neg_formatEv
f3:__Z10oglCleanupv
fQc:___fesetround
Lva:__ZN19b2IntrusiveListNode12InsertBeforeEPS_
lj:___syscall29
rbb:__ZNK4SlotI12CppLuaBridge8LuaEventE2t1Ev
Doc:_tt_size_done
hXa:__ZN13GGAlertDialog8callbackEiPv
rnd:__ZNKSt3__210moneypunctIwLb0EE14do_curr_symbolEv
Qi:___syscall20
YKb:_write_tables_only
dAa:__ZN19b2IntrusiveListNode6RemoveEv
WA:_glfwSetMouseWheel
dL:__ZNSt3__214__split_bufferIPP6SpriteRNS_9allocatorIS3_EEED2Ev
tT:__ZN4Font11getAscenderEv
h0a:__ZN9b2Contact16ResetRestitutionEv
HKc:_strtol_l
QZc:_copy_addr
K_c:_prefixmatch
TDa:__ZN9b2Fixture7DestroyEP16b2BlockAllocator
FKd:__ZNSt3__25stoldERKNS_12basic_stringIcNS_11char_traitsIcEENS_9allocatorIcEEEEPj
mYd:_glFramebufferTexture2D__wrapper
vdc:_III_hybrid
TWa:__ZN17GGTextInputDialog4hideEv
xfd:__ZNSt3__213basic_ostreamIwNS_11char_traitsIwEEE5flushEv
Vtd:__ZNKSt3__27num_getIcNS_19istreambuf_iteratorIcNS_11char_traitsIcEEEEE3getES4_S4_RNS_8ios_baseERjRb
Cx:_glDrawArrays
bud:__ZNKSt3__27num_getIcNS_19istreambuf_iteratorIcNS_11char_traitsIcEEEEE3getES4_S4_RNS_8ios_baseERjRd
TCc:_FT_Stream_GetUOffset
D4:__ZNSt3__214__split_bufferIP11TextureBaseRNS_9allocatorIS2_EEED2Ev
Wtd:__ZNKSt3__27num_getIcNS_19istreambuf_iteratorIcNS_11char_traitsIcEEEEE3getES4_S4_RNS_8ios_baseERjRl
ZWb:_lua_newthread
nVa:__ZN12_GLOBAL__N_114GGSoundChannel8getPitchEv
MXa:__ZN13GGGeolocation19stopUpdatingHeadingEv
Ytd:__ZNKSt3__27num_getIcNS_19istreambuf_iteratorIcNS_11char_traitsIcEEEEE3getES4_S4_RNS_8ios_baseERjRt
ita:_ghttp_Delete
Xtd:__ZNKSt3__27num_getIcNS_19istreambuf_iteratorIcNS_11char_traitsIcEEEEE3getES4_S4_RNS_8ios_baseERjRx
$td:__ZNKSt3__27num_getIcNS_19istreambuf_iteratorIcNS_11char_traitsIcEEEEE3getES4_S4_RNS_8ios_baseERjRy
H$c:_lcong48
Hmb:__ZNSt3__26__treeINS_12__value_typeINS_12basic_stringIcNS_11char_traitsIcEENS_9allocatorIcEEEE13GGAudioLoaderEENS_19__map_value_compareIS7_S9_NS_4lessIS7_EELb1EEENS5_IS9_EEE4findIS7_EENS_15__tree_iteratorIS9_PNS_11__tree_nodeIS9_PvEEiEERKT_
Dxd:__ZNSt3__214codecvt_bynameIwc11__mbstate_tEC2EPKcj
Lad:__ZNSt3__213shared_futureIvED2Ev
z2a:__ZN12Box2DBinder218b2Joint_getAnchorAEP9lua_State
o7b:__ZL8loader_CP9lua_State
vr:_emscripten_glFramebufferTexture2D
RX:__ZN11Application19deleteAutounrefPoolEPv
THd:__ZNSt3__212basic_stringIwNS_11char_traitsIwEENS_9allocatorIwEEE6appendENS_17basic_string_viewIwS2_EE
CYc:_syslog
qVd:mftCall_vidddddddddddd
CA:_glfwGetWindowParam
Klb:_g_NextId
TT:__ZN12VertexBufferI6Point2IfEEC2ERKS2_
_ed:__ZNSt3__213basic_istreamIcNS_11char_traitsIcEEE3getEv
LBd:__ZnajSt11align_val_t
eMc:_cprojl
P$c:___srandom
csc:_Ins_GETVARIATION
Wh:___lock
hua:_ggeolocation_removeCallback
LPb:__ZN11CPVRTStringC2Ejc
j8:__ZNK3Dib14originalHeightEv
wpa:__ZNSt3__26__treeIPN12_GLOBAL__N_121GGStreamOpenALManager7ChannelENS_4lessIS4_EENS_9allocatorIS4_EEE12__find_equalIS4_EERPNS_16__tree_node_baseIPvEERPNS_15__tree_end_nodeISE_EERKT_
sCc:_FT_List_Up
kTc:_finite
uS:__ZNSt3__26vectorI8RectSizeNS_9allocatorIS1_EEE6resizeEj
uHd:__ZNKSt3__212basic_stringIwNS_11char_traitsIwEENS_9allocatorIwEEE5crendEv
nX:__ZNK11Application14getImageScalesEv
Nna:__ZN14GGAudioManager17beginInterruptionEv
VMa:__ZN16b2PrismaticJoint11EnableLimitEb
C1b:__ZL13luaB_newproxyP9lua_State
gCd:__ZNSt3__213__lower_boundIRNS_12_GLOBAL__N_110use_strcmpEPKNS1_14collationnamesEPKcEET0_S9_S9_RKT1_T_
uzc:_FT_Done_Glyph
LJd:__ZNSt3__212basic_stringIwNS_11char_traitsIwEENS_9allocatorIwEEE13__move_assignERS5_NS_17integral_constantIbLb0EEE
hkc:_FT_Stream_ReadChar
Iod:__ZNSt3__219__double_or_nothingIjEEvRNS_10unique_ptrIT_PFvPvEEERPS2_S9_
gQ:__ZNK7TileMap3getEiiPtS0_PiPjP7GStatus
XRd:__ZNKSt3__26vectorINS0_IN10__cxxabiv112_GLOBAL__N_111string_pairENS2_11short_allocIS3_Lj4096EEEEENS4_IS6_Lj4096EEEE8max_sizeEv
Ptb:_z_adler32
jQc:_feupdateenv
had:__ZNSt3__212future_errorD2Ev
Zoa:__ZNSt3__26__treeINS_12__value_typeImPN12_GLOBAL__N_121GGStreamOpenALManager5SoundEEENS_19__map_value_compareImS6_NS_4lessImEELb1EEENS_9allocatorIS6_EEE25__emplace_unique_key_argsImJRKNS_21piecewise_construct_tENS_5tupleIJRKmEEENSI_IJEEEEEENS_4pairINS_15__tree_iteratorIS6_PNS_11__tree_nodeIS6_PvEEiEEbEERKT_DpOT0_
Ard:__ZNKSt3__25ctypeIwE9do_narrowEwc
KO:__ZN11TexturePackC2EP11ApplicationPKcS3_6Filter4Wrap6Formatbj
wjd:__ZNSt3__27num_getIwNS_19istreambuf_iteratorIwNS_11char_traitsIwEEEEED2Ev
e4c:_ecvt
sW:__ZN11Application10mouseWheelEiiii
bQ:__ZNSt3__214__split_bufferIN7TileMap6TileIdERNS_9allocatorIS2_EEE18__construct_at_endEjRKS2_
Nva:__ZNK14b2TrackedBlock9GetMemoryEv
gGc:_smix_stereo_16bit_linear_filter
cRd:__ZN10__cxxabiv112_GLOBAL__N_123parse_unnamed_type_nameINS0_2DbEEEPKcS4_S4_RT_
Kg:_TTF_Quit
Qea:__ZNSt3__214__split_bufferIPN12ShaderEngine12DepthStencilERNS_9allocatorIS3_EEE18__construct_at_endINS_13move_iteratorIPS3_EEEENS_9enable_ifIXsr21__is_forward_iteratorIT_EE5valueEvE4typeESD_SD_
AMc:___crypt_blowfish
Nnc:_af_cjk_align_linked_edge
Ola:_ginput_init
JUc:_log10
AQa:__ZN8MemCacheD0Ev
yHc:_xmp_set_player
xWa:__ZNKSt3__26vectorIjNS_9allocatorIjEEE8max_sizeEv
xad:__ZNSt3__217__assoc_sub_state4waitEv
cCd:__ZNSt3__211regex_errorD0Ev
eUd:_saveSetjmp
xW:__ZN11Application12touchesBeginEP17ginput_TouchEvent
kOb:__ZNSt3__214__split_bufferIPP12QueueElementNS_9allocatorIS3_EEE9push_backEOS3_
cna:__ZN6ginput12InputManager13newMouseEventEiiii
rqd:__ZNKSt3__214collate_bynameIwE10do_compareEPKwS3_S3_S3_
q$a:__ZL6toBodyRK6Binderi
fdd:__ZNSt3__29basic_iosIwNS_11char_traitsIwEEE7copyfmtERKS3_
Rhc:_Vertical_Sweep_Drop
sVa:__ZN12_GLOBAL__N_114GGSoundChannel11setPositionEj
Xjb:_gtexture_SaveRenderTargets
Jeb:_block_prev
QEb:_png_do_write_swap_alpha
Nub:_gf2_matrix_times
Zxd:__ZNSt3__212_GLOBAL__N_14makeINS_7codecvtIwc11__mbstate_tEEjEERT_T0_
Db:invoke_vidi
WId:__ZNKSt3__212basic_stringIwNS_11char_traitsIwEENS_9allocatorIwEEE4findEPKwj
Pbc:_align_the_pointer
jb:invoke_vidd
FWa:__ZN21TextInputDialogBinder4showEP9lua_State
Kz:_glUseProgram
Hlc:_inflate_blocks
Iz:_glUniformMatrix3fv
Eea:__ZNSt3__214__split_bufferIPN12ShaderEngine7ScissorERNS_9allocatorIS3_EEEC2EjjS6_
KDa:__ZN15b2GrowableStackIiLi256EE3PopEv
DYa:__ZNSt3__26vectorINS_4pairINS_12basic_stringIcNS_11char_traitsIcEENS_9allocatorIcEEEES7_EENS5_IS8_EEE26__swap_out_circular_bufferERNS_14__split_bufferIS8_RS9_EE
WBc:_FT_Select_Size
qAd:__ZNSt3__26locale8__globalEv
QQ:__ZN5GMesh9setVertexEifff
wFc:_note_to_period
xDc:_xm_load
mOa:__ZN16b2ParticleSystem21RequestGrowableBufferINS_5ProxyEEEPT_S3_iPi
n1:__ZNSt3__26vectorIP8SlotBaseNS_9allocatorIS2_EEE26__swap_out_circular_bufferERNS_14__split_bufferIS2_RS4_EE
w1c:_mkdirat
Lhc:_ft_black_render
Vba:__ZN6Sprite11setRotationEf
Xcd:__ZNKSt3__29basic_iosIwNS_11char_traitsIwEEE3eofEv
HIb:_rgb_convert
n_a:__ZNK14LuaApplication11orientationEv
Sg:_XCreateWindow
Mw:_glBindBuffer
$M:__ZN9StopWatch5pauseEv
hud:__ZNKSt3__27num_getIwNS_19istreambuf_iteratorIwNS_11char_traitsIwEEEEE3getES4_S4_RNS_8ios_baseERjRx
lud:__ZNKSt3__27num_getIwNS_19istreambuf_iteratorIwNS_11char_traitsIwEEEEE3getES4_S4_RNS_8ios_baseERjRy
W_a:__ZN12Box2DBinder218b2EdgeShape_createEP9lua_State
Soc:_tt_loader_init
$Cb:_png_set_quantize
Nec:_mpg123_open
mud:__ZNKSt3__27num_getIwNS_19istreambuf_iteratorIwNS_11char_traitsIwEEEEE3getES4_S4_RNS_8ios_baseERjRf
XU:__ZN10BMFontBaseD0Ev
VQd:__ZN10__cxxabiv112_GLOBAL__N_116parse_throw_exprINS0_2DbEEEPKcS4_S4_RT_
lWb:__ZL7hashnumPK5Tabled
MY:__ZN6Screen7setSizeEii
gud:__ZNKSt3__27num_getIwNS_19istreambuf_iteratorIwNS_11char_traitsIwEEEEE3getES4_S4_RNS_8ios_baseERjRl
kud:__ZNKSt3__27num_getIwNS_19istreambuf_iteratorIwNS_11char_traitsIwEEEEE3getES4_S4_RNS_8ios_baseERjRm
gu:_emscripten_run_preload_plugins_data
uB:_glutFullScreen
End:__ZNKSt3__210moneypunctIwLb1EE16do_negative_signEv
ieb:_tlsf_remove_pool
v7c:__ZNSt3__27__sort3IRNS_6__lessIhhEEPhEEjT0_S5_S5_T_
Yha:__ZL10corner_endP12kvec_float_tff
Jr:_emscripten_glGetBooleanv
wya:__ZN15b2FrictionJointD0Ev
K2:__ZL4readP13FT_StreamRec_mPhm
Meb:__GLOBAL__sub_I_drawinfo_cpp
pT:__ZN4FontD0Ev
AM:__ZN8ViewportC2EP11Application
xvc:_cf2_glyphpath_pushMove
ZU:__ZN4Font11constructorEPKcS1_b
r7:__ZNSt3__26__treeIP5TimerNS_4lessIS2_EENS_9allocatorIS2_EEE4findIS2_EENS_15__tree_iteratorIS2_PNS_11__tree_nodeIS2_PvEEiEERKT_
n0a:__ZL5getb2P9lua_StatePv
qsb:_g__srget
dmd:__ZThn8_NKSt3__215time_get_bynameIcNS_19istreambuf_iteratorIcNS_11char_traitsIcEEEEE7__am_pmEv
oKc:___stdio_read
o6:__ZN15EventDispatcherD0Ev
I8b:__ZN8pystring2os4path7abspathERKNSt3__212basic_stringIcNS2_11char_traitsIcEENS2_9allocatorIcEEEESA_
_wb:_png_app_warning
t1:__ZNSt3__26__treeINS_12__value_typeIiNS_6vectorIPN9MovieClip5FrameENS_9allocatorIS5_EEEEEENS_19__map_value_compareIiS9_NS_4lessIiEELb1EEENS6_IS9_EEE16__insert_node_atEPNS_15__tree_end_nodeIPNS_16__tree_node_baseIPvEEEERSK_SK_
RS:__ZN15MaxRectsBinPack9PlaceRectERK4Rect
MRd:__ZN10__cxxabiv112_GLOBAL__N_111short_allocINSt3__26vectorINS0_11string_pairENS1_IS4_Lj4096EEEEELj4096EEC2IS4_EERKNS1_IT_Lj4096EEE
yNa:__ZNK12b2MotorJoint11GetMaxForceEv
cud:__ZNKSt3__27num_getIcNS_19istreambuf_iteratorIcNS_11char_traitsIcEEEEE3getES4_S4_RNS_8ios_baseERjRe
Jta:__ZNSt3__26__treeINS_12__value_typeIm8UiDialogEENS_19__map_value_compareImS3_NS_4lessImEELb1EEENS_9allocatorIS3_EEE13__lower_boundImEENS_15__tree_iteratorIS3_PNS_11__tree_nodeIS3_PvEEiEERKT_SG_PNS_15__tree_end_nodeIPNS_16__tree_node_baseISE_EEEE
OQ:__ZN5GMeshC2EP11Applicationb
Rnd:__ZNKSt3__217moneypunct_bynameIcLb0EE13do_pos_formatEv
vOc:_iswdigit
o9b:__ZN6snappy17UNALIGNED_STORE16EPvt
Dtb:__Z20getResourceDirectoryv
Gfa:__ZN17ogl2ShaderProgram14compilationLogEv
ySa:__ZNKSt3__26__treeINS_12__value_typeIP7ClosureP11ProfileInfoEENS_19__map_value_compareIS3_S6_NS_4lessIS3_EELb1EEENS_9allocatorIS6_EEE10__root_ptrEv
tg:_SDL_WaitThread
$kd:__ZNKSt3__28time_getIcNS_19istreambuf_iteratorIcNS_11char_traitsIcEEEEE12__get_minuteERiRS4_S4_RjRKNS_5ctypeIcEE
aud:__ZNKSt3__27num_getIcNS_19istreambuf_iteratorIcNS_11char_traitsIcEEEEE3getES4_S4_RNS_8ios_baseERjRf
gnb:__ZNSt3__26__treeIPN14GGSoundManager7ChannelENS_4lessIS3_EENS_9allocatorIS3_EEE4findIS3_EENS_15__tree_iteratorIS3_PNS_11__tree_nodeIS3_PvEEiEERKT_
_5c:_getuid
z0a:__ZN11b2DebugDraw16DrawSolidPolygonEPK6b2Vec2iRK7b2Color
CGc:_check_envelope_end
rib:__ZN9g_private14TextureManagerD2Ev
AAd:__ZNSt3__26locale14__install_ctorERKS0_PNS0_5facetEl
NUc:_log2
tB:_glutDisplayFunc
KKb:_jpeg_CreateCompress
THc:_xmp_load_module_from_file
uZc:_getoffs
Mkb:__ZN19gevent_CallbackList9equal_gidC2Em
J5b:__ZL8math_radP9lua_State
wlb:__ZNSt3__212__deque_baseIN6gevent12EventManager17EventQueueElementENS_9allocatorIS3_EEE5clearEv
LAd:__ZNSt3__214__shared_countD2Ev
Dh:___cxa_find_matching_catch
wKc:_strtox_767
F6c:_rmdir
V7:__ZNSt3__24moveIPNS_4pairIP5TimeriEES4_S5_RS4_PS5_iLi0EEENS_16__deque_iteratorIT0_T1_T2_T3_T4_XT5_EEET_SF_SE_PNS_9enable_ifIXsr27__is_random_access_iteratorISF_EE5valueEvE4typeE
xnd:__ZNSt3__210moneypunctIwLb1EED2Ev
wt:_emscripten_glVertexAttribDivisorEXT
bUa:__ZN14ViewportBinder8destructEP9lua_State
xMa:__ZN6b2Body13CreateFixtureEPK12b2FixtureDef
sfc:_bc_fill_pool
OCb:_make_gray_colormap
uOd:__ZNSt11logic_errorD2Ev
LIb:_start_pass_merged_upsample
ysc:_Round_To_Half_Grid
PAc:_hash_bucket
z8a:__ZN12SpriteBinder19setStencilOperationEP9lua_State
kTa:__ZN15ParticlesBinder16getParticleSpeedEP9lua_State
nJ:__ZNSt3__26vectorItNS_9allocatorItEEE6resizeEj
lRa:__ZN17PrintStackCheckerD2Ev
Mla:___cxx_global_var_init_504
Anb:__ZN14GGSoundManager16unregisterLoaderEPKc
Acd:__ZNSt3__28ios_base7copyfmtERKS0_
T4b:__ZL12utf8_ispunctj
Coa:__ZN12_GLOBAL__N_121GGStreamOpenALManager7preTickEv
YB:_kill
fD:_logl
LGc:_reset_envelopes_carry
O6:__ZNSt3__26__treeINS_12__value_typeIdNS_6vectorIP5TimerNS_9allocatorIS4_EEEEEENS_19__map_value_compareIdS8_NS_4lessIdEELb1EEENS5_IS8_EEE7destroyEPNS_11__tree_nodeIS8_PvEE
eD:_logf
Ou:_emscripten_set_mouseup_callback
s1:__ZNSt3__26__treeINS_12__value_typeIiNS_6vectorIPN9MovieClip5FrameENS_9allocatorIS5_EEEEEENS_19__map_value_compareIiS9_NS_4lessIiEELb1EEENS6_IS9_EEE16__construct_nodeIJRKNS_21piecewise_construct_tENS_5tupleIJRKiEEENSK_IJEEEEEENS_10unique_ptrINS_11__tree_nodeIS9_PvEENS_22__tree_node_destructorINS6_ISS_EEEEEEDpOT_
WNc:_md5_sum
QUc:_logb
KEc:_mread16b
psa:__ZN10emscripten8internal12WireTypePackIJNS_3valES2_RS2_S2_S2_S2_iiiEEC2EOS2_S5_S3_S5_S5_S5_OiS6_S6_
AId:__ZNSt3__212basic_stringIwNS_11char_traitsIwEENS_9allocatorIwEEE7replaceEjjNS_17basic_string_viewIwS2_EE
lVa:__ZN12_GLOBAL__N_114GGSoundChannel9isPlayingEv
Lcb:__ZL11instance_ofP9lua_State
gEc:_mread16l
sgb:_utf8_to_wchar
TEc:_virt_off
$kb:__ZNSt3__214__split_bufferIPN6gevent12EventManager17EventQueueElementENS_9allocatorIS4_EEE9push_backEOS4_
zeb:_search_suitable_block
sEb:_png_write_iTXt
Su:_emscripten_set_resize_callback
u9c:__ZNSt3__224__libcpp_debug_exception28__libcpp_debug_exception_impC2ERKS1_
qbb:__ZN4SlotI12CppLuaBridge8LuaEventE4callEP5Event
bm:_alDopplerFactor
Hqa:__ZNSt3__26__treeINS_12__value_typeImPN21GGSampleOpenALManager7ChannelEEENS_19__map_value_compareImS5_NS_4lessImEELb1EEENS_9allocatorIS5_EEE5eraseENS_21__tree_const_iteratorIS5_PNS_11__tree_nodeIS5_PvEEiEE
_Cc:_FT_List_Iterate
vFb:_jinit_input_controller
iBd:__ZNSt3__25mutex6unlockEv
Yuc:_cf2_hintmask_getMaskPtr
B9a:__ZN12MatrixBinder9getMatrixEP9lua_State
Yc:_IMG_Load
IYc:_getdelim
_Cb:_convert_gamma_value
Vtb:_copy_block
xpb:__ZL13mpg123cleanupPv
t7a:__ZN12SpriteBinder13getChildIndexEP9lua_State
qSa:__ZNKSt3__26__treeINS_12__value_typeINS_12basic_stringIcNS_11char_traitsIcEENS_9allocatorIcEEEEP11ProfileInfoEENS_19__map_value_compareIS7_SA_NS_4lessIS7_EELb1EEENS5_ISA_EEE10__root_ptrEv
X7b:__ZN8pystring7isspaceERKNSt3__212basic_stringIcNS0_11char_traitsIcEENS0_9allocatorIcEEEE
LTa:__ZN11PixelBinder16setTextureMatrixEP9lua_State
Hrd:__ZNSt3__214__codecvt_utf8IwED0Ev
aVd:mftCall_iiiiiiii
Swc:_cff_cmap_unicode_init
lla:__ZL6_mkdirPKc
tXb:_lua_toboolean
Wk:__emscripten_sample_gamepad_data
bZ:__ZNSt3__26__treeIP6ScreenNS_4lessIS2_EENS_9allocatorIS2_EEE12__find_equalIS2_EERPNS_16__tree_node_baseIPvEERPNS_15__tree_end_nodeISC_EERKT_
S7c:__ZNSt3__26__sortIRNS_6__lessIjjEEPjEEvT0_S5_T_
xcb:__ZNSt3__214__split_bufferIP12CppLuaBridgeRNS_9allocatorIS2_EEEC2EjjS5_
C$:__Z4qMaxdd
uYa:__ZNKSt3__26vectorI12ghttp_HeaderNS_9allocatorIS1_EEE8max_sizeEv
fIa:__ZNSt3__220get_temporary_bufferIN16b2ParticleSystem4PairEEENS_4pairIPT_iEEi
jQb:__ZNK11CPVRTString17find_first_not_ofEPKcj
Uib:__ZNSt3__225__lexicographical_compareIRNS_6__lessIccEENS_11__wrap_iterIPKcEES7_EEbT0_S8_T1_S9_T_
kwa:__ZNK12b2ChainShape7RayCastEP15b2RayCastOutputRK14b2RayCastInputRK11b2Transformi
O$c:_srandom
g6c:_fdatasync
MBc:_new_memory_stream
Cwa:__ZN15b2ContactFilter13ShouldCollideEP9b2FixtureS1_
jf:_SDL_JoystickName
wAb:_png_init_filter_functions
iVd:mftCall_vi
aIc:_mtell
tY:__GLOBAL__sub_I_pixel_cpp
Idc:_INT123_synth_1to1_8bit_wrap_mono
lfb:__ZNSt3__26__treeINS_12__value_typeIPvP11GReferencedEENS_19__map_value_compareIS2_S5_NS_4lessIS2_EELb1EEENS_9allocatorIS5_EEE25__emplace_unique_key_argsIS2_JRKNS_21piecewise_construct_tENS_5tupleIJRKS2_EEENSH_IJEEEEEENS_4pairINS_15__tree_iteratorIS5_PNS_11__tree_nodeIS5_S2_EEiEEbEERKT_DpOT0_
sXc:_fopen
HG:nonConstNoSmartPtrRawPointerToWireType
kE:_pthread_rwlock_init
y8c:__ZNSt3__218__insertion_sort_3IRNS_6__lessIffEEPfEEvT0_S5_T_
fhb:__ZNSt3__26__treeINS_12__value_typeIiN9g_private12TimerManager12TimerElementEEENS_19__map_value_compareIiS5_NS_4lessIiEELb1EEENS_9allocatorIS5_EEE16__insert_node_atEPNS_15__tree_end_nodeIPNS_16__tree_node_baseIPvEEEERSH_SH_
WIb:_pass2_fs_dither
xEb:_png_write_IEND
rIa:__ZNSt3__26uniqueIPN16b2ParticleSystem5TriadEPFbRKS2_S5_EEET_S8_S8_T0_
j$b:__ZL10LoadStringP9LoadState
B3c:_setbuf
MQd:__ZN10__cxxabiv112_GLOBAL__N_127parse_reinterpret_cast_exprINS0_2DbEEEPKcS4_S4_RT_
DS:__ZN15MaxRectsBinPack4InitEii
QN:__ZNSt3__26vectorItNS_9allocatorItEEE18__construct_at_endIPtEENS_9enable_ifIXsr21__is_forward_iteratorIT_EE5valueEvE4typeES7_S7_j
Hba:__ZNK6Sprite12hitTestPointEffb
nGb:_jpeg_mem_available
eeb:_block_set_used
wHb:_jpeg_huff_decode
KXc:_vfscanf
xgd:__ZNSt3__213basic_ostreamIcNS_11char_traitsIcEEElsEj
VIc:__ZN10emscripten8internal6TypeIDINS_11memory_viewIlEEE3getEv
Dfb:_xtime
Onc:_af_hint_normal_stem
wgd:__ZNSt3__213basic_ostreamIcNS_11char_traitsIcEEElsEi
Prd:__ZNSt3__214__codecvt_utf8IDsED0Ev
ald:__ZNKSt3__28time_getIcNS_19istreambuf_iteratorIcNS_11char_traitsIcEEEEE17__get_white_spaceERS4_S4_RjRKNS_5ctypeIcEE
Ue:_SDL_Has3DNowExt
Vwb:_png_colorspace_set_gamma
kQc:___flt_rounds
pda:__ZNK7Matrix414transformPointEffPfS0_
pDa:__ZN23b2EdgeAndPolygonContact7DestroyEP9b2ContactP16b2BlockAllocator
FRc:_iswspace_l
dUd:_bitshift64Shl
Qsa:__ZN10emscripten8internal20writeGenericWireTypeImEEvRPNS0_15GenericWireTypeET_
Guc:_cf2_initGlobalRegionBuffer
wJ:__ZNSt3__214__split_bufferINS_12basic_stringIcNS_11char_traitsIcEENS_9allocatorIcEEEERNS4_IS6_EEED2Ev
n4:__ZNK5Shape11extraBoundsEPfS0_S0_S0_
Ldd:__ZNKSt3__215basic_streambufIcNS_11char_traitsIcEEE4gptrEv
c$c:_ns_initparse
Gzb:_png_get_mem_ptr
KAb:_png_handle_sBIT
Fha:__ZL13stencilopToGlN12ShaderEngine9StencilOpE
IGb:_prepare_range_limit_table
Hka:__ZNSt3__23mapINS_12basic_stringIcNS_11char_traitsIcEENS_9allocatorIcEEEENS_6vectorIhNS4_IhEEEENS_4lessIS6_EENS4_INS_4pairIKS6_S9_EEEEEixERSD_
sDb:_png_set_sRGB_gAMA_and_cHRM
Bea:__ZN12ShaderEngine7ScissorC2ERKS0_iiii
x_b:__ZL16read_long_stringP8LexStateP7SemInfoi
uRa:__ZL13lzlib_deflateP9lua_State
qbc:_INT123_reset_id3
Ync:_af_cjk_metrics_check_digits
Czd:__ZNSt3__26locale5__imp7installINS_15messages_bynameIcEEEEvPT_
KPb:__ZN11CPVRTStringC2EPKcj
Npc:_tt_glyphzone_done
DXc:_fgets
GH:FUNCTION_TABLE_vid
p3b:_luaopen_table
mRa:__Z13register_zlibP9lua_State
UH:FUNCTION_TABLE_vii
AN:__ZN9Transform5setXYEff
oh:___atomic_is_lock_free
zxc:_ps_unicodes_init
Rxb:_png_destroy_gamma_table
Btb:__Z21getDocumentsDirectoryv
Pt:_emscripten_idb_store
fjb:__ZNKSt3__26__treeINS_12__value_typeImPN9g_private14TextureElementEEENS_19__map_value_compareImS5_NS_4lessImEELb1EEENS_9allocatorIS5_EEE10__root_ptrEv
mfa:__ZN16ogl2ShaderBufferD0Ev
CXd:_glDeleteFramebuffers__wrapper
Pu:_emscripten_set_orientationchange_callback
B7:__ZNK9EventTypeI10TimerEventE4typeEv
P1c:_clearerr
Mbc:_mpg123_new_pars
hX:__ZNSt3__214__split_bufferIN11Application10ImageScaleERNS_9allocatorIS2_EEED2Ev
zS:__Z30createProgressiveTexturePackerii
kcd:__ZNSt3__217iostream_categoryEv
oV:__GLOBAL__sub_I_dib_cpp
YMc:_ror_64
uuc:_cff_blend_build_vector
xQd:__ZN10__cxxabiv112_GLOBAL__N_120parse_function_paramINS0_2DbEEEPKcS4_S4_RT_
Pzb:_png_crc_finish
hBb:_png_set_pHYs
VPb:__ZNK11CPVRTStringltERKS_
gwc:_cff_blend_doBlend
Rec:_default_init
Wob:_gaudio_BackgroundMusicIsAvailable
o6c:_getpgrp
Smd:__ZNSt3__210moneypunctIcLb0EED2Ev
BXd:b45
Wl:_alBufferfv
PXd:b47
OXd:b46
xXd:b41
wXd:b40
JF:_uuid_is_null
mpd:__ZNSt3__217__widen_from_utf8ILj32EED0Ev
Afa:__ZN17ogl2ShaderProgram10deactivateEv
bo:_clock_settime
HFc:_check_end_of_module
zDc:_hio_read
VCc:_FT_Stream_ReadUShortLE
C3b:__ZL3LltP9lua_State
k4b:__ZL16Lutf8_widthindexP9lua_State
b3c:_getw
uga:__ZNKSt3__26vectorIP17ogl2ShaderProgramNS_9allocatorIS2_EEE8max_sizeEv
R$a:__ZNK15b2ParticleGroup16ContainsParticleEi
uNc:___pthread_self_107
Exd:__ZNSt3__27codecvtIwc11__mbstate_tEC2EPKcj
VBd:__ZNSt12experimental19bad_optional_accessD0Ev
jx:_glCreateProgram
S8b:__ZN8pystring2os4path13dirname_posixERKNSt3__212basic_stringIcNS2_11char_traitsIcEENS2_9allocatorIcEEEE
wld:__ZNKSt3__220__time_get_c_storageIwE3__xEv
M8:__ZNK9EventTypeI11LayoutEventE2idEv
TRc:_strfmon_l
vha:__ZNSt3__219basic_ostringstreamIcNS_11char_traitsIcEENS_9allocatorIcEEED2Ev
mu:_emscripten_set_beforeunload_callback
hUc:_jn
t3a:__ZN12Box2DBinder221b2Body_getWorldCenterEP9lua_State
zHb:_decode_mcu_AC_first
RFc:_smix_stereo_8bit_nearest
szd:__ZNSt3__215numpunct_bynameIwEC2ERKNS_12basic_stringIcNS_11char_traitsIcEENS_9allocatorIcEEEEj
Ij:___syscall337
Poc:_TT_Get_HMetrics
zFb:_finish_input_pass
UG:throwInstanceAlreadyDeleted
zsb:_g_fclose
lia:__ZL18evaluate_quadraticdddddddPdS_
V3b:__ZL11Lutf8_codesP9lua_State
oBa:__Z10b2DistanceRK6b2Vec2S1_
WTc:_pzerof
mIc:__ZN12_GLOBAL__N_1L16register_integerIcEEvPKc
_6a:__ZNSt3__214__split_bufferIPKcRNS_9allocatorIS2_EEED2Ev
Ktd:__ZNKSt3__220__codecvt_utf8_utf16IDsE9do_lengthER11__mbstate_tPKcS5_j
$Zb:__ZL10invertjumpP9FuncStateP7expdesc
V9:__ZNSt3__25dequeINS_4pairIP6SpritebEENS_9allocatorIS4_EEE19__add_back_capacityEv
PY:__ZN6Screen11getPositionERiS0_
VUc:___DOUBLE_BITS_327
wAa:__ZN16b2StackAllocatorD2Ev
RUc:___DOUBLE_BITS_325
MO:__ZN11TexturePack15readTextureListEPKcRNSt3__26vectorINS_4RectENS2_9allocatorIS4_EEEERNS2_3mapINS2_12basic_stringIcNS2_11char_traitsIcEENS5_IcEEEEiNS2_4lessISE_EENS5_INS2_4pairIKSE_iEEEEEEPiSN_
Kvb:_z_zlibCompileFlags
dab:__ZN12MatrixBinder17getAnchorPositionEP9lua_State
TM:__ZN10BitmapDataC2EP11TextureBaseiiiiiiii
fta:__ZNK10emscripten8internal12WithPoliciesIJEE11ArgTypeListIJiNS_3valES4_RS4_NS_11memory_viewIhEES4_S4_iiiEE8getCountEv
Yx:_glGenBuffers
LH:FUNCTION_TABLE_vidddddddd
a7:__ZNKSt3__26vectorIP5TimerNS_9allocatorIS2_EEE8max_sizeEv
ACd:__ZNSt3__218shared_timed_mutex13unlock_sharedEv
RKd:__ZNSt3__29to_stringEl
kMd:__ZNSt3__212strstreambufC2EPciS1_
cAa:__ZN19b2IntrusiveListNodeD2Ev
Pp:_emscripten_get_compiler_setting
QS:__ZNK15MaxRectsBinPack9ScoreRectEiiNS_23FreeRectChoiceHeuristicERiS1_
ela:__ZN18ApplicationManager14surfaceChangedEiii
dS:__ZN15MyTexturePacker10addTextureEii
kb:ftCall_vidd
Eb:ftCall_vidi
hJa:__ZNSt3__220__half_inplace_mergeIPFbRKN16b2ParticleSystem4PairES4_EPS2_S7_S7_EEvT0_S8_T1_S9_T2_T_
CHb:_decode_mcu
rVd:mftCall_vidddiii
f9:__ZN13GridBagLayoutD2Ev
K9b:__ZNK6snappy18SnappyDecompressor3eofEv
TMa:__ZNK16b2PrismaticJoint13GetJointSpeedEv
d8:__ZN14TextureManager21createTextureFromFileEPKcRK17TextureParametersb
F3b:__ZL4LpowP9lua_State
hra:__ZNSt3__23mapImPN21GGSampleOpenALManager7ChannelENS_4lessImEENS_9allocatorINS_4pairIKmS3_EEEEED2Ev
$Rd:__ZN10__cxxabiv112_GLOBAL__N_111short_allocINSt3__26vectorINS0_11string_pairENS1_IS4_Lj4096EEEEELj4096EE8allocateEj
mCd:__ZNKSt3__223__match_any_but_newlineIwE6__execERNS_7__stateIwEE
j$c:_res_init
Sib:__ZNSt3__26__treeINS_12__value_typeINS_6vectorIcNS_9allocatorIcEEEEPN9g_private14TextureElementEEENS_19__map_value_compareIS5_S9_NS_4lessIS5_EELb1EEENS3_IS9_EEE5eraseENS_21__tree_const_iteratorIS9_PNS_11__tree_nodeIS9_PvEEiEE
MEc:_virt_getroot
kLb:_emit_jfif_app0
JRa:__ZL14lzstream_checkP9lua_Stateii
tpc:_FT_Vector_Length
Zkc:_ft_glyphslot_free_bitmap
pfc:_bc_free
osc:_Round_Down_To_Grid
tKb:_jpeg_fdct_16x16
CPa:__ZZN16b2ParticleSystem18JoinParticleGroupsEP15b2ParticleGroupS1_EN24JoinParticleGroupsFilterC2Ei
i$c:_recvmsg
nCb:_png_set_expand_gray_1_2_4_to_8
q2:__ZN6TTFont11getAscenderEv
NId:__ZNSt3__212basic_stringIwNS_11char_traitsIwEENS_9allocatorIwEEE4swapERS5_
Cqa:__ZNSt3__26__treeINS_12__value_typeImPN21GGSampleOpenALManager5SoundEEENS_19__map_value_compareImS5_NS_4lessImEELb1EEENS_9allocatorIS5_EEE16__insert_node_atEPNS_15__tree_end_nodeIPNS_16__tree_node_baseIPvEEEERSH_SH_
Syc:_ps_hints_open
g6b:__ZL12str_find_auxP9lua_Statei
W2b:__ZL6g_readP9lua_StateP8g__sFILEi
S_c:_cleanup
MPc:_trinkle
jHd:__ZNKSt3__212basic_stringIwNS_11char_traitsIwEENS_9allocatorIwEEE5beginEv
RAd:__ZNSt3__214__shared_count16__release_sharedEv
Qgc:_mpg123_add_substring
VVa:__ZN10MeshBinder9setColorsEP9lua_State
X6b:__ZL4getnP9lua_State
RB:_gmtime
at:_emscripten_glUniform3i
dWb:__ZL10numusehashPK5TablePiS2_
K5a:__ZN15TextFieldBinderC2EP9lua_State
A_c:_listen
KNd:___cxa_get_globals_fast
Dva:__Z7b2Alloci
nqd:__ZNKSt3__214collate_bynameIcE10do_compareEPKcS3_S3_S3_
IXa:__ZN17GeolocationBinder21startUpdatingLocationEP9lua_State
LOd:__ZNSt8bad_castD0Ev
nwa:__ZNK12b2ChainShape12GetChildEdgeEP11b2EdgeShapei
Pzd:__ZNSt3__26locale5__imp12install_fromINS_5ctypeIcEEEEvRKS1_
_pa:__ZN21GGSampleOpenALManagerD0Ev
YE:_sigdelset
AGc:_filter_setup
ww:_getitimer
Il:__registerRestoreOldStyle
oia:__ZN6Path2D11impressPathEi7Matrix4N12ShaderEngine12DepthStencilE
ECa:__ZN9b2Contact11GetFixtureAEv
H9:__ZN6GGPoolINSt3__25stackINS0_4pairIP6SpritebEENS0_5dequeIS5_NS0_9allocatorIS5_EEEEEEEC2Ev
Rkb:__ZNSt3__214__split_bufferIN19gevent_CallbackList8CallbackERNS_9allocatorIS2_EEEC2EjjS5_
S$b:_lua_getupvalue
_Dc:_CAN_READ_119
Jx:_glDrawBuffersEXT
Zi:___syscall209
Yi:___syscall208
Xi:___syscall207
CP:__ZN9Transform7composeEv
Wi:___syscall205
Vi:___syscall204
Ui:___syscall203
Ti:___syscall202
Si:___syscall201
Ri:___syscall200
S:Math_max
zb:invoke_viddid
Nad:__ZNSt3__212__next_primeEj
qYa:__ZN11GGUrlLoader10callback_sEiPvS0_
wB:_glutGetModifiers
hId:__ZNSt3__212basic_stringIwNS_11char_traitsIwEENS_9allocatorIwEEE6assignEOS5_
v0c:_tre_expand_ast
Glb:_gevent_RemoveEventsWithGid
Bb:invoke_viddii
Z1a:__ZN12Box2DBinder230b2PrismaticJoint_getJointSpeedEP9lua_State
npc:_TT_Run_Context
ee:_SDL_Delay
lCb:_png_set_expand_16
nXc:_initgroups
vUc:___lgammaf_r
jr:_emscripten_glDrawElements
bSc:_strxfrm
dfb:__ZNSt3__23mapIPvP11GReferencedNS_4lessIS1_EENS_9allocatorINS_4pairIKS1_S3_EEEEED2Ev
nBc:_destroy_charmaps
zVa:__ZNK14LuaApplication11getLuaStateEv
eAd:__ZNSt3__26locale5__imp12install_fromINS_7num_getIwNS_19istreambuf_iteratorIwNS_11char_traitsIwEEEEEEEEvRKS1_
krc:_Ins_LT
Zgd:__ZNSt3__213basic_ostreamIwNS_11char_traitsIwEEElsEs
C2a:__ZN12Box2DBinder224b2Joint_getReactionForceEP9lua_State
hwc:_FT_RoundFix
fJd:__ZNKSt3__212basic_stringIwNS_11char_traitsIwEENS_9allocatorIwEEE13find_first_ofEPKwjj
_gd:__ZNSt3__213basic_ostreamIwNS_11char_traitsIwEEElsEt
X8:__ZNSt3__26__treeIP6SpriteNS_4lessIS2_EENS_9allocatorIS2_EEE16__insert_node_atEPNS_15__tree_end_nodeIPNS_16__tree_node_baseIPvEEEERSC_SC_
ahd:__ZNSt3__213basic_ostreamIwNS_11char_traitsIwEEElsEj
$gd:__ZNSt3__213basic_ostreamIwNS_11char_traitsIwEEElsEi
wqb:__ZNSt3__213__vector_baseIPcNS_9allocatorIS1_EEED2Ev
chd:__ZNSt3__213basic_ostreamIwNS_11char_traitsIwEEElsEm
bhd:__ZNSt3__213basic_ostreamIwNS_11char_traitsIwEEElsEl
RA:_glfwSetCharCallback
Ygd:__ZNSt3__213basic_ostreamIwNS_11char_traitsIwEEElsEb
fhd:__ZNSt3__213basic_ostreamIwNS_11char_traitsIwEEElsEf
hhd:__ZNSt3__213basic_ostreamIwNS_11char_traitsIwEEElsEe
B1b:__ZL9luaB_nextP9lua_State
pta:__ZNSt3__26__treeINS_12__value_typeIm8UiDialogEENS_19__map_value_compareImS3_NS_4lessImEELb1EEENS_9allocatorIS3_EEE7destroyEPNS_11__tree_nodeIS3_PvEE
wN:__ZN12GraphicsBaseaSEOS_
SQa:__ZL7bindAllP9lua_State
z7b:__ZL10ll_loadlibP9lua_State
Vmd:__ZNKSt3__210moneypunctIcLb0EE16do_thousands_sepEv
Xf:_SDL_SetGammaRamp
YU:__ZN4FontC2EP11ApplicationPKcS3_bP7GStatus
REb:_png_do_write_invert_alpha
Xgc:_mpg123_strerror
Yb:ftCall_viidid
$Ia:__ZNSt3__219__merge_move_assignIRPFbRKN16b2ParticleSystem4PairES4_EPS2_S8_S8_EEvT0_S9_T1_SA_T2_T_
U_a:__ZN12Box2DBinder221b2PolygonShape_createEP9lua_State
aD:_llvm_va_end
Vsb:_g_fscanf
mT:__ZNSt3__26vectorIN8FontBase11ChunkLayoutENS_9allocatorIS2_EEE26__swap_out_circular_bufferERNS_14__split_bufferIS2_RS4_EE
zAa:__ZN16b2StackAllocator10ReallocateEPvi
_b:ftCall_viidii
HP:__ZNK8Matrix2D3m21Ev
vlc:_FT_Stream_OpenMemory
aY:__ZN9TextField16setLetterSpacingEf
C8b:__ZNSt3__2plIcNS_11char_traitsIcEENS_9allocatorIcEEEENS_12basic_stringIT_T0_T1_EEPKS6_RKS9_
Wxa:__ZNK16b2PrismaticJoint17GetReactionTorqueEf
cUa:__ZN14ViewportBinder10setContentEP9lua_State
i1a:__ZN12Box2DBinder226b2WheelJoint_setMotorSpeedEP9lua_State
vid:__ZNSt3__27collateIwED2Ev
dJd:__ZNSt3__218__find_first_of_ceIPKwS2_PFbwwEEET_S5_S5_T0_S6_T1_
aua:_ggeolocation_getAccuracy
QTc:_common
xva:__ZN11b2EdgeShapeC2Ev
y1:__ZNSt3__26__treeINS_12__value_typeIiiEENS_19__map_value_compareIiS2_NS_4lessIiEELb1EEENS_9allocatorIS2_EEE12__find_equalIiEERPNS_16__tree_node_baseIPvEERPNS_15__tree_end_nodeISE_EERKT_
sJc:__ZN10emscripten8internal11LightTypeIDImE3getEv
pK:__ZN5StageD0Ev
W2c:_store_int_702
BXa:__ZN17GeolocationBinder18isHeadingAvailableEP9lua_State
O7b:__ZN8pystring6rstripERKNSt3__212basic_stringIcNS0_11char_traitsIcEENS0_9allocatorIcEEEES8_
cy:_glGenVertexArraysOES
cf:_SDL_JoystickEventState
Noa:__ZNSt3__212__deque_baseINS_4pairIjjEENS_9allocatorIS2_EEE3endEv
H$a:__ZN22b2ParticleSystemSprite9GetSystemEv
Ql:_acosf
fSd:__ZN10__cxxabiv112_GLOBAL__N_111string_pairC2ILj9EEERAT__Kc
zSc:_acosh
os:_emscripten_glIsRenderbuffer
Eod:__ZNSt3__212basic_stringIcNS_11char_traitsIcEENS_9allocatorIcEEE23__append_forward_unsafeIPcEERS5_T_S9_
Rl:_acosl
Kka:__ZNSt3__26__treeINS_12__value_typeINS_12basic_stringIcNS_11char_traitsIcEENS_9allocatorIcEEEENS_6vectorIhNS5_IhEEEEEENS_19__map_value_compareIS7_SB_NS_4lessIS7_EELb1EEENS5_ISB_EEE16__construct_nodeIJRKNS_21piecewise_construct_tENS_5tupleIJRKS7_EEENSM_IJEEEEEENS_10unique_ptrINS_11__tree_nodeISB_PvEENS_22__tree_node_destructorINS5_ISU_EEEEEEDpOT_
Qj:___syscall40
Rj:___syscall41
G7:__ZNSt3__25dequeINS_4pairIP5TimeriEENS_9allocatorIS4_EEE9push_backEOS4_
vQ:__ZNSt3__214__split_bufferIP5ColorRNS_9allocatorIS2_EEE18__construct_at_endINS_13move_iteratorIPS2_EEEENS_9enable_ifIXsr21__is_forward_iteratorIT_EE5valueEvE4typeESC_SC_
XY:__ZNSt3__26__treeIP6ScreenNS_4lessIS2_EENS_9allocatorIS2_EEE13__lower_boundIS2_EENS_15__tree_iteratorIS2_PNS_11__tree_nodeIS2_PvEEiEERKT_SD_PNS_15__tree_end_nodeIPNS_16__tree_node_baseISB_EEEE
oc:ftCall_viiii
ILc:_sinhf
ec:ftCall_viiid
Umc:_af_latin_align_linked_edge
fFa:__ZN7b2World10CreateBodyEPK9b2BodyDef
XEc:_virt_resetchannel
cCc:_FT_Get_First_Char
Ljd:__ZNSt3__29__num_getIwE19__stage2_float_prepERNS_8ios_baseEPwRwS5_
oQc:_scanexp
Xqa:__ZNKSt3__26__treeINS_12__value_typeImPN21GGSampleOpenALManager7ChannelEEENS_19__map_value_compareImS5_NS_4lessImEELb1EEENS_9allocatorIS5_EEE10__root_ptrEv
cSb:___gl_meshAddEdgeVertex
LIa:__ZZN16b2ParticleSystem20UpdatePairsAndTriadsEiiRKNS_16ConnectionFilterEEN20UpdateTriadsCallbackclEiii
DDc:_set_type
Exb:_png_check_IHDR
egd:__ZNSt3__213basic_istreamIwNS_11char_traitsIwEEE5ungetEv
Jbb:__ZN12EventVisitor10visitOtherEP5EventPv
Pxc:_ps_hints_init
AAc:_FT_FloorFix
f8b:__ZN8pystring5ljustERKNSt3__212basic_stringIcNS0_11char_traitsIcEENS0_9allocatorIcEEEEi
SAb:_png_handle_pHYs
tqb:__ZN8StringIdC2Ev
Ggd:__ZNSt3__213basic_ostreamIcNS_11char_traitsIcEEElsEPNS_15basic_streambufIcS2_EE
Zhc:_Draw_Sweep
Xbb:__ZN16EventTypeVisitor5visitEP18AccelerometerEvent
qnc:_FT_Load_Glyph
AWa:__ZNSt3__26vectorIjNS_9allocatorIjEEE26__swap_out_circular_bufferERNS_14__split_bufferIjRS2_EE
sPd:__ZN10__cxxabiv112_GLOBAL__N_12DbC2ILj4096EEERNS0_5arenaIXT_EEE
zTc:_fmax
iqa:__ZN21GGSampleOpenALManager16ChannelIsPlayingEm
wWa:__ZNSt3__26vectorIjNS_9allocatorIjEEE18__construct_at_endEj
iab:__ZN11TimerBinder8destructEP9lua_State
yUb:_lua_checkstack
lk:___unlock
hzc:_BBox_Move_To
KAa:__ZN23b2TrackedBlockAllocatorC2Ev
omd:__ZNKSt3__215time_get_bynameIwNS_19istreambuf_iteratorIwNS_11char_traitsIwEEEEE8__monthsEv
upb:_gaudio_Mp3Open
Jp:_emscripten_force_num_logical_cores
hOd:__ZSt13get_terminatev
Kad:__ZNSt3__27promiseIvE28set_exception_at_thread_exitESt13exception_ptr
kGb:_jpeg_free_large
Vza:__ZNK12b2WheelJoint17GetReactionTorqueEf
lrb:_g_registerPlugin
bNa:__ZNK16b2PrismaticJoint13GetMotorForceEf
__a:__ZN12Box2DBinder216b2Joint_destructEP9lua_State
vfb:_AES128_ECB_encrypt
nud:__ZNKSt3__27num_getIwNS_19istreambuf_iteratorIwNS_11char_traitsIwEEEEE3getES4_S4_RNS_8ios_baseERjRd
E9c:__ZNSt3__211__libcpp_db11__insert_icEPvPKv
nyd:__ZNSt3__212_GLOBAL__N_14makeINS_7num_putIwNS_19ostreambuf_iteratorIwNS_11char_traitsIwEEEEEEjEERT_T0_
jwa:__ZNK12b2ChainShape15ComputeDistanceERK11b2TransformRK6b2Vec2PfPS3_i
jRd:__ZN10__cxxabiv112_GLOBAL__N_111string_pairC2ILj15EEERAT__Kc
ut:_emscripten_glVertexAttribDivisorANGLE
cMd:__ZThn8_NSt3__29strstreamD1Ev
aqd:__ZNKSt3__27codecvtIDsc11__mbstate_tE16do_always_noconvEv
aQa:__ZN15b2ParticleColorC2ERK7b2Color
bRc:_iconv_close
AK:__ZNK5Event18propagationStoppedEv
a$:__ZL11easeInCubicd
csd:__ZNKSt3__214__codecvt_utf8IDiE11do_encodingEv
GKb:_jpeg_fdct_4x8
CO:__ZN10TimerEvent5applyEP12EventVisitor
ZTc:_j1
Daa:__ZN5EventC2ERK9EventTypeIS_E
F8c:__ZNSt3__227__insertion_sort_incompleteIRNS_6__lessIddEEPdEEbT0_S5_T_
d6a:__ZNSt3__214__split_bufferIN8FontBase8FontSpecERNS_9allocatorIS2_EEEC2EjjS5_
Sy:_glIsVertexArray
Wub:_z_inflateReset
EWd:b16
jFd:__ZNSt3__212basic_stringIcNS_11char_traitsIcEENS_9allocatorIcEEE7replaceENS_11__wrap_iterIPKcEES9_S8_
GZc:_ether_hostton
Bab:__ZN13TimerListenerC2EP9lua_StateP5Timer
_Ub:_luaF_freeupval
ld:_Mix_HookMusicFinished
NXc:_mbsinit
Svc:_cff_blend_clear
zFd:__ZNKSt3__212basic_stringIcNS_11char_traitsIcEENS_9allocatorIcEEE5rfindEPKcjj
YBa:__ZNK6b2AABB8ContainsERKS_
Pqb:__ZNSt3__26__treeINS_12__value_typeIPKciEENS_19__map_value_compareIS3_S4_N8StringId5ltstrELb1EEENS_9allocatorIS4_EEE13__lower_boundIS3_EENS_15__tree_iteratorIS4_PNS_11__tree_nodeIS4_PvEEiEERKT_SH_PNS_15__tree_end_nodeIPNS_16__tree_node_baseISF_EEEE
IF:_uuid_generate
cGd:__ZNKSt3__212basic_stringIcNS_11char_traitsIcEENS_9allocatorIcEEE7compareEPKc
Ncb:__ZL8get_baseP9lua_State
hnb:__ZNSt3__26__treeIPN14GGSoundManager7ChannelENS_4lessIS3_EENS_9allocatorIS3_EEE5eraseENS_21__tree_const_iteratorIS3_PNS_11__tree_nodeIS3_PvEEiEE
Ut:_emscripten_log
oMd:__ZNSt3__212strstreambufC2EPhiS1_
eCc:_find_variant_selector_charmap
d5b:__ZL9add_sUTF8P14MatchStateUTF8P11luaL_BufferPKcS4_
hWd:b10
v6:__ZNSt3__26__treeIP15EventDispatcherNS_4lessIS2_EENS_9allocatorIS2_EEE25__emplace_unique_key_argsIS2_JS2_EEENS_4pairINS_15__tree_iteratorIS2_PNS_11__tree_nodeIS2_PvEEiEEbEERKT_DpOT0_
crc:_Ins_GC
Thc:_Render_Single_Pass
Jaa:__ZN6Sprite13getChildIndexEPS_P7GStatus
Rqd:__ZNKSt3__212ctype_bynameIwE10do_toupperEw
JMc:_ascii_is_unsafe
nKb:_jpeg_fdct_10x10
xIa:__ZNSt3__219__merge_move_assignIRPFbRKN16b2ParticleSystem5TriadES4_EPS2_S8_S8_EEvT0_S9_T1_SA_T2_T_
prc:_Ins_NEQ
Ms:_emscripten_glTexImage2D
Rdb:_tlsf_check_pool
pUb:_unzeof
YRd:__ZNSt3__214__split_bufferINS_6vectorIN10__cxxabiv112_GLOBAL__N_111string_pairENS3_11short_allocIS4_Lj4096EEEEERNS5_IS7_Lj4096EEEEC2EjjS9_
Dl:__isLeapYear
J5a:__ZN15GGAccelerometerD0Ev
xTc:_fmaf
k6c:_gethostname
ysd:__ZNKSt3__215__codecvt_utf16IwLb1EE13do_max_lengthEv
ira:__ZNSt3__23mapImPN21GGSampleOpenALManager5SoundENS_4lessImEENS_9allocatorINS_4pairIKmS3_EEEEED2Ev
ZPd:__ZN10__cxxabiv112_GLOBAL__N_116parse_array_typeINS0_2DbEEEPKcS4_S4_RT_
gPa:__ZN16b2ParticleSystem22CreateParticleForGroupERK18b2ParticleGroupDefRK11b2TransformRK6b2Vec2
JPc:_qsort
PJc:_try_realloc_chunk
UD:_pthread_detach
AE:_pthread_spin_init
Ah:___cxa_current_primary_exception
Oqd:__ZNKSt3__212ctype_bynameIwE5do_isEPKwS3_Pt
A2b:_luaopen_io
TVc:_sinpi
$Ca:__ZNK13b2DynamicTree5QueryI12b2BroadPhaseEEvPT_RK6b2AABB
Hmc:_af_latin_hints_init
xU:__ZNSt3__218basic_stringstreamIcNS_11char_traitsIcEENS_9allocatorIcEEED2Ev
hkd:__ZNSt3__214__num_put_base14__format_floatEPcPKcj
TYc:_posix_madvise
lSa:__ZNSt3__23mapINS_12basic_stringIcNS_11char_traitsIcEENS_9allocatorIcEEEEP11ProfileInfoNS_4lessIS6_EENS4_INS_4pairIKS6_S8_EEEEEixERSC_
EUc:_llrintl
Mn:_atan2
jZc:_wcsrtombs
bab:__ZN12MatrixBinder11getPositionEP9lua_State
Voa:__ZNSt3__212__deque_baseINS_4pairIjjEENS_9allocatorIS2_EEE5clearEv
Xkc:_FT_Bitmap_Convert
ibc:_INT123_fi_init
HKd:__ZNSt3__212_GLOBAL__N_115as_float_helperIeNS_12basic_stringIcNS_11char_traitsIcEENS_9allocatorIcEEEEPFePKcPPcEEET_RKS7_RKT0_PjT1_
slb:__ZN6gevent12EventManagerC2Ev
Zo:_emscripten_asm_const_i
vjc:_tt_cmap14_char_next
fGa:__ZN6b2Body7GetNextEv
VTb:_unzOpen64
mAb:_png_do_invert
mXb:_lua_isstring
kq:_emscripten_glBindAttribLocation
Qza:__ZN15b2DistanceJoint24SolveVelocityConstraintsERK12b2SolverData
Vra:__ZNSt3__24pairIKNS_12basic_stringIcNS_11char_traitsIcEENS_9allocatorIcEEEES6_ED2Ev
MEa:__ZN16b2ParticleSystem16ReallocateBufferIP15b2ParticleGroupEEPT_S4_iiib
Qia:__ZN12VertexBufferI8vector4fEC2Ev
Obd:__ZNSt3__213basic_ostreamIcNS_11char_traitsIcEEED2Ev
gsd:__ZNSt3__215__codecvt_utf16IwLb0EED0Ev
QDb:_png_write_IHDR
QUd:mftCall_diiiiid
PMb:_validate_script
Geb:_block_merge_next
gqc:_Ins_GPV
jcd:__ZNSt3__28ios_base5clearEj
Pn:_atanf
wSa:__ZNSt3__26__treeINS_12__value_typeIP7ClosureP11ProfileInfoEENS_19__map_value_compareIS3_S6_NS_4lessIS3_EELb1EEENS_9allocatorIS6_EEE16__construct_nodeIJRKNS_21piecewise_construct_tENS_5tupleIJRKS3_EEENSI_IJEEEEEENS_10unique_ptrINS_11__tree_nodeIS6_PvEENS_22__tree_node_destructorINSB_ISQ_EEEEEEDpOT_
nbb:__ZN4SlotI12CppLuaBridge8LuaEventE6equalsEPK8SlotBase
lwb:_png_sig_cmp
Ilb:__ZN6gevent12EventManager11addCallbackEPFviPvS1_ES1_
Qn:_atanl
Oya:__ZN11b2WeldJoint4DumpEv
o3c:_printf
vs:_emscripten_glMatrixMode
tNb:__GLOBAL__sub_I_PVRTResourceFile_cpp
Fpa:__ZNSt3__26__treeIPN12_GLOBAL__N_121GGStreamOpenALManager7ChannelENS_4lessIS4_EENS_9allocatorIS4_EEED2Ev
n4c:_lldiv
P8a:__ZNK6Sprite14colorTransformEv
Hxc:_ft_get_adobe_glyph_index
_Ja:__ZN12_GLOBAL__N_117FixedSetAllocator8AllocateEii
_kb:__ZNSt3__214__split_bufferIPN6gevent12EventManager17EventQueueElementERNS_9allocatorIS4_EEED2Ev
Upd:__ZNSt3__27codecvtIwc11__mbstate_tED2Ev
apc:_TT_Vary_Apply_Glyph_Deltas
lfd:__ZNSt3__213basic_istreamIcNS_11char_traitsIcEEE5ungetEv
rQa:__ZNSt3__26__treeINS_12__value_typeINS_12basic_stringIcNS_11char_traitsIcEENS_9allocatorIcEEEEP11ProfileInfoEENS_19__map_value_compareIS7_SA_NS_4lessIS7_EELb1EEENS5_ISA_EEEC2ERKSE_
mq:_emscripten_glBindFramebuffer
q9a:__ZN12MatrixBinder5getTzEP9lua_State
k5a:__ZN20EventContactListener12BeginContactEP9b2Contact
rxa:__ZN15b2ReferenceFaceC2Ev
xUa:__ZN12Path2DBinder9setConvexEP9lua_State
lVc:_nexttowardf
X6a:__ZNKSt3__26vectorIPKcNS_9allocatorIS2_EEE8max_sizeEv
RIc:__ZN10emscripten8internal6TypeIDINS_11memory_viewIfEEE3getEv
Mlb:__ZNKSt3__26vectorIN19gevent_CallbackList15CallbackCommandENS_9allocatorIS2_EEE8max_sizeEv
$B:_lineRGBA
VNc:_md5_update_2465
lYb:_luaU_undump
U8b:__ZN8pystring2os4path8normpathERKNSt3__212basic_stringIcNS2_11char_traitsIcEENS2_9allocatorIcEEEE
tWb:_luaV_tostring
Nq:_emscripten_glDeleteBuffers
sAc:_FT_Stroker_GetCounts
TCa:__ZN9b2Contact6UpdateEP17b2ContactListener
Pua:__ZN10emscripten8internal9SignatureIvJNS_11memory_viewIhEEEE18init_method_callerEv
Eha:__ZN16ogl2ShaderEngine18blendFactor2GLenumEN12ShaderEngine11BlendFactorE
A_a:__ZN13TileMapBinder7getTileEP9lua_State
N$:__ZNSt3__26vectorI9ParameterNS_9allocatorIS1_EEE6assignIPS1_EENS_9enable_ifIXaasr21__is_forward_iteratorIT_EE5valuesr16is_constructibleIS1_NS_15iterator_traitsIS8_E9referenceEEE5valueEvE4typeES8_S8_
oGa:__ZN6b2Body20SynchronizeTransformEv
BH:FUNCTION_TABLE_iiiiiiiiiiii
vHc:_xmp_seek_time
ylb:__ZNSt3__213__vector_baseIN19gevent_CallbackList15CallbackCommandENS_9allocatorIS2_EEED2Ev
iTc:___FLOAT_BITS_265
Ohb:_gimage_savePng
_Kd:__ZNSt3__29to_stringEy
$bb:__ZN16EventTypeVisitor5visitEP13KeyboardEvent
Klc:_inflate_codes_new
AWd:_pthread_mutex_init__wrapper
mv:_emscripten_vr_deinit
DI:__ZN9ParticlesD0Ev
wV:__ZL5checkiPKc
n:cttz_i8
bEc:_mread32l
L$:__ZN9MovieClip8addFrameEiiP6SpriteRKNSt3__26vectorI9ParameterNS2_9allocatorIS4_EEEEP7GStatus
shb:__ZN9g_private12TimerManager7stopAllEv
hU:__ZNSt3__214__split_bufferIiRNS_9allocatorIiEEE18__construct_at_endEj
oSc:_wcscmp
Pq:_emscripten_glDeleteProgram
IYa:__ZN15MovieClipBinderC2EP9lua_State
aVa:__ZN11AudioBinder21SoundChannel_isPausedEP9lua_State
Wad:__ZNSt3__215basic_streambufIcNS_11char_traitsIcEEED2Ev
c3c:_getwchar
mFc:_set_sample_end
GUb:__ZL7addinfoP9lua_StatePKc
cTc:_exp10l
ZEb:_png_set_compression_mem_level
Cvb:_gz_look
gfd:__ZNSt3__213basic_istreamIcNS_11char_traitsIcEEE6ignoreEii
I1a:__ZN12Box2DBinder230b2PulleyJoint_getGroundAnchorBEP9lua_State
Gga:__ZNSt3__214__split_bufferIN13ShaderProgram8DataDescERNS_9allocatorIS2_EEED2Ev
MV:__ZNSt3__26__treeIP6TickerNS_4lessIS2_EENS_9allocatorIS2_EEEC2ERKS4_
$V:__ZN11Application11releaseViewEv
d6:__ZNSt3__26__treeINS_12__value_typeIiNS_6vectorIP8SlotBaseNS_9allocatorIS4_EEEEEENS_19__map_value_compareIiS8_NS_4lessIiEELb1EEENS5_IS8_EEE7destroyEPNS_11__tree_nodeIS8_PvEE
Asb:_g_p_open
Nkb:__ZNSt3__29remove_ifINS_11__wrap_iterIPN19gevent_CallbackList8CallbackEEENS2_9equal_gidEEET_S7_S7_T0_
hbd:__ZNSt3__215basic_streambufIcNS_11char_traitsIcEEE8overflowEi
y_a:__ZN13TileMapBinder6createEP9lua_State
fba:__ZNSt3__25stackI9_cliprectNS_5dequeIS1_NS_9allocatorIS1_EEEEED2Ev
mgb:__Z11getLocalIPsv
rDb:_png_set_sRGB
nNc:_fmt_fp
dYb:_luaD_rawrunprotected
ED:_pthread_barrier_wait
$vc:_cff_parse_font_bbox
wSb:___gl_dictListDeleteDict
tPb:__ZN11CPVRTString6assignERKS_jj
$ub:_z_inflate
o6b:__ZL8classendP10MatchStatePKc
ADc:_hio_read8
$g:__Unwind_Backtrace
Raa:__ZN6Sprite12replaceChildEPS_S0_
vAa:__ZN16b2StackAllocatorC2Ev
jDc:_af_shaper_get_coverage
Fa:invoke_iiii
uTc:_add_adjusted
CJb:_init_destination
fDd:__ZNSt3__212basic_stringIcNS_11char_traitsIcEENS_9allocatorIcEEEC2EPKcj
o3:__ZN8TTBMFont9getBoundsEPKcfPfS2_S2_S2_
Bmc:_af_direction_compute
OL:__ZN5Stage7keyCharEPKc
yn:_alcGetProcAddress
faa:__ZNSt3__26vectorIPNS_5stackIP6SpriteNS_5dequeIS3_NS_9allocatorIS3_EEEEEENS5_IS9_EEE26__swap_out_circular_bufferERNS_14__split_bufferIS9_RSA_EE
HMc:_ascii_to_bin
GU:__ZNSt3__215basic_stringbufIcNS_11char_traitsIcEENS_9allocatorIcEEE7seekposENS_4fposI11__mbstate_tEEj
KJa:__ZN12_GLOBAL__N_117FixedSetAllocator10InvalidateEi
QF:_vfork
x7a:__ZN12SpriteBinder19setLayoutParametersEP9lua_State
Xna:__ZNKSt3__26__treeINS_12__value_typeINS_12basic_stringIcNS_11char_traitsIcEENS_9allocatorIcEEEE13GGAudioLoaderEENS_19__map_value_compareIS7_S9_NS_4lessIS7_EELb1EEENS5_IS9_EEE10__root_ptrEv
cja:__ZL18cubic_to_quadraticPKdPd
bV:__ZN4Font20readTextureGlyphsNewEPKc
OA:_glfwReadImage
D9:__ZN6GGPoolINSt3__25stackIP6SpriteNS0_5dequeIS3_NS0_9allocatorIS3_EEEEEEEC2Ev
Mmb:__ZNSt3__26__treeINS_12__value_typeImPN14GGSoundManager5SoundEEENS_19__map_value_compareImS5_NS_4lessImEELb1EEENS_9allocatorIS5_EEE16__construct_nodeIJRKNS_21piecewise_construct_tENS_5tupleIJRKmEEENSH_IJEEEEEENS_10unique_ptrINS_11__tree_nodeIS5_PvEENS_22__tree_node_destructorINSA_ISP_EEEEEEDpOT_
rpb:_gaudio_WavSeek
vrb:_g_createClass
Ioa:__ZN12_GLOBAL__N_121GGStreamOpenALManager10callback_sEiPvS1_
eA:_glewIsSupported
yJc:__ZN10emscripten8internal11LightTypeIDIiE3getEv
Oyc:_ps_mask_table_merge_all
L0b:_luaL_checktype
qmc:_ft_smooth_transform
gFd:__ZNSt3__212basic_stringIcNS_11char_traitsIcEENS_9allocatorIcEEE7replaceENS_11__wrap_iterIPKcEES9_RKS5_
Cs:_emscripten_glSampleCoverage
wYb:__ZL12anchor_tokenP8LexState
oOa:__ZN16b2ParticleSystem19SetParticleLifetimeEif
MNd:__ZN10__cxxabiv116__shim_type_infoD2Ev
nma:__ZNSt3__214__split_bufferIP15ginput_KeyEventRNS_9allocatorIS2_EEEC2EjjS5_
Bgc:_do_the_seek
_e:_SDL_HasSSE2
Wwb:_png_colorspace_check_gamma
pEc:_xlat_fx
uqd:__ZNSt3__25ctypeIcED0Ev
ZUd:mftCall_iiiiii
Xka:__ZNK10ByteBuffer3eobEv
e1b:_luaL_ref
wXb:_lua_tocfunction
gic:_Line_To
aL:__ZNSt3__212__deque_baseIP6SpriteNS_9allocatorIS2_EEE3endEv
ulc:_FT_Gzip_Uncompress
MTd:runPostSets61
ala:__ZN18ApplicationManager9playFilesEPKcS1_
gKc:_mallopt
a6b:__ZL9str_matchP9lua_State
Zzb:_png_do_read_interlace
fBa:__ZN9b2Simplex6Solve3Ev
pUd:_pthread_mutex_unlock
o1b:__ZL13luaB_cocreateP9lua_State
xl:__hideEverythingExceptGivenElement
j1b:_luaL_newstate
dva:__ZNK11b2EdgeShape11ComputeMassEP10b2MassDataf
ux:_glDeleteVertexArraysOES
KGc:_check_invalid_sample
Ih:___cxa_get_exception_ptr
Cic:_tt_cmap0_char_next
qub:_crc32_little
Dwa:__ZN15b2ContactFilter13ShouldCollideEP9b2FixtureP16b2ParticleSystemi
LOa:__ZNSt3__212__rotate_gcdIPP16b2ParticleHandleEET_S4_S4_S4_
$sb:__ZNSt3__23mapIi5DriveNS_4lessIiEENS_9allocatorINS_4pairIKiS1_EEEEEixERS6_
ILb:_encode_mcu_AC_first_161
Qab:__ZN21EventDispatcherBinder6createEP9lua_State
Rob:_gaudio_ChannelIsLooping
gvb:_syncsearch
pna:__ZNSt3__23mapIj7PointerNS_4lessIjEENS_9allocatorINS_4pairIKjS1_EEEEEixEOj
Pib:__ZNSt3__26__treeINS_12__value_typeImPN9g_private19RenderTargetElementEEENS_19__map_value_compareImS5_NS_4lessImEELb1EEENS_9allocatorIS5_EEE13__lower_boundImEENS_15__tree_iteratorIS5_PNS_11__tree_nodeIS5_PvEEiEERKT_SI_PNS_15__tree_end_nodeIPNS_16__tree_node_baseISG_EEEE
pDc:_ft_gzip_file_done
nca:__ZN14ColorTransform18setGreenMultiplierEf
s6c:_lchown
Lxc:_ps_dimension_done
uBd:__ZNSt3__221recursive_timed_mutexD2Ev
BIb:_rgb_gray_convert
B7b:__ZN8pystring5splitERKNSt3__212basic_stringIcNS0_11char_traitsIcEENS0_9allocatorIcEEEERNS0_6vectorIS6_NS4_IS6_EEEES8_i
PLa:__ZNK13b2PulleyJoint16GetGroundAnchorBEv
nhb:_gtimer_pauseAll
pGb:_out_of_memory
T2:__ZNSt3__26vectorIN8FontBase8FontSpecENS_9allocatorIS2_EEE8allocateEj
nuc:_cf2_stack_init
Alb:_gevent_Cleanup
rta:__ZN8UiDialogD2Ev
c6a:__ZNSt3__26vectorIN8FontBase8FontSpecENS_9allocatorIS2_EEE21__push_back_slow_pathIRKS2_EEvOT_
XXa:__ZN15UrlLoaderBinderC2EP9lua_State
DBb:_png_create_read_struct
pbb:__ZN4SlotI12CppLuaBridge8LuaEventED0Ev
c_b:__ZL4bodyP8LexStateP7expdescii
sFa:__ZN7b2JointD0Ev
x6b:__ZL9add_valueP10MatchStateP11luaL_BufferPKcS4_
yCb:_png_image_read_colormapped
gQa:__GLOBAL__sub_I_gyroscopebinder_cpp
zd:_Mix_PlayMusic
fzb:_png_get_IHDR
zfb:_AddRoundKey
sxd:__ZNKSt3__28messagesIcE5closeEi
jtb:__ZNSt3__26__treeINS_12basic_stringIcNS_11char_traitsIcEENS_9allocatorIcEEEENS_4lessIS6_EENS4_IS6_EEE25__emplace_unique_key_argsIS6_JS6_EEENS_4pairINS_15__tree_iteratorIS6_PNS_11__tree_nodeIS6_PvEEiEEbEERKT_DpOT0_
Owc:_cff_cmap_encoding_init
Iad:__ZNSt3__27promiseIvE13set_exceptionESt13exception_ptr
Lxd:__ZNKSt3__220__vector_base_commonILb1EE20__throw_length_errorEv
EO:__ZN11TexturePackD0Ev
b8c:__ZNSt3__227__insertion_sort_incompleteIRNS_6__lessIllEEPlEEbT0_S5_T_
_Za:__ZN17ApplicationBinder21getTextureMemoryUsageEP9lua_State
qRc:_islower_l
ms:_emscripten_glIsProgram
KK:__ZNSt3__25dequeIP6SpriteNS_9allocatorIS2_EEE9push_backEOS2_
vI:stackSave
kad:__ZNSt3__217__assoc_sub_stateD0Ev
RNd:__ZNK10__cxxabiv117__class_type_info16search_above_dstEPNS_19__dynamic_cast_infoEPKvS4_ib
Nyc:_ps_dimension_end
F9:__ZNSt3__25dequeIP6SpriteNS_9allocatorIS2_EEE9push_backERKS2_
CQd:__ZN10__cxxabiv112_GLOBAL__N_121parse_const_cast_exprINS0_2DbEEEPKcS4_S4_RT_
s3a:__ZN12Box2DBinder224b2Body_setAngularDampingEP9lua_State
Zqa:__ZNSt3__26__treeIPN21GGSampleOpenALManager7ChannelENS_4lessIS3_EENS_9allocatorIS3_EEE16__construct_nodeIJRKS3_EEENS_10unique_ptrINS_11__tree_nodeIS3_PvEENS_22__tree_node_destructorINS6_ISF_EEEEEEDpOT_
sdc:_III_dequantize_sample
LSa:__ZN12ScreenBinder8destructEP9lua_State
Qtb:_flush_pending
NCa:__ZNK9b2Contact14GetChildIndexAEv
Asc:_Ins_SxVTL
nfb:__ZNSt3__26__treeINS_12__value_typeIPvP11GReferencedEENS_19__map_value_compareIS2_S5_NS_4lessIS2_EELb1EEENS_9allocatorIS5_EEE16__construct_nodeIJRKNS_21piecewise_construct_tENS_5tupleIJRKS2_EEENSH_IJEEEEEENS_10unique_ptrINS_11__tree_nodeIS5_S2_EENS_22__tree_node_destructorINSA_ISO_EEEEEEDpOT_
vY:__ZN5PixelC2EP11Application
sMd:__ZNSt3__212strstreambuf3strEv
Nma:__ZN6ginput12InputManager5keyUpEPKcS2_
Z7b:__ZN8pystring7isupperERKNSt3__212basic_stringIcNS0_11char_traitsIcEENS0_9allocatorIcEEEE
V6a:__ZNSt3__26vectorIPKcNS_9allocatorIS2_EEE21__push_back_slow_pathIS2_EEvOT_
Zp:_emscripten_get_now_is_monotonic
$d:_SDL_CreateCond
dga:__ZNSt3__26__treeIP20gl2ShaderBufferCacheNS_4lessIS2_EENS_9allocatorIS2_EEE14__erase_uniqueIS2_EEjRKT_
$Wd:b27
_Wd:b26
ZWd:b25
YWd:b24
XWd:b23
WWd:b22
VWd:b21
wdd:__ZNSt3__215basic_streambufIcNS_11char_traitsIcEEE7pubsyncEv
_W:__ZNK11Application10ImageScaleltERKS0_
O2b:__ZL9io_outputP9lua_State
bfb:__ZN11GReferencedD0Ev
wtc:_cff_driver_init
Oyd:__ZNSt3__26locale5__imp7installINS_8messagesIcEEEEvPT_
FHd:__ZNSt3__212basic_stringIwNS_11char_traitsIwEENS_9allocatorIwEEE14__set_long_capEj
YEc:_virt_setvol
EC:_llvm_minnum_f32
Tl:_alBuffer3i
kPd:___cxa_bad_cast
VCd:__ZNKSt3__212basic_stringIcNS_11char_traitsIcEENS_9allocatorIcEEE7__allocEv
ekb:__ZNSt3__23mapImPN9g_private14TextureManager18TempTextureElementENS_4lessImEENS_9allocatorINS_4pairIKmS4_EEEEEixERS9_
TKd:__ZNSt3__212_GLOBAL__N_19as_stringINS_12basic_stringIcNS_11char_traitsIcEENS_9allocatorIcEEEEPFiPcjPKczElEET_T0_SD_PKNSD_10value_typeET1_
h5c:_wcscpy
Wnc:_af_cjk_metrics_init_widths
IRd:__ZN10__cxxabiv112_GLOBAL__N_119parse_unscoped_nameINS0_2DbEEEPKcS4_S4_RT_
OGc:_sustain_check
Sl:_alBuffer3f
v_b:_luaZ_fill
sgd:__ZNSt3__213basic_ostreamIcNS_11char_traitsIcEEElsEPFRNS_8ios_baseES5_E
Wid:__ZNSt3__26locale2id6__initEv
jLa:__ZNSt3__29remove_ifIPN16b2ParticleSystem4PairEPFbRKS2_EEET_S8_S8_T0_
pja:__ZN6Path2D16setLineThicknessEff
agc:_INT123_make_decode_tables
aWb:_luaH_get
GHa:__ZN15b2QueryCallback14ReportParticleEPK16b2ParticleSystemi
hub:_init_block
bMa:__ZNK12b2BroadPhase13GetTreeHeightEv
doa:__ZNSt3__26__treeINS_12__value_typeImPN12_GLOBAL__N_121GGStreamOpenALManager7ChannelEEENS_19__map_value_compareImS6_NS_4lessImEELb1EEENS_9allocatorIS6_EEEC2ERKSA_
lFa:__ZN7b2Joint7DestroyEPS_P16b2BlockAllocator
$F:createNamedFunction
Bfc:_wetwork
Vzb:_png_process_IDAT_data
t4c:_strtoimax
Zjb:__ZNSt3__26vectorIcNS_9allocatorIcEEE6assignIPcEENS_9enable_ifIXaasr21__is_forward_iteratorIT_EE5valuesr16is_constructibleIcNS_15iterator_traitsIS7_E9referenceEEE5valueEvE4typeES7_S7_
TCb:_png_colormap_compose
rpc:_FT_GlyphLoader_Rewind
QSb:_FloatUp
M$c:_srand
oWb:_luaD_callhook
Xwc:_ft_mem_strdup
rVc:___DOUBLE_BITS_340
VV:__ZNSt3__26__treeIP6TickerNS_4lessIS2_EENS_9allocatorIS2_EEE7destroyEPNS_11__tree_nodeIS2_PvEE
gGb:_access_virt_barray
zVc:___DOUBLE_BITS_348
oM:__ZNK7GStatus4typeEv
Edb:_block_is_free
G_c:_name_from_dns_search
bDd:__ZNSt3__212basic_stringIcNS_11char_traitsIcEENS_9allocatorIcEEE7__allocEv
Apb:_gaudio_Mp3Read
sVb:__ZL13traverseprotoP12global_StateP5Proto
Vga:__ZN13ShaderTextureC2Ev
oOc:_isprint
Vod:__ZNKSt3__29money_putIcNS_19ostreambuf_iteratorIcNS_11char_traitsIcEEEEE6do_putES4_bRNS_8ios_baseEcRKNS_12basic_stringIcS3_NS_9allocatorIcEEEE
iq:_emscripten_glBegin
Tyd:__ZNSt3__212_GLOBAL__N_17releaseclEPNS_6locale5facetE
fPd:__ZNK10__cxxabiv122__base_class_type_info27has_unambiguous_public_baseEPNS_19__dynamic_cast_infoEPvi
Vsa:__ZNSt3__26__treeINS_12__value_typeIm12GHttpContextEENS_19__map_value_compareImS3_NS_4lessImEELb1EEENS_9allocatorIS3_EEE16__insert_node_atEPNS_15__tree_end_nodeIPNS_16__tree_node_baseIPvEEEERSF_SF_
itd:__ZNKSt3__215__codecvt_utf16IDiLb1EE11do_encodingEv
aRa:__ZL8os_timerP9lua_State
O1a:__ZN12Box2DBinder228b2DistanceJoint_setFrequencyEP9lua_State
rFa:__ZN7b2Joint4DumpEv
oHa:__ZNK16b2ParticleSystem15GetParticleMassEv
kwd:__ZNKSt3__210moneypunctIcLb1EE10neg_formatEv
mo:_dlerror
aEb:_png_save_uint_32
qzb:_png_get_tRNS
cDb:_png_set_palette_to_rgb
iRa:__ZN14LuaApplication11Core_randomEP9lua_State
cdb:__ZN18LuaApplicationBaseD0Ev
hI:FUNCTION_TABLE_viiididi
Ykc:_ft_glyphslot_set_bitmap
B3a:__ZN12Box2DBinder220b2Body_getLocalPointEP9lua_State
qT:__ZN4Font9getBoundsEPKcfPfS2_S2_S2_
oqd:__ZNKSt3__214collate_bynameIcE12do_transformEPKcS3_
a3a:__ZN12Box2DBinder224b2Body_SetLinearVelocityEP9lua_State
Pma:__ZN6ginput12InputManager7keyCharEPKc
S3:__ZN8TTBMFont17staticCharsetInitEv
tab:__ZN11TimerBinder14pauseAllTimersEP9lua_State
OJa:__ZNSt3__213__lower_boundIRPFbRKN12_GLOBAL__N_115LightweightPairIiiEES5_EPS4_S3_EET0_SA_SA_RKT1_T_
aFd:__ZNSt3__212basic_stringIcNS_11char_traitsIcEENS_9allocatorIcEEE7replaceEjjRKS5_
lRd:__ZNSt3__212basic_stringIcNS_11char_traitsIcEEN10__cxxabiv112_GLOBAL__N_112malloc_allocIcEEE23__append_forward_unsafeIPKcEERS7_T_SC_
Qhb:__ZL16jpeg_gstdio_destP20jpeg_compress_structP8g__sFILE
d$c:_ns_name_uncompress
PQd:__ZN10__cxxabiv112_GLOBAL__N_122parse_sizeof_type_exprINS0_2DbEEEPKcS4_S4_RT_
cjd:__ZNSt3__216__check_groupingERKNS_12basic_stringIcNS_11char_traitsIcEENS_9allocatorIcEEEEPjS8_Rj
uld:__ZNKSt3__220__time_get_c_storageIwE3__cEv
vkd:__ZNKSt3__27num_putIwNS_19ostreambuf_iteratorIwNS_11char_traitsIwEEEEE6do_putES4_RNS_8ios_baseEwPKv
u1:__ZNKSt3__26__treeINS_12__value_typeIiNS_6vectorIPN9MovieClip5FrameENS_9allocatorIS5_EEEEEENS_19__map_value_compareIiS9_NS_4lessIiEELb1EEENS6_IS9_EEE10__root_ptrEv
fkd:__ZNSt3__219__libcpp_snprintf_lEPcjP15__locale_structPKcz
W$:__ZNSt3__26vectorI9ParameterNS_9allocatorIS1_EEE8allocateEj
oHd:__ZNKSt3__212basic_stringIwNS_11char_traitsIwEENS_9allocatorIwEEE6rbeginEv
dP:__ZN11TexturePackC2EP11ApplicationPPKci6Filter4Wrap6Formatbj
aMd:__ZNSt3__29strstreamD1Ev
$w:_glClearColor
Xpb:__ZNSt3__26__treeINS_12__value_typeIi8FileInfoEENS_19__map_value_compareIiS3_NS_4lessIiEELb1EEENS_9allocatorIS3_EEE12__find_equalIiEERPNS_16__tree_node_baseIPvEERPNS_15__tree_end_nodeISF_EERKT_
lSc:___uselocale
fP:__ZNSt3__26vectorI3DibNS_9allocatorIS1_EEE21__push_back_slow_pathIS1_EEvOT_
jvd:__ZNSt3__212_GLOBAL__N_1L21__throw_runtime_errorERKNS_12basic_stringIcNS_11char_traitsIcEENS_9allocatorIcEEEE
Erb:__ZN6ObjectD0Ev
nl:__emval_new_object
c7b:__ZL9sort_compP9lua_Stateii
m_b:__ZL9listfieldP8LexStateP11ConsControl
Wwa:__ZN11b2TransformC2Ev
QEa:__ZN16b2ParticleSystem16ReallocateBufferIP15b2ParticleGroupEEPT_S4_ii
m5b:__ZL7convertP9lua_StatePFjjE
yba:__ZNSt3__214__split_bufferIP7Matrix4RNS_9allocatorIS2_EEE18__construct_at_endINS_13move_iteratorIPS2_EEEENS_9enable_ifIXsr21__is_forward_iteratorIT_EE5valueEvE4typeESC_SC_
hEd:__ZNSt3__212basic_stringIcNS_11char_traitsIcEENS_9allocatorIcEEE14__set_long_capEj
Gx:_glDrawArraysInstancedEXT
um:_alGetInteger
vcb:__ZNSt3__26vectorIP12CppLuaBridgeNS_9allocatorIS2_EEE21__push_back_slow_pathIRKS2_EEvOT_
v_c:_inet_ntoa
pKd:__ZNSt3__212_GLOBAL__N_117as_integer_helperIyNS_12basic_stringIcNS_11char_traitsIcEENS_9allocatorIcEEEEPFyPKcPPciEEET_RKS7_RKT0_PjiT1_
BJc:__ZN10emscripten8internal6TypeIDIsE3getEv
lV:__ZNSt3__218__search_substringIcNS_11char_traitsIcEEEEPKT_S5_S5_S5_S5_
Veb:__ZNSt3__26__treeINS_12__value_typeINS_12basic_stringIcNS_11char_traitsIcEENS_9allocatorIcEEEE8FileInfoEENS_19__map_value_compareIS7_S9_NS_4lessIS7_EELb1EEENS5_IS9_EEEC2ERKSD_
TQb:__Z21PVRTStringGetFileNameRK11CPVRTString
Iq:_emscripten_glCopyTexImage2D
ewa:__ZN12b2ChainShapeD2Ev
xVc:_rintl
isb:__fwalk
Rha:__ZL11stroke_pathjPK7Matrix4
HIc:__ZN12_GLOBAL__N_1L20register_memory_viewIjEEvPKc
XN:__ZNSt3__26vectorI6Point2IfENS_9allocatorIS2_EEE18__construct_at_endEj
opa:__ZN12_GLOBAL__N_121GGStreamOpenALManager7ChannelC2EmmPNS0_5SoundEj
Ktc:_cff_size_get_globals_funcs
mQc:_hexfloat
Vea:__ZNSt3__214__split_bufferIPN12ShaderEngine12DepthStencilERNS_9allocatorIS3_EEE10push_frontERKS3_
Yic:_tt_cmap8_char_index
L6:__ZNSt3__26__treeIP5TimerNS_4lessIS2_EENS_9allocatorIS2_EEED2Ev
zNd:__ZNSt3__215__thread_structC2Ev
ng:_SDL_VideoQuit
lsc:_TT_MulFix14
s3b:_luaopen_math
_qa:__ZNSt3__26__treeIPN21GGSampleOpenALManager7ChannelENS_4lessIS3_EENS_9allocatorIS3_EEE16__insert_node_atEPNS_15__tree_end_nodeIPNS_16__tree_node_baseIPvEEEERSD_SD_
pf:_SDL_JoystickOpened
WS:__ZN8FontBase10TextLayoutC2Ev
Hkd:__ZNKSt3__28time_getIcNS_19istreambuf_iteratorIcNS_11char_traitsIcEEEEE11do_get_yearES4_S4_RNS_8ios_baseERjP2tm
vlb:__ZNSt3__212__deque_baseIN6gevent12EventManager17EventQueueElementENS_9allocatorIS3_EEED2Ev
jh:___atomic_fetch_add_8
Bu:_emscripten_set_keydown_callback
pFb:_png_unpremultiply
p8a:__ZN12SpriteBinder7getSizeEP9lua_State
cyb:_png_read_destroy
s0a:__ZN12Box2DBinder223b2DebugDraw_appendFlagsEP9lua_State
Gy:_glGetVertexAttribPointerv
rX:__ZNSt3__26__treeIP6TickerNS_4lessIS2_EENS_9allocatorIS2_EEE25__emplace_unique_key_argsIS2_JRKS2_EEENS_4pairINS_15__tree_iteratorIS2_PNS_11__tree_nodeIS2_PvEEiEEbEERKT_DpOT0_
C7a:__ZN12SpriteBinder4getXEP9lua_State
DR:__ZN5GMesh12clearTextureEi
Jmd:__ZNSt3__28time_putIwNS_19ostreambuf_iteratorIwNS_11char_traitsIwEEEEED0Ev
Gvb:_z_gzgets
lbd:__ZNSt3__215basic_streambufIwNS_11char_traitsIwEEE6setbufEPwi
Et:_emscripten_gluProject
Bcd:__ZNKSt3__29basic_iosIcNS_11char_traitsIcEEE4fillEv
Q6a:__ZN16BitmapDataBinder9getRegionEP9lua_State
xzb:_png_get_chunk_cache_max
pvc:_cf2_hintmask_setCounts
nva:__Z6b2MulTRK5b2RotRK6b2Vec2
Dvb:_z_gzgetc
ZC:_llvm_trunc_f32
nyb:_png_set_longjmp_fn
WXa:__ZN13GGGeolocationD0Ev
RWd:_emscripten_set_keypress_callback__wrapper
yEb:_png_convert_from_struct_tm
ndb:__ZN14LuaApplication12setPrintFuncEPFvPKciPvES2_
Plb:__ZNSt3__214__split_bufferIN19gevent_CallbackList15CallbackCommandERNS_9allocatorIS2_EEED2Ev
X9c:__ZNSt16nested_exceptionD2Ev
zwd:__ZNKSt3__210moneypunctIwLb1EE11curr_symbolEv
YGb:_make_funny_pointers
cxd:__ZNKSt3__29money_getIcNS_19istreambuf_iteratorIcNS_11char_traitsIcEEEEE3getES4_S4_bRNS_8ios_baseERjRNS_12basic_stringIcS3_NS_9allocatorIcEEEE
Ctc:_cff_size_done
uic:_FT_Add64
Qnc:_af_cjk_compute_stem_width
h$b:__ZL12LoadFunctionP9LoadStateP7TString
cKb:_jpeg_fdct_float
Ygc:_mpg123_current_decoder
dvb:_z_inflateSetDictionary
w2:__ZNSt3__26__treeINS_12__value_typeIiN6TTFont9GlyphDataEEENS_19__map_value_compareIiS4_NS_4lessIiEELb1EEENS_9allocatorIS4_EEE7destroyEPNS_11__tree_nodeIS4_PvEE
bKb:_reset_error_mgr
HXd:_glDeleteBuffers__wrapper
VX:__ZN9TextField6doDrawERK7Matrix4ffff
Ruc:_cf2_hintmap_init
pEd:__ZNKSt3__212basic_stringIcNS_11char_traitsIcEENS_9allocatorIcEEE2atEj
$xc:_psh_glyph_load_points
Mvb:_z_gzopen
kl:__emval_new
W_:__ZL14easeInOutQuartd
V0c:_parse_atom
qcb:__ZL17eventCheckClosureP9lua_State
O0a:__ZNK5b2Rot8GetXAxisEv
tla:__ZN18ApplicationManager10backgroundEv
RY:__ZN6Screen8setStateEi
Llb:__ZNSt3__26vectorIN19gevent_CallbackList15CallbackCommandENS_9allocatorIS2_EEE21__push_back_slow_pathIRKS2_EEvOT_
iRc:_put_32
Bsd:__ZNSt3__2L15ucs4_to_utf16leEPKjS1_RS1_PhS3_RS3_mNS_12codecvt_modeE
Xs:_emscripten_glUniform2fv
Odb:_default_walker
vwd:__ZNSt3__210moneypunctIwLb1EEC2Ej
l0a:__ZNK9b2Contact11GetFrictionEv
KU:__ZNSt3__211char_traitsIcE11eq_int_typeEii
w4b:__ZL9get_indexPKcS0_S0_Pi
nid:__ZNSt3__210__stdinbufIcE9__getcharEb
c7c:__ZNSt3__26__sortIRNS_6__lessIccEEPcEEvT0_S5_T_
Xwb:_png_chunk_report
D8c:__ZNSt3__27__sort5IRNS_6__lessIddEEPdEEjT0_S5_S5_S5_S5_T_
dsd:__ZNKSt3__214__codecvt_utf8IDiE16do_always_noconvEv
ak:___syscall66
Oca:__ZNK6Sprite4refYEv
_j:___syscall64
$j:___syscall65
Eia:__ZL18kh_resize_vector4fP13kh_vector4f_tj
Zj:___syscall63
Yj:___syscall60
kfc:_bc_need_more
Nhb:_gimage_saveImage
Eta:_gui_createTextInputDialog
mqc:_Ins_SRP2
yQa:___cxx_global_var_init_87
lqc:_Ins_SRP1
ZCc:_FT_List_Insert
L3a:__ZNK5b2Rot8GetAngleEv
Aib:__ZNSt3__26__treeINS_12__value_typeImPN9g_private14TextureElementEEENS_19__map_value_compareImS5_NS_4lessImEELb1EEENS_9allocatorIS5_EEED2Ev
dCd:__ZNSt3__211regex_errorC2ENS_15regex_constants10error_typeE
qCb:_png_image_read_header
Ica:__ZNK6Sprite9rotationXEv
UNc:_md5_init
nhd:__ZNSt3__213basic_ostreamIwNS_11char_traitsIwEEE5seekpENS_4fposI11__mbstate_tEE
cqa:__ZN21GGSampleOpenALManager9SoundPlayEmb
RKb:_jpeg_write_m_byte
yCd:__ZNSt3__218shared_timed_mutex11lock_sharedEv
q0c:_tre_stack_new
F0b:_luaL_optlstring
L7c:__ZNSt3__227__insertion_sort_incompleteIRNS_6__lessIttEEPtEEbT0_S5_T_
ixa:__ZN15b2CircleContactD0Ev
gWc:_l64a
mjd:__ZNSt3__227__num_get_unsigned_integralImEET_PKcS3_Rji
S$a:__ZNK15b2ParticleGroup16GetParticleCountEv
pU:__ZN4FontC2EP11Application
_Yb:__ZL7retstatP8LexState
w0:__ZN4SlotI9MovieClip15EnterFrameEventED0Ev
hgd:__ZNSt3__213basic_istreamIwNS_11char_traitsIwEEE5seekgENS_4fposI11__mbstate_tEE
_Rc:___strxfrm_l
tF:_tanf
hLc:_cacoshl
_2c:_getchar_unlocked
m4b:__ZL10Lutf8_findP9lua_State
uF:_tanl
frc:_Ins_MPPEM
s7c:__ZNSt3__218__insertion_sort_3IRNS_6__lessIaaEEPaEEvT0_S5_T_
OVc:_tanh
gLc:_cacoshf
fId:__ZNSt3__212basic_stringIwNS_11char_traitsIwEENS_9allocatorIwEEE6assignENS_17basic_string_viewIwS2_EE
uy:_glGetQueryivEXT
hsc:_Ins_PUSHB
yt:_emscripten_glVertexAttribPointer
c$:__ZL13easeInOutQuadd
Ml:__write_sockaddr
E4b:__ZL16matchbalanceUTF8P14MatchStateUTF8PKcPS2_
Enb:__ZN14GGSoundManager8postTickEv
Xn:_chroot
UC:_llvm_sqrt_f32
JSa:__ZN6BinderC2EP9lua_State
SBc:_FT_Attach_File
Yza:__ZN12b2WheelJoint23InitVelocityConstraintsERK12b2SolverData
leb:_control_construct
ZHa:__ZN6b2Body18ApplyLinearImpulseERK6b2Vec2S2_b
Vec:_generic_head_shift
ID:_pthread_cond_destroy
g9:__ZN11SpriteProxyD2Ev
ZHb:_jpeg_idct_16x16
vEa:__ZN24b2TypedIntrusiveListNodeI16b2ParticleHandleED2Ev
iJ:__ZN9Particles14clearParticlesEv
yqd:__ZNKSt3__25ctypeIcE10do_tolowerEPcPKc
BFb:_latch_quant_tables
q_a:__ZNK14LuaApplication16getHardwareWidthEv
h0b:_lua_resume
moc:_FT_Vector_NormLen
qw:_getdate
ULb:_emit_restart_e
kZb:__ZL8init_expP7expdesc7expkindi
r5:__ZNSt3__26vectorIPdNS_9allocatorIS1_EEE26__swap_out_circular_bufferERNS_14__split_bufferIS1_RS3_EE
Uac:_INT123_invalidate_format
yCa:__ZNK14b2PolygonShape8ValidateEv
yR:__ZNK5GMesh8getColorEiPjPf
$N:__ZNSt3__214__split_bufferI6Point2IfERNS_9allocatorIS2_EEED2Ev
i4:__ZNSt3__26vectorIN8TTBMFont8FontFaceENS_9allocatorIS2_EEE26__swap_out_circular_bufferERNS_14__split_bufferIS2_RS4_EE
bO:__ZN3Dib8setPixelEiiPKh
Zd:_SDL_CondWaitTimeout
Omb:__ZNKSt3__26__treeINS_12__value_typeImPN14GGSoundManager5SoundEEENS_19__map_value_compareImS5_NS_4lessImEELb1EEENS_9allocatorIS5_EEE10__root_ptrEv
Tkc:_check_table_dir
v0a:__ZN11b2DebugDrawD2Ev
JQd:__ZN10__cxxabiv112_GLOBAL__N_114parse_new_exprINS0_2DbEEEPKcS4_S4_RT_
Vo:_emscripten_alcDevicePauseSOFT
kwc:_cf2_builder_moveTo
qHd:__ZNKSt3__212basic_stringIwNS_11char_traitsIwEENS_9allocatorIwEEE4rendEv
Iib:__ZNSt3__26__treeINS_12__value_typeINS_6vectorIcNS_9allocatorIcEEEEPN9g_private14TextureElementEEENS_19__map_value_compareIS5_S9_NS_4lessIS5_EELb1EEENS3_IS9_EEE14__erase_uniqueIS5_EEjRKT_
mMc:_csinhl
vRc:_iswalnum_l
Lo:_eglSwapBuffers
Ef:_SDL_OpenAudio
UGc:_set_effect_defaults
iMc:_csin
Msa:__ZN10emscripten8internal6TypeIDIRmE3getEv
n4b:__ZL12Lutf8_gmatchP9lua_State
wq:_emscripten_glBufferData
OMd:__ZNKSt3__210error_code7messageEv
Wya:__ZplRK6b2Vec3S1_
lec:_INT123_synth_ntom_8bit_m2s
E7b:__ZN8pystring12_GLOBAL__N_117rsplit_whitespaceERKNSt3__212basic_stringIcNS1_11char_traitsIcEENS1_9allocatorIcEEEERNS1_6vectorIS7_NS5_IS7_EEEEi
Igc:_mpg123_meta_free
Kdb:_block_is_last
Dwc:_cff_vstore_done
JDc:_convert_signal
Cz:_glUniform3iv
o8a:__ZN12SpriteBinder9getHeightEP9lua_State
ADa:__ZN9b2ContactD0Ev
rcb:__ZL25eventCheckClosureWithDataP9lua_State
OEa:__ZN16b2ParticleSystem16ReallocateBufferIPvEEPT_S3_iiib
DDd:__ZNSt3__212basic_stringIcNS_11char_traitsIcEENS_9allocatorIcEEEaSEPKc
Qyb:_png_get_y_offset_inches_fixed
YJ:__ZNSt3__214__split_bufferIfRNS_9allocatorIfEEED2Ev
rZ:__ZNSt3__26vectorIdNS_9allocatorIdEEE6resizeEj
Bq:_emscripten_glClearDepth
YH:FUNCTION_TABLE_viidddddd
qod:__ZNKSt3__217moneypunct_bynameIwLb1EE16do_thousands_sepEv
oQa:___cxx_global_var_init_9_86
PWc:_fwrite
xJd:__ZNKSt3__212basic_stringIwNS_11char_traitsIwEENS_9allocatorIwEEE7compareERKS5_
_Ha:__ZNK16b2ParticleSystem19GetCriticalPressureERK10b2TimeStep
fod:__ZNKSt3__217moneypunct_bynameIwLb0EE16do_thousands_sepEv
yb:ftCall_vidddiii
aG:downcastPointer
_ta:_ggeolocation_isHeadingAvailable
nob:__ZN14GGAudioManager25BackgroundChannelIsPausedEm
fya:__ZN6b2Vec33SetEfff
kvb:_z_inflateMark
XGd:__ZNSt3__212basic_stringIwNS_11char_traitsIwEENS_9allocatorIwEEE19__copy_assign_allocERKS5_
RKa:__ZNK12_GLOBAL__N_122TypedFixedSetAllocatorINS_15LightweightPairIP9b2FixtureiEEE8GetIndexEPKS4_
Rxd:__ZNSt3__212_GLOBAL__N_14makeINS_7collateIwEEjEERT_T0_
D6a:__ZN12BitmapBinderC2EP9lua_State
Gc:ftCall_viiiiiiiiiii
MAd:__ZNSt3__214__shared_countD0Ev
FWc:_pipe
Mvd:__ZNKSt3__28time_putIwNS_19ostreambuf_iteratorIwNS_11char_traitsIwEEEEE3putES4_RNS_8ios_baseEwPK2tmcc
onc:__ft_face_scale_advances
Oqb:__ZNSt3__214__split_bufferIPcRNS_9allocatorIS1_EEED2Ev
Wxc:_ps_hints_t2mask
In:_asin
VBb:_png_read_rows
_ya:__ZNK12b2MotorJoint10GetAnchorBEv
Htd:__ZNKSt3__220__codecvt_utf8_utf16IDsE10do_unshiftER11__mbstate_tPcS4_RS4_
Paa:__ZN6Sprite11removeChildEPS_P7GStatus
did:__ZNSt3__210__stdinbufIwE9underflowEv
Ffa:__ZN17ogl2ShaderProgram7isValidEv
ELd:__ZNSt3__212_GLOBAL__N_19as_stringINS_12basic_stringIwNS_11char_traitsIwEENS_9allocatorIwEEEEPFiPwjPKwzEfEET_T0_SD_PKNSD_10value_typeET1_
wkc:_tt_face_load_name
_pb:__ZNKSt3__26__treeINS_12__value_typeIi8FileInfoEENS_19__map_value_compareIiS3_NS_4lessIiEELb1EEENS_9allocatorIS3_EEE10__root_ptrEv
unc:_ft_lookup_glyph_renderer
g7c:__ZNSt3__218__insertion_sort_3IRNS_6__lessIccEEPcEEvT0_S5_T_
vad:__ZNSt3__217__assoc_sub_state10__sub_waitERNS_11unique_lockINS_5mutexEEE
ZZc:___fclose_ca
opd:__ZNKSt3__27codecvtIDic11__mbstate_tE5do_inERS1_PKcS5_RS5_PDiS7_RS7_
h6a:__ZN10FontBinderC2EP9lua_State
GGc:_read_event_ft2
Dsa:__ZNK10emscripten8internal12WithPoliciesIJEE11ArgTypeListIJiNS_3valES4_RS4_S4_S4_S4_iiiEE8getTypesEv
PMa:__ZNK6b2Body14GetLocalVectorERK6b2Vec2
Npb:__ZL7s_writeiPKvj
_Sa:__ZN15ParticlesBinder6createEP9lua_State
qia:__ZL13add_fill_lineP4pathffffff
OHd:__ZNSt3__212basic_stringIwNS_11char_traitsIwEENS_9allocatorIwEEE2atEj
oCb:_png_image_begin_read_from_stdio
Hhd:__GLOBAL__sub_I_iostream_cpp
pMa:__ZN9b2Fixture13SetFilterDataERK8b2Filter
mFb:_png_image_set_PLTE
E4c:_wcstoul
uub:_z_deflateReset
_Cd:__ZNSt3__212basic_stringIcNS_11char_traitsIcEENS_9allocatorIcEEEC2ERKS5_RKS4_
gNb:_fill_dc_scans
bHd:__ZNSt3__212basic_stringIwNS_11char_traitsIwEENS_9allocatorIwEEEaSEw
Z8:__ZNK6Sprite6parentEv
wac:_tpdf_noise
Esc:_Dual_Project
pXb:_lua_equal
lma:__ZNKSt3__26__treeINS_12__value_typeIjNS_6vectorIP17ginput_TouchEventNS_9allocatorIS4_EEEEEENS_19__map_value_compareIjS8_NS_4lessIjEELb1EEENS5_IS8_EEE10__root_ptrEv
JId:__ZNSt3__212basic_stringIwNS_11char_traitsIwEENS_9allocatorIwEEE7replaceENS_11__wrap_iterIPKwEES9_St16initializer_listIwE
pR:__ZN5GMesh16clearVertexArrayEv
U$:__ZN9MovieClip5FrameC2EOS0_
mfb:__ZNSt3__26__treeINS_12__value_typeIPvP11GReferencedEENS_19__map_value_compareIS2_S5_NS_4lessIS2_EELb1EEENS_9allocatorIS5_EEE12__find_equalIS2_EERPNS_16__tree_node_baseIS2_EERPNS_15__tree_end_nodeISG_EERKT_
mTc:_finitef
Iyd:__ZNSt3__26locale5__imp7installINS_8time_getIwNS_19istreambuf_iteratorIwNS_11char_traitsIwEEEEEEEEvPT_
Cfc:_do_readahead
TXa:__ZN13GGGeolocation10callback_sEiPvS0_
Ujb:__ZNKSt3__26__treeINS_12__value_typeImPN9g_private19RenderTargetElementEEENS_19__map_value_compareImS5_NS_4lessImEELb1EEENS_9allocatorIS5_EEE10__root_ptrEv
SDd:__ZNKSt3__212basic_stringIcNS_11char_traitsIcEENS_9allocatorIcEEE6rbeginEv
mjc:_tt_cmap13_char_index
DIa:__ZNSt3__214__rotate_rightIPN16b2ParticleSystem5TriadEEET_S4_S4_
xlc:_FT_Stream_Free
bGb:_alloc_barray
lua:__ZL8errorLuaPKc
gMa:__ZN7b2World11ShiftOriginERK6b2Vec2
Xaa:__ZNK6Sprite12boundsHelperERK7Matrix4PfS3_S3_S3_NSt3__25stackIS0_NS4_5dequeIS0_NS4_9allocatorIS0_EEEEEEb
JEc:_read16b
Dsd:__ZNKSt3__215__codecvt_utf16IDsLb0EE6do_outER11__mbstate_tPKDsS5_RS5_PcS7_RS7_
F2a:__ZN12Box2DBinder224b2ChainShape_createChainEP9lua_State
nWc:_a_ctz_l_385
Mxb:_png_muldiv_warn
EMd:__ZNKSt3__223__system_error_category4nameEv
Ukc:_tt_sbit_decoder_init
RRc:_strcasecmp_l
Gjb:__ZNSt3__26__treeIPN9g_private14TextureElementENS_4lessIS3_EENS_9allocatorIS3_EEE16__insert_node_atEPNS_15__tree_end_nodeIPNS_16__tree_node_baseIPvEEEERSD_SD_
m1b:_luaopen_base
Tq:_emscripten_glDeleteTextures
$ja:__ZN14NetworkManager10createFileERKNSt3__26vectorIcNS0_9allocatorIcEEEE
Gia:__ZL12delete_pathsji
jTb:___gl_pqHeapNewPriorityQ
$A:_glfwSetWindowRefreshCallback
fXa:__ZN13GGAlertDialogC2EP9lua_StatePKcS3_S3_S3_S3_
mUc:_ldexpf
DPb:__ZNK17CPVRTResourceFile4SizeEv
gfb:__ZN11GReferenced3refEv
VXb:_lua_setfield
vHb:_jpeg_fill_bit_buffer
Tfb:__Z7fileAgePKc
HXc:_sscanf
GLd:__ZNKSt3__212_GLOBAL__N_114initial_stringINS_12basic_stringIwNS_11char_traitsIwEENS_9allocatorIwEEEEdLb1EEclEv
Cjb:__ZNSt3__26__treeIPN9g_private14TextureElementENS_4lessIS3_EENS_9allocatorIS3_EEED2Ev
Xja:__ZN14NetworkManager4tickEv
wca:__ZN9Transform12setRotationYEf
xp:_emscripten_coroutine_create
UBd:__ZNSt12experimental19bad_optional_accessD2Ev
wnb:__ZN14GGSoundManager18ChannelAddCallbackEmPFviPvS0_ES0_
LLc:_expm1f
Xzb:_png_read_filter_row
yec:_INT123_synth_4to1_real_mono
eTc:_expm1l
My:_glIsFramebuffer
$Ja:__ZN12_GLOBAL__N_122TypedFixedSetAllocatorINS_15LightweightPairIiiEEEC2EP16b2StackAllocator
v7b:__ZL7ll_loadP9lua_StatePKc
C5:___cxx_global_var_init_238
_Ld:__ZTv0_n12_NSt3__210ostrstreamD0Ev
Rca:__ZNK6Sprite18getGreenMultiplierEv
j_:__ZNSt3__26__treeINS_12__value_typeIiiEENS_19__map_value_compareIiS2_NS_4lessIiEELb1EEENS_9allocatorIS2_EEED2Ev
uQ:__ZNSt3__214__split_bufferIP5ColorRNS_9allocatorIS2_EEEC2EjjS5_
Uzb:_png_get_uint_31
GMd:__ZNKSt3__223__system_error_category7messageEi
na:invoke_diidi
oha:__ZN16ogl2ShaderEngine12setBlendFuncEN12ShaderEngine11BlendFactorES1_
X0a:__ZN12Box2DBinder228b2FrictionJoint_getMaxTorqueEP9lua_State
fnb:__ZNSt3__26__treeIPN14GGSoundManager7ChannelENS_4lessIS3_EENS_9allocatorIS3_EEE14__erase_uniqueIS3_EEjRKT_
m5:__ZN10Tesselator9DoCleanupEv
DM:__ZN8Viewport12setTransformEPK7Matrix4
Opd:__ZNKSt3__27codecvtIwc11__mbstate_tE5do_inERS1_PKcS5_RS5_PwS7_RS7_
Cza:__ZNK11b2RopeJoint16GetReactionForceEf
D3c:_setbuffer
AXa:__ZN17GeolocationBinder11isAvailableEP9lua_State
DT:__ZNK4Font7kerningEii
IMc:_des_cipher
sqa:__ZN21GGSampleOpenALManager14ChannelIsValidEm
EQc:_a_cas_p
oo:_dlsym
Dbd:__ZTv0_n12_NSt3__213basic_istreamIcNS_11char_traitsIcEEED0Ev
Nac:_mpg123_fmt_all
F8b:__ZN8pystring2os4path10join_posixERKNSt3__212basic_stringIcNS2_11char_traitsIcEENS2_9allocatorIcEEEESA_
CLa:__ZNSt3__227__insertion_sort_incompleteIRN12_GLOBAL__N_124ExpirationTimeComparatorEPiEEbT0_S5_T_
Muc:_cf2_glyphpath_closeOpenPath
RPa:__ZN16b2ParticleSystem24SetUserOverridableBufferIPvEEvPNS_21UserOverridableBufferIT_EEPS3_i
HVa:__ZN12_GLOBAL__N_17GGSound17setSoundInterfaceEv
Hla:__ZN20GGApplicationManager16getScreenDensityEv
Vib:__ZNSt3__26__treeINS_12__value_typeImPN9g_private14TextureElementEEENS_19__map_value_compareImS5_NS_4lessImEELb1EEENS_9allocatorIS5_EEE13__lower_boundImEENS_15__tree_iteratorIS5_PNS_11__tree_nodeIS5_PvEEiEERKT_SI_PNS_15__tree_end_nodeIPNS_16__tree_node_baseISG_EEEE
Y_b:__ZL10enterblockP9FuncStateP8BlockCnth
dtc:_TT_Load_Composite_Glyph
bVd:mftCall_iiiiiiiii
XLc:_conjf
V6b:__ZL7foreachP9lua_State
_zc:_ft_stroke_border_arcto
osd:__ZNSt3__2L22utf16be_to_ucs4_lengthEPKhS1_jmNS_12codecvt_modeE
Q1c:__flushlbf
Mcb:__ZL9get_classP9lua_State
YX:__ZN9TextField7setTextEPKc
EOb:__ZN10ByteBufferC2EPKci
yw:_getnameinfo
oRd:__ZNSt3__212basic_stringIcNS_11char_traitsIcEEN10__cxxabiv112_GLOBAL__N_112malloc_allocIcEEE9__grow_byEjjjjjj
d$a:__ZN12Box2DBinder219getRevoluteJointDefEP9lua_State
y3c:_rewind
nTb:___gl_meshUnion
t$b:__ZL10LoadNumberP9LoadState
hgc:_zero_byte
Kcd:__ZNSt3__29basic_iosIcNS_11char_traitsIcEEE4moveERS3_
Fic:_ft_validator_error
X6c:_tcsetpgrp
Y4a:__ZN20EventContactListenerC2EP9b2WorldED
qyd:__ZNSt3__26locale5__imp7installINS_10moneypunctIcLb0EEEEEvPT_
tdc:_III_i_stereo
Sqd:__ZNKSt3__212ctype_bynameIwE10do_toupperEPwPKw
IJ:__ZNSt3__214__split_bufferIN9Particles5ColorERNS_9allocatorIS2_EEE18__construct_at_endEj
swa:__ZNK13b2CircleShape13GetChildCountEv
qH:FUNCTION_TABLE_iii
MZ:__ZN6Sprite9setBoundsEffff
SDa:__ZN7b2WorldD2Ev
SMa:__ZNK6b2Body14GetWorldVectorERK6b2Vec2
o5b:__ZL12utf8_toupperj
Dga:__ZNKSt3__26vectorIN13ShaderProgram8DataDescENS_9allocatorIS2_EEE8max_sizeEv
Qda:__ZN7Matrix45scaleEfff
Eda:__ZN7Matrix416invertProjectiveEv
u2b:__ZL5hookfP9lua_StateP9lua_Debug
ANb:__ZN6snappy4SinkD2Ev
Rg:_XChangeWindowAttributes
PNd:__ZNK10__cxxabiv116__shim_type_info5noop2Ev
Ibd:__ZTv0_n12_NSt3__213basic_istreamIwNS_11char_traitsIwEEED0Ev
xOa:__ZNSt3__214__rotate_rightIP6b2Vec2EET_S3_S3_
FDa:__ZN25b2PolygonAndCircleContactC2EP9b2FixtureS1_
CWc:_setsid
jk:___syscall97
Zz:_glVertexAttribPointer
zSd:__ZSt12__unexpectedPFvvE
Yxd:__ZNSt3__26locale5__imp7installINS_7codecvtIcc11__mbstate_tEEEEvPT_
qVb:__ZL15traverseclosureP12global_StateP7Closure
bla:__ZN18ApplicationManagerC2EbPKcS1_
tpd:__ZNKSt3__27codecvtIDic11__mbstate_tE13do_max_lengthEv
hk:___syscall94
zvc:_cf2_stack_setReal
MDa:__ZNSt3__27__sort3IRPFbRK6b2PairS3_EPS1_EEjT0_S8_S8_T_
MT:__ZNKSt3__26vectorI12GraphicsBaseNS_9allocatorIS1_EEE8max_sizeEv
xNb:__ZN11CPVRTStringD2Ev
yta:__ZN8UiDialogaSERKS_
vCd:__ZNSt3__218shared_timed_mutex4lockEv
lUc:_ldexp
_9:__ZNSt3__214__split_bufferIPNS_4pairIP6SpritebEENS_9allocatorIS5_EEE9push_backEOS5_
dUb:_unzGetFilePos
Xfb:__ZNSt3__25dequeINS_12basic_stringIcNS_11char_traitsIcEENS_9allocatorIcEEEENS4_IS6_EEE9push_backEOS6_
nWb:__ZL12callrethooksP9lua_StateP10lua_TValue
MZb:_luaK_prefix
fVd:mftCall_iiiiiiiiiiiii
FDd:__ZNSt3__212basic_stringIcNS_11char_traitsIcEENS_9allocatorIcEEEaSEc
pdc:_III_get_side_info
kCd:__ZNSt3__212_GLOBAL__N_110use_strcmpclERKNS0_10classnamesEPKc
Tld:__ZNSt3__215time_get_bynameIcNS_19istreambuf_iteratorIcNS_11char_traitsIcEEEEED2Ev
czb:_png_get_iCCP
zuc:_cf2_stack_getReal
jta:_ghttp_Put
E6c:_renameat
N6:__ZNSt3__26__treeINS_12__value_typeIdNS_6vectorIP5TimerNS_9allocatorIS4_EEEEEENS_19__map_value_compareIdS8_NS_4lessIdEELb1EEENS5_IS8_EEED2Ev
udc:_III_antialias
c:HEAP32
J1:__ZN13GRenderTargetD0Ev
zCb:_png_image_read_direct
Lvc:_cf2_getBlueValues
bTa:__ZN15ParticlesBinder15removeParticlesEP9lua_State
kAc:_ft_cubic_split
$_c:_ns_put16
OGa:__ZN16b2ParticleSystem14UpdateContactsEb
Zkb:__ZNSt3__214__split_bufferIPN6gevent12EventManager17EventQueueElementERNS_9allocatorIS4_EEE18__construct_at_endINS_13move_iteratorIPS4_EEEENS_9enable_ifIXsr21__is_forward_iteratorIT_EE5valueEvE4typeESE_SE_
Nda:__ZN7Matrix49translateERK7Vector3
x8:__ZN3DibC2ERKS_
rq:_emscripten_glBlendColor
tlb:__ZN19gevent_CallbackListC2Ev
J1c:___lxstat
cvc:_cf2_hintmap_adjustHints
VFa:__ZN10b2FreeListC2Ev
RGd:__ZNKSt3__212basic_stringIwNS_11char_traitsIwEENS_9allocatorIwEEE14__get_long_capEv
x7:__ZNSt3__26__treeINS_12__value_typeIdNS_6vectorIP5TimerNS_9allocatorIS4_EEEEEENS_19__map_value_compareIdS8_NS_4lessIdEELb1EEENS5_IS8_EEE5eraseENS_21__tree_const_iteratorIS8_PNS_11__tree_nodeIS8_PvEEiEE
EAa:__ZN6b2DrawD0Ev
cq:_emscripten_get_preloaded_image_data
iS:__ZNSt3__26vectorI4RectNS_9allocatorIS1_EEE21__push_back_slow_pathIRKS1_EEvOT_
uJd:__ZNKSt3__212basic_stringIwNS_11char_traitsIwEENS_9allocatorIwEEE16find_last_not_ofEPKwjj
Bm:_alGetListeneriv
Xfc:_INT123_decode_update
gQb:__ZN11CPVRTString5eraseEjj
qxb:_png_XYZ_normalize
azd:__ZNSt3__28numpunctIcEC2Ej
mC:_llvm_exp2_f32
Fcd:__ZNSt3__29basic_iosIcNS_11char_traitsIcEEE5imbueERKNS_6localeE
WDd:__ZNKSt3__212basic_stringIcNS_11char_traitsIcEENS_9allocatorIcEEE4cendEv
Jwd:__ZNSt3__213__rotate_leftINS_11__wrap_iterIPcEEEET_S4_S4_
oMb:_start_pass_prep
eEc:_read8
lY:__ZN13TextFieldBaseC2EP11Application
ASa:__ZNSt3__25dequeIN14LuaApplication12AsyncLuaTaskENS_9allocatorIS2_EEE19__add_back_capacityEv
vZ:__ZNSt3__214__split_bufferIdRNS_9allocatorIdEEEC2EjjS3_
Ofc:_get_fileinfo
GNa:__ZNK12b2MotorJoint16GetAngularOffsetEv
Tpc:_Current_Ppem
fCa:__ZNK20b2SeparationFunction17FindMinSeparationEPiS0_f
wLa:__ZN16b2ParticleSystem13RequestBufferI15b2ParticleColorEEPT_S3_
O5a:__ZN15TextFieldBinder7getTextEP9lua_State
n4a:__ZN12Box2DBinder218b2World_setGravityEP9lua_State
LUa:__ZN18RenderTargetBinder4drawEP9lua_State
PC:_llvm_powi_f32
_nd:__ZNKSt3__217moneypunct_bynameIcLb1EE16do_negative_signEv
BGd:__ZNSt3__212basic_stringIwNS_11char_traitsIwEENS_9allocatorIwEEEC2EPKw
ndd:__ZNSt3__29basic_iosIwNS_11char_traitsIwEEEC2Ev
szb:_png_get_rgb_to_gray_status
k2a:__ZN12Box2DBinder229b2RevoluteJoint_getJointSpeedEP9lua_State
i5c:_wcpncpy
xHa:__ZNSt3__213__upper_boundIRNS_6__lessIjN16b2ParticleSystem5ProxyEEEPS3_jEET0_S7_S7_RKT1_T_
Q8b:__ZN8pystring2os4path8basenameERKNSt3__212basic_stringIcNS2_11char_traitsIcEENS2_9allocatorIcEEEE
Rkc:_FT_Stream_ReadULong
eTb:_AddSentinel
c_a:__ZN17ApplicationBinder13setWindowSizeEP9lua_State
eFd:__ZNSt3__212basic_stringIcNS_11char_traitsIcEENS_9allocatorIcEEE7replaceEjjPKc
Axb:_png_icc_set_sRGB
VN:__ZN12VertexBufferI6Point2IfEE6UpdateEv
pZb:_luaK_exp2RK
Grd:__ZNSt3__217__widen_from_utf8ILj16EED0Ev
sUc:___sin
i8a:__ZN12SpriteBinder9isVisibleEP9lua_State
bCc:_FT_CMap_Done
EK:__ZNSt3__26__treeINS_12__value_typeIiNS_6vectorIP8SlotBaseNS_9allocatorIS4_EEEEEENS_19__map_value_compareIiS8_NS_4lessIiEELb1EEENS5_IS8_EEE4findIiEENS_15__tree_iteratorIS8_PNS_11__tree_nodeIS8_PvEEiEERKT_
dvc:_cf2_hint_isSynthetic
hyd:__ZNSt3__212_GLOBAL__N_14makeINS_7num_getIcNS_19istreambuf_iteratorIcNS_11char_traitsIcEEEEEEjEERT_T0_
cgc:_mpg123_safe_buffer
kDd:__ZNSt3__212basic_stringIcNS_11char_traitsIcEENS_9allocatorIcEEEC2ERKS5_jjRKS4_
s8b:__ZN8pystring2os4path10splitdriveERNSt3__212basic_stringIcNS2_11char_traitsIcEENS2_9allocatorIcEEEES9_RKS8_
rnb:__ZN14GGSoundManager15ChannelSetPitchEmf
BP:__ZL8multiplyPA2_KfS1_PA2_f
dEc:_readmem32l
f3b:__ZL9aux_closeP9lua_State
SOb:__ZN10ByteBuffer6appendEPKhi
wwb:_png_user_version_check
Yjc:_tt_face_get_ps_name
Eob:_gaudio_SoundListener
mvb:_z_gzputc
D$:__Z4qMindd
gza:__ZNK6b2Body11GetPositionEv
B2c:___pthread_self_599
cKa:__ZNSt3__27__sort3IRNS_6__lessIN16b2ParticleSystem5ProxyES3_EEPS3_EEjT0_S7_S7_T_
oMa:__ZN9b2Fixture13CreateProxiesEP12b2BroadPhaseRK11b2Transform
Yd:_SDL_CondWait
N:Math_exp
tsd:__ZNKSt3__215__codecvt_utf16IwLb1EE5do_inER11__mbstate_tPKcS5_RS5_PwS7_RS7_
Zt:_emscripten_num_logical_cores
jpc:_Update_Max
nvb:_z_gzputs
XDa:__ZN16b2ParticleSystemD2Ev
ITc:_fminl
pm:_alGetDoublev
c9b:__ZN6snappy4Bits9Log2FloorEj
WRb:_internal_gluTessCallback
ftb:__ZNSt3__26__treeINS_12basic_stringIcNS_11char_traitsIcEENS_9allocatorIcEEEENS_4lessIS6_EENS4_IS6_EEEC2ERKS8_
uvd:__ZNSt3__218__time_get_storageIwE9__analyzeEcRKNS_5ctypeIwEE
Afc:_decode_header
PIa:__ZN12b2StackQueueIN16b2VoronoiDiagram20b2VoronoiDiagramTaskEEC2EP16b2StackAllocatori
GTc:_fminf
Kmd:__ZNKSt3__28time_putIwNS_19ostreambuf_iteratorIwNS_11char_traitsIwEEEEE6do_putES4_RNS_8ios_baseEwPK2tmcc
kWc:_ffs
cLb:_emit_dqt
E8c:__ZNSt3__218__insertion_sort_3IRNS_6__lessIddEEPdEEvT0_S5_T_
YTc:_y0f
jfd:__ZNSt3__213basic_istreamIcNS_11char_traitsIcEEE8readsomeEPci
ozd:__ZNSt3__26locale5__imp7installINS_14codecvt_bynameIDsc11__mbstate_tEEEEvPT_
wUa:__ZN12Path2DBinder16setLineThicknessEP9lua_State
S9:__ZNSt3__214__split_bufferIPNS_5stackINS_4pairIP6SpritebEENS_5dequeIS5_NS_9allocatorIS5_EEEEEERNS7_ISB_EEEC2EjjSD_
JXd:_glDeleteTextures__wrapper
Wrc:_Ins_SDPVTL
MD:_pthread_cond_wait
htb:_gpath_setDriveFlags
ena:__ZN6ginput12InputManager16deleteMouseEventEP17ginput_MouseEvent
HSb:_CheckForLeftSplice
P0:__ZNSt3__26__treeINS_12__value_typeIP6SpriteiEENS_19__map_value_compareIS3_S4_NS_4lessIS3_EELb1EEENS_9allocatorIS4_EEE16__construct_nodeIJRKNS_21piecewise_construct_tENS_5tupleIJRKS3_EEENSG_IJEEEEEENS_10unique_ptrINS_11__tree_nodeIS4_PvEENS_22__tree_node_destructorINS9_ISO_EEEEEEDpOT_
vEb:_png_save_uint_16
l7:__ZNSt3__26__treeIP5TimerNS_4lessIS2_EENS_9allocatorIS2_EEE16__insert_node_atEPNS_15__tree_end_nodeIPNS_16__tree_node_baseIPvEEEERSC_SC_
xH:FUNCTION_TABLE_iiiiiiii
zbc:_bad_init
Lzd:__ZNSt3__26locale5__impC2ERKS1_RKNS_12basic_stringIcNS_11char_traitsIcEENS_9allocatorIcEEEEi
tad:__ZNSt3__217__assoc_sub_state12__make_readyEv
lwd:__ZNSt3__210moneypunctIwLb0EEC2Ej
Cl:__inet_pton6_raw
Xyb:_png_get_cHRM
Oha:__ZN6Path2D8fillPathEi7Matrix4PfP11TextureDatabP13ShaderProgramPKS0_
DLb:_compress_output
KW:__ZNSt3__26vectorIP15EventDispatcherNS_9allocatorIS2_EEEC2INS_21__tree_const_iteratorIS2_PNS_11__tree_nodeIS2_PvEEiEEEET_NS_9enable_ifIXaasr21__is_forward_iteratorISD_EE5valuesr16is_constructibleIS2_NS_15iterator_traitsISD_E9referenceEEE5valueESD_E4typeE
jlc:_tt_face_build_cmaps
LPd:__ZN10__cxxabiv112_GLOBAL__N_112malloc_allocIcE10deallocateEPcj
Dpa:__ZNSt3__26__treeINS_12__value_typeImPN12_GLOBAL__N_121GGStreamOpenALManager5SoundEEENS_19__map_value_compareImS6_NS_4lessImEELb1EEENS_9allocatorIS6_EEE5eraseENS_21__tree_const_iteratorIS6_PNS_11__tree_nodeIS6_PvEEiEE
t_:__ZL15easeOutInBounced
K9:__ZNSt3__25dequeINS_4pairIP6SpritebEENS_9allocatorIS4_EEE8pop_backEv
y8b:__ZN8pystring2os4path11normpath_ntERKNSt3__212basic_stringIcNS2_11char_traitsIcEENS2_9allocatorIcEEEE
J6c:_seteuid
S9c:__ZNKSt3__211__libcpp_db9__addableEPKvi
$l:_alDisable
vG:getStringOrSymbol
frd:__ZNSt3__28numpunctIwED2Ev
OX:__ZNSt3__214__split_bufferIPNS_6vectorIP11GReferencedNS_9allocatorIS3_EEEERNS4_IS7_EEEC2EjjS9_
wQb:__ZNK11CPVRTString12find_last_ofEPKcj
j6:__ZNSt3__26__treeIP15EventDispatcherNS_4lessIS2_EENS_9allocatorIS2_EEE5eraseENS_21__tree_const_iteratorIS2_PNS_11__tree_nodeIS2_PvEEiEE
Tib:__ZNSt3__26__treeINS_12__value_typeINS_6vectorIcNS_9allocatorIcEEEEPN9g_private14TextureElementEEENS_19__map_value_compareIS5_S9_NS_4lessIS5_EELb1EEENS3_IS9_EEE13__lower_boundIS5_EENS_15__tree_iteratorIS9_PNS_11__tree_nodeIS9_PvEEiEERKT_SL_PNS_15__tree_end_nodeIPNS_16__tree_node_baseISJ_EEEE
g7a:__ZN12SpriteBinderC2EP9lua_State
gc:ftCall_viiiddddidii
Ln:_atan
MDb:_png_default_flush
Uwc:_cff_cmap_unicode_char_index
Mea:__ZNSt3__25dequeIN12ShaderEngine12DepthStencilENS_9allocatorIS2_EEE9push_backERKS2_
Lgc:_mpg123_icy2utf8
vDb:_png_set_unknown_chunk_location
wda:__ZN7Matrix413invertGeneralEv
ge:_SDL_DestroyMutex
vId:__ZNSt3__212basic_stringIwNS_11char_traitsIwEENS_9allocatorIwEEE5eraseEjj
cLd:__ZNKSt3__212_GLOBAL__N_114initial_stringINS_12basic_stringIcNS_11char_traitsIcEENS_9allocatorIcEEEEfLb1EEclEv
ecb:__ZNSt3__26__treeINS_12__value_typeIiNS_6vectorIP12CppLuaBridgeNS_9allocatorIS4_EEEEEENS_19__map_value_compareIiS8_NS_4lessIiEELb1EEENS5_IS8_EEEC2ERKSC_
XJa:__ZNSt3__27__sort5IRPFbRKN12_GLOBAL__N_115LightweightPairIiiEES5_EPS3_EEjT0_SA_SA_SA_SA_T_
eLc:_copysignf
TGb:_jinit_d_coef_controller
sWc:_dprintf
d4:__ZNSt3__26vectorIN8TTBMFont8FontFaceENS_9allocatorIS2_EEE8__appendEj
i7a:__ZN12SpriteBinder8destructEP9lua_State
eed:__ZNSt3__215basic_streambufIwNS_11char_traitsIwEEE7sungetcEv
Atb:_g_pathForFile
qQc:_copysignl
Nm:_alIsSource
znb:__ZN14GGSoundManager14registerLoaderEPKcR13GGAudioLoader
Jzd:__ZNSt3__212_GLOBAL__N_14makeINS_6locale5__impEjEERT_T0_
dr:_emscripten_glDrawArraysInstancedANGLE
pTa:__ZN15ParticlesBinder14getParticleTtlEP9lua_State
wWd:_sysconf__wrapper
t8b:__ZN8pystring2os4path8isabs_ntERKNSt3__212basic_stringIcNS2_11char_traitsIcEENS2_9allocatorIcEEEE
s4a:__ZN22b2ParticleSystemSpriteD2Ev
ktd:__ZNKSt3__215__codecvt_utf16IDiLb1EE9do_lengthER11__mbstate_tPKcS5_j
zRd:__ZN10__cxxabiv112_GLOBAL__N_15arenaILj4096EE8allocateEj
Ku:_emscripten_set_mouseleave_callback
uHc:_xmp_restart_module
_qb:_luaL_rawsetptr
Tvd:__ZNSt3__210moneypunctIcLb0EEC2Ej
y8a:__ZN12SpriteBinder17setShaderConstantEP9lua_State
Stc:_cff_free_glyph_data
Hwb:_png_get_io_ptr
Haa:__ZNSt3__214__split_bufferIP6SpriteRNS_9allocatorIS2_EEE18__construct_at_endINS_13move_iteratorIPS2_EEEENS_9enable_ifIXsr21__is_forward_iteratorIT_EE5valueEvE4typeESC_SC_
pfb:__ZNKSt3__26__treeINS_12__value_typeIPvP11GReferencedEENS_19__map_value_compareIS2_S5_NS_4lessIS2_EELb1EEENS_9allocatorIS5_EEE10__root_ptrEv
ZJd:__ZNSt3__24stolERKNS_12basic_stringIcNS_11char_traitsIcEENS_9allocatorIcEEEEPji
lKc:___syscall_ret
Eqd:__ZNSt3__25ctypeIcE21__classic_upper_tableEv
lQd:__ZN10__cxxabiv112_GLOBAL__N_111string_pairaSEOS1_
eEa:__ZN16b2ParticleSystem10FreeBufferIfEEvPPT_i
q6c:_getsid
Wnb:__ZN14GGAudioManager16ChannelGetVolumeEm
msd:__ZNKSt3__215__codecvt_utf16IwLb0EE9do_lengthER11__mbstate_tPKcS5_j
kJd:__ZNKSt3__212basic_stringIwNS_11char_traitsIwEENS_9allocatorIwEEE12find_last_ofEPKwjj
EBc:_raccess_make_file_name
YR:__ZN15MaxRectsBinPackD2Ev
zGd:__ZNSt3__212basic_stringIwNS_11char_traitsIwEENS_9allocatorIwEEE7__allocEv
wy:_glGetShaderInfoLog
ZKd:__ZNSt3__212_GLOBAL__N_19as_stringINS_12basic_stringIcNS_11char_traitsIcEENS_9allocatorIcEEEEPFiPcjPKczExEET_T0_SD_PKNSD_10value_typeET1_
wdc:_dct12
x8a:__ZN12SpriteBinder9setShaderEP9lua_State
Ldc:_INT123_synth_1to1_real
Hu:_emscripten_set_main_loop_timing
N7b:__ZN8pystring6lstripERKNSt3__212basic_stringIcNS0_11char_traitsIcEENS0_9allocatorIcEEEES8_
n5a:__ZN20EventContactListener10EndContactEP9b2FixtureP16b2ParticleSystemi
U$a:__ZN12Box2DBinder226b2Contact_getWorldManifoldEP9lua_State
aQd:__ZN10__cxxabiv112_GLOBAL__N_119parse_function_typeINS0_2DbEEEPKcS4_S4_RT_
bdd:__ZNKSt3__29basic_iosIwNS_11char_traitsIwEEE3tieEv
z5a:__ZN19AccelerometerBinder8destructEP9lua_State
Nlb:__ZNSt3__214__split_bufferIN19gevent_CallbackList15CallbackCommandERNS_9allocatorIS2_EEEC2EjjS5_
kpb:_gaudio_BackgroundChannelRemoveCallback
zAd:__ZNKSt3__26locale5__imp4nameEv
HDd:__ZNSt3__212basic_stringIcNS_11char_traitsIcEENS_9allocatorIcEEE19__get_short_pointerEv
xPd:__ZNSt3__213__vector_baseIN10__cxxabiv112_GLOBAL__N_111string_pairENS2_11short_allocIS3_Lj4096EEEED2Ev
Gkb:__ZN6gevent12EventManager15scope_exit_freeC2EbPv
CNc:_sn_write
P8c:__ZNSt3__212__rs_defaultclEv
XC:_llvm_stacksave
C6c:_readlinkat
fW:__ZNK11Application20getLogicalTranslateYEv
WSc:_erfl
g0:__ZN9MovieClip4stopEb
ns:_emscripten_glIsQueryEXT
eHb:_consume_data
QMd:__ZNSt3__212system_errorC2ENS_10error_codeERKNS_12basic_stringIcNS_11char_traitsIcEENS_9allocatorIcEEEE
t7b:__ZL9loaderrorP9lua_StatePKc
RSc:_erfc
jI:FUNCTION_TABLE_viiiiddi
$r:_emscripten_glGetString
UId:__ZNKSt3__212basic_stringIwNS_11char_traitsIwEENS_9allocatorIwEEE4findENS_17basic_string_viewIwS2_EEj
tib:__ZNSt3__23mapImPN9g_private19RenderTargetElementENS_4lessImEENS_9allocatorINS_4pairIKmS3_EEEEED2Ev
dgc:_mpg123_outblock
D$b:__ZL13DumpConstantsPK5ProtoP9DumpState
PCc:_FT_Get_Sfnt_Name_Count
lyb:_png_warning_parameter_signed
_Va:__ZN10MeshBinder25setTextureCoordinateArrayEP9lua_State
LJa:__ZL23FindItemIndexInFixedSetIN12_GLOBAL__N_115LightweightPairIiiEEEiRKNS0_22TypedFixedSetAllocatorIT_EERKS4_
WEc:_map_virt_channel
QRc:_setlocale_one_unlocked
Yrd:__ZNSt3__2L12utf8_to_ucs2EPKhS1_RS1_PtS3_RS3_mNS_12codecvt_modeE
hDb:_png_get_int_32
IBd:__ZdaPvj
U4:__ZN5Shape12extendBoundsEfff
jW:__ZNK11Application17getHardwareHeightEv
kTd:runPostSets33
OWb:__ZL10resetstackP9lua_Statei
ek:___syscall85
JT:__ZNSt3__212basic_stringIiNS_11char_traitsIiEENS_9allocatorIiEEE9__grow_byEjjjjjj
Qeb:___cxx_global_var_init_104_225
rzd:__ZNSt3__26locale5__imp7installINS_15numpunct_bynameIcEEEEvPT_
dk:___syscall83
pyb:_png_safe_error
vYb:_luaK_ret
K9c:__ZNSt3__211__libcpp_db16__invalidate_allEPv
T1:__ZN10MouseEvent5applyEP12EventVisitor
bWd:b4
cWd:b5
dWd:b6
eWd:b7
eEd:__ZNSt3__212basic_stringIcNS_11char_traitsIcEENS_9allocatorIcEEE14__erase_to_endEj
_Vd:b1
$Vd:b2
nvc:_cf2_hint_isPairTop
T0:__ZNKSt3__26vectorIPN9MovieClip5FrameENS_9allocatorIS3_EEE8max_sizeEv
gWd:b9
Rhb:__ZL16init_destinationP20jpeg_compress_struct
kdd:__ZNSt3__29basic_iosIwNS_11char_traitsIwEEE5imbueERKNS_6localeE
iXa:__ZN13GGAlertDialogD2Ev
UMd:__ZNSt3__212system_errorC2EiRKNS_14error_categoryEPKc
lJ:__ZNSt3__26vectorIhNS_9allocatorIhEEE6resizeEj
F5a:__ZN15GGAccelerometer4stopEv
tYa:__ZL5ishexc
JH:FUNCTION_TABLE_vidddd
Iea:__ZNSt3__214__split_bufferIPN12ShaderEngine7ScissorENS_9allocatorIS3_EEE10push_frontEOS3_
TB:_gnu_dev_major
Shc:_Vertical_Sweep_Step
Whb:_gimage_loadImage
YHb:_jpeg_idct_16x8
XOa:__ZN24b2TypedIntrusiveListNodeI16b2ParticleHandleE13GetNodeOffsetEP19b2IntrusiveListNode
kdc:_INT123_init_layer3_gainpow2
Bia:__ZNSt3__26vectorI8vector4fNS_9allocatorIS1_EEE8allocateEj
Ova:__ZN24b2TypedIntrusiveListNodeI14b2TrackedBlockEC2Ev
uJ:__ZNSt3__214__split_bufferINS_12basic_stringIcNS_11char_traitsIcEENS_9allocatorIcEEEERNS4_IS6_EEE18__construct_at_endEj
zcc:_mpg123_volume
dqc:_Ins_SFVTL
U9c:__ZNKSt3__211__libcpp_db22__less_than_comparableEPKvS2_
W1b:__ZL13luaB_tostringP9lua_State
ksa:__ZN10emscripten3valC2IRmEEOT_
Ibb:__ZN16PushEventVisitor5visitEP11LayoutEvent
cTd:runPostSets25
V9b:__ZN6snappy28STLStringResizeUninitializedEPNSt3__212basic_stringIcNS0_11char_traitsIcEENS0_9allocatorIcEEEEj
eTd:runPostSets27
dTd:runPostSets26
_Sd:runPostSets21
ZSd:runPostSets20
aTd:runPostSets23
$Sd:runPostSets22
cea:__ZN12ShaderEngineD0Ev
Fda:__ZN7Matrix2C2Effff
gTd:runPostSets29
fTd:runPostSets28
W8b:__ZN8pystring2os4path11splitext_ntERNSt3__212basic_stringIcNS2_11char_traitsIcEENS2_9allocatorIcEEEES9_RKS8_
j6a:__ZN10FontBinder8destructEP9lua_State
cMc:_cprojf
HEb:_png_do_write_transformations
hvb:_z_inflateSyncPoint
Dhc:_FT_Outline_Copy
u7b:__ZL11ll_registerP9lua_StatePKc
$ic:_tt_cmap8_get_info
obc:_INT123_open_bad
Rfd:__ZNSt3__213basic_istreamIwNS_11char_traitsIwEEErsERPv
BXb:_lua_pushnumber
x5b:__ZL8math_degP9lua_State
epa:__ZN12_GLOBAL__N_121GGStreamOpenALManager7ChannelD2Ev
zOb:__ZN6ClientD2Ev
ZPc:_posix_fallocate
Sba:__ZN6Sprite4setXEf
FBa:__ZN12b2BroadPhaseD2Ev
jYa:__ZN11GGUrlLoader3getEPKcP12ghttp_Header
F_c:_name_from_hosts
nCa:__ZNK13b2DynamicTree15ValidateMetricsEi
oVd:mftCall_vidddddddd
dOa:__ZN6b2Rope7SolveC3Ev
Ecb:__ZNK9EventTypeI21StageOrientationEventE4typeEv
APd:__ZN10__cxxabiv112_GLOBAL__N_12DbD2Ev
Bva:__ZN7b2ShapeD0Ev
Jfd:__ZNSt3__213basic_istreamIwNS_11char_traitsIwEEErsERj
hIb:_jpeg_idct_5x5
zW:__ZN11Application10touchesEndEP17ginput_TouchEvent
aqb:_gvfs_cleanup
lBc:_destroy_face
fbc:_frame_default_pars
Mnd:__ZNKSt3__217moneypunct_bynameIcLb0EE11do_groupingEv
_nc:_af_indic_metrics_scale
tu:_emscripten_set_deviceorientation_callback
MRa:__ZL12lz_read_lineP9lua_StateP9lz_stream
O4a:__ZN15MyQueryCallback13ReportFixtureEP9b2Fixture
m7b:__ZL14loader_preloadP9lua_State
uec:_INT123_synth_2to1_real_mono
aaa:__ZNSt3__214__split_bufferIPNS_4pairIP6SpritebEERNS_9allocatorIS5_EEE9push_backEOS5_
SNa:__ZN15b2WheelJointDef10InitializeEP6b2BodyS1_RK6b2Vec2S4_
Mod:__ZNKSt3__29money_getIwNS_19istreambuf_iteratorIwNS_11char_traitsIwEEEEE6do_getES4_S4_bRNS_8ios_baseERjRNS_12basic_stringIwS3_NS_9allocatorIwEEEE
UW:__ZNK11Application16getLogicalHeightEv
RJb:_fill_mem_input_buffer
fYb:__ZL7f_CcallP9lua_StatePv
Rs:_emscripten_glTexSubImage2D
Cla:__ZN20GGApplicationManager14removeCallbackEPFviPvS0_ES0_
ygd:__ZNSt3__213basic_ostreamIcNS_11char_traitsIcEEElsEl
ycc:_mpg123_volume_change
R5c:_tcgetattr
Cgd:__ZNSt3__213basic_ostreamIcNS_11char_traitsIcEEElsEf
Egd:__ZNSt3__213basic_ostreamIcNS_11char_traitsIcEEElsEe
Dgd:__ZNSt3__213basic_ostreamIcNS_11char_traitsIcEEElsEd
A0b:_luaL_argerror
O8a:__ZNK6Sprite9transformEv
Bgd:__ZNSt3__213basic_ostreamIcNS_11char_traitsIcEEElsEy
Agd:__ZNSt3__213basic_ostreamIcNS_11char_traitsIcEEElsEx
USb:___gl_pqSortDelete
HEa:__ZN16b2ParticleSystem16ReallocateBufferIiEEPT_PNS_21UserOverridableBufferIS1_EEiib
xCc:_Destroy_Module
ugd:__ZNSt3__213basic_ostreamIcNS_11char_traitsIcEEElsEs
z9:__ZN10GridInsetsC2Ev
o8c:__ZNSt3__26__sortIRNS_6__lessIyyEEPyEEvT0_S5_T_
Q3:__ZNKSt3__26__treeINS_12__value_typeIiN8TTBMFont12TextureGlyphEEENS_19__map_value_compareIiS4_NS_4lessIiEELb1EEENS_9allocatorIS4_EEE10__root_ptrEv
vgd:__ZNSt3__213basic_ostreamIcNS_11char_traitsIcEEElsEt
SKd:__ZNKSt3__212_GLOBAL__N_114initial_stringINS_12basic_stringIcNS_11char_traitsIcEENS_9allocatorIcEEEElLb0EEclEv
jab:__ZN11TimerBinder5startEP9lua_State
dFa:__ZN7b2World18SetContactListenerEP17b2ContactListener
eV:__ZL6getArgRKNSt3__212basic_stringIcNS_11char_traitsIcEENS_9allocatorIcEEEEPKcPi
WKd:__ZNSt3__212_GLOBAL__N_19as_stringINS_12basic_stringIcNS_11char_traitsIcEENS_9allocatorIcEEEEPFiPcjPKczEmEET_T0_SD_PKNSD_10value_typeET1_
st:_emscripten_glVertexAttrib4fv
I_c:_scopeof
xwd:__ZNKSt3__210moneypunctIwLb1EE13thousands_sepEv
qJa:__ZN16b2ParticleSystem16ConnectionFilterD0Ev
Sxc:_t2_hints_funcs_init
AO:__ZN20FT_Library_Singleton8instanceEv
aic:_DelOld
kId:__ZNSt3__212basic_stringIwNS_11char_traitsIwEENS_9allocatorIwEEE6assignESt16initializer_listIwE
Yya:__ZNK7b2Mat3315GetSymInverse33EPS_
ERd:__ZN10__cxxabiv112_GLOBAL__N_121parse_floating_numberIeNS0_2DbEEEPKcS4_S4_RT0_
dya:__Z7b2ClampIfET_S0_S0_S0_
kUd:_memmove
Gbd:__ZNSt3__213basic_istreamIwNS_11char_traitsIwEEED0Ev
jwd:__ZNKSt3__210moneypunctIcLb1EE10pos_formatEv
qOd:__ZNSt9exceptionD0Ev
nv:_emscripten_vr_display_connected
CBa:__ZN15b2DistanceProxyC2Ev
TIc:__ZN10emscripten8internal6TypeIDINS_11memory_viewImEEE3getEv
K5c:_cfgetispeed
bLc:_clogf
Iga:__ZNKSt3__26vectorIN13ShaderProgram12ConstantDescENS_9allocatorIS2_EEE8max_sizeEv
Jvc:_cf2_blues_init
L2a:__ZNSt3__214__split_bufferI6b2Vec2RNS_9allocatorIS1_EEED2Ev
lRc:_isalpha_l
_ra:_ghttp_onerror
T8c:__ZNSt12bad_any_castD0Ev
pdd:__ZNSt3__29basic_iosIwNS_11char_traitsIwEEE4moveEOS3_
Gfc:_INT123_getbits_256
ZT:__ZNSt3__26vectorIN8FontBase11ChunkLayoutENS_9allocatorIS2_EEE10deallocateEv
ZWa:__ZN17GGTextInputDialogD0Ev
ntd:__ZNKSt3__220__codecvt_utf8_utf16IwE6do_outER11__mbstate_tPKwS5_RS5_PcS7_RS7_
n9a:__ZN12MatrixBinder6getM22EP9lua_State
SNb:__ZNSt3__212__deque_baseIP12QueueElementNS_9allocatorIS2_EEE3endEv
jyb:_png_warning_parameter
Up:_emscripten_get_fullscreen_status
DFd:__ZNSt3__218__find_first_of_ceIPKcS2_PFbccEEET_S5_S5_T0_S6_T1_
sKd:__ZNSt3__212_GLOBAL__N_117as_integer_helperIyNS_12basic_stringIwNS_11char_traitsIwEENS_9allocatorIwEEEEPFyPKwPPwiEEET_RKNS2_IcNS3_IcEENS5_IcEEEERKT0_PjiT1_
uRd:__ZNKSt3__26vectorIN10__cxxabiv112_GLOBAL__N_111string_pairENS2_11short_allocIS3_Lj4096EEEE8max_sizeEv
xQb:__ZNK11CPVRTString12find_last_ofEPKcjj
Zxc:_psh_glyph_init
qRa:__ZL18crypto_aes_decryptP9lua_State
$Va:__ZN10MeshBinder15setGenericArrayEP9lua_State
H1:__ZN9MovieClip8getFrameEv
l3c:_pclose
gb:ftCall_vi
dCa:__ZN20b2SeparationFunctionC2Ev
Nwc:_remove_style
Mtb:_z_deflateEnd
Oud:__ZNKSt3__28time_getIcNS_19istreambuf_iteratorIcNS_11char_traitsIcEEEEE13get_monthnameES4_S4_RNS_8ios_baseERjP2tm
sIc:__ZN12_GLOBAL__N_1L16register_integerIjEEvPKc
lHc:_scan_module
sda:__ZNK7Matrix421inverseTransformPointEffPfS0_
GZ:__ZN13GridBagLayout16AdjustForGravityEP18GridBagConstraintsRNS_9RectangleE
uk:__embind_register_class_class_function
xMc:_crypt
Znb:__ZN14GGAudioManager15ChannelGetPitchEm
lX:__ZNSt3__26vectorINS_4pairINS_12basic_stringIcNS_11char_traitsIcEENS_9allocatorIcEEEEfEENS5_IS8_EEE8allocateEj
Sza:__ZNK12b2WheelJoint10GetAnchorAEv
wOa:__ZNSt3__213__rotate_leftIP6b2Vec2EET_S3_S3_
boc:_af_indic_hints_apply
Mub:_gf2_matrix_square
yHa:__ZltjRKN16b2ParticleSystem5ProxyE
D1b:__ZL11luaB_assertP9lua_State
Lod:__ZNKSt3__29money_getIwNS_19istreambuf_iteratorIwNS_11char_traitsIwEEEEE6do_getES4_S4_bRNS_8ios_baseERjRe
AFc:_mixer_on
H7:__ZNSt3__25dequeINS_4pairIP5TimeriEENS_9allocatorIS4_EEE19__add_back_capacityEv
BFc:_update_from_ord_info
bTb:___gl_pqHeapExtractMin
oX:__ZNK11Application14getImageSuffixEPf
jTc:_fdiml
Dr:_emscripten_glGenVertexArraysOES
tb:invoke_viddddddddd
TYb:__ZL5blockP8LexState
eBc:_FT_New_Face
Q2:__ZNSt3__214__split_bufferIN6TTFont8FontFaceERNS_9allocatorIS2_EEE18__construct_at_endEj
SLc:_cimag
hz:_glStencilMask
Epc:_tt_delta_shift
fAd:__ZNSt3__26locale5__imp12install_fromINS_7num_putIcNS_19ostreambuf_iteratorIcNS_11char_traitsIcEEEEEEEEvRKS1_
yyc:_psh_hint_overlap
zdd:__ZNSt3__215basic_streambufIcNS_11char_traitsIcEEE6sbumpcEv
VCa:__ZNK13b2DynamicTree10GetFatAABBEi
OUc:_log2f
ruc:_cf2_buf_readByte
vkc:_tt_face_load_post
xNd:__ZNSt3__218__hidden_allocatorIPNS_17__assoc_sub_stateEE8allocateEj
efa:__GLOBAL__sub_I_Shaders_cpp
Or:_emscripten_glGetIntegerv
hTc:_fdimf
RTb:_unz64local_DosDateToTmuDate
mPd:___cxa_bad_typeid
Cnd:__ZNKSt3__210moneypunctIwLb1EE14do_curr_symbolEv
z0b:_lua_isjit
vsb:___sfp
DHc:_xmp_set_instrument_path
enb:__ZN14GGSoundManager11ChannelStopEm
U3b:__ZL12Lutf8_offsetP9lua_State
D7a:__ZN12SpriteBinder4getYEP9lua_State
IOc:_iswspace
nCc:_FT_Sfnt_Table_Info
H3:__ZN3Dib8setAlphaEiih
dYc:_strrchr
DLc:___expo2
bWa:__ZN10MeshBinder16resizeIndexArrayEP9lua_State
vGa:__ZN7b2Mat227SetZeroEv
rUd:_rintf
Ahb:_gtimer_getCurrentCount
IB:_glutPositionWindow
Bbc:_bad_fullread
INd:__ZNKSt18bad_variant_access4whatEv
g2b:__ZL11db_getlocalP9lua_State
l8a:__ZN12SpriteBinder17setColorTransformEP9lua_State
dG:emscriptenWebGLComputeImageSize
RNb:__ZNSt3__212__deque_baseIP12QueueElementNS_9allocatorIS2_EEE5beginEv
GDc:_load_sample
OZc:_recvfrom
EOa:__ZNSt3__212__rotate_gcdIPfEET_S2_S2_S2_
w5b:__ZL8math_cosP9lua_State
avc:_cf2_hint_isLocked
Tsa:__ZNSt3__26__treeINS_12__value_typeIm12GHttpContextEENS_19__map_value_compareImS3_NS_4lessImEELb1EEENS_9allocatorIS3_EEE12__find_equalImEERPNS_16__tree_node_baseIPvEERPNS_15__tree_end_nodeISF_EERKT_
jQa:___cxx_global_var_init_210
J$b:_luaC_fullgc
z1b:__ZL7auxopenP9lua_StatePKcPFiS0_ES4_
j$:__ZL13easeInElasticddd
bZb:__ZL10primaryexpP8LexStateP7expdesc
FX:__ZN11Application9autounrefEP11GReferenced
W9a:__ZN12MatrixBinder12setRotationZEP9lua_State
IDb:_png_get_current_pass_number
R1:__ZN15EnterFrameEvent5applyEP12EventVisitor
cgb:__ZNSt3__212__deque_baseINS_12basic_stringIcNS_11char_traitsIcEENS_9allocatorIcEEEENS4_IS6_EEE5beginEv
$7b:__ZN8pystring5lowerERKNSt3__212basic_stringIcNS0_11char_traitsIcEENS0_9allocatorIcEEEE
g5:__ZN10Tesselator15BeginCallback_sEjPv
jeb:_remove_free_block
tpa:__ZNSt3__26__treeINS_12__value_typeImPN12_GLOBAL__N_121GGStreamOpenALManager7ChannelEEENS_19__map_value_compareImS6_NS_4lessImEELb1EEENS_9allocatorIS6_EEE16__construct_nodeIJRKNS_21piecewise_construct_tENS_5tupleIJRKmEEENSI_IJEEEEEENS_10unique_ptrINS_11__tree_nodeIS6_PvEENS_22__tree_node_destructorINSB_ISQ_EEEEEEDpOT_
RMb:_jpeg_calc_trans_dimensions
oEd:__ZNSt3__212basic_stringIcNS_11char_traitsIcEENS_9allocatorIcEEEixEj
hsb:___atexit_register_cleanup
uEc:_it_test
_sc:_TT_Set_Var_Design
ibb:__ZN12CppLuaBridge8luaEventEP8LuaEvent
RLc:_cexpl
qed:__ZNKSt3__215basic_streambufIwNS_11char_traitsIwEEE5pbaseEv
De:_SDL_GetCurrentAudioDriver
ER:__ZN6BitmapD2Ev
eX:__ZNKSt3__26vectorIN11Application10ImageScaleENS_9allocatorIS2_EEE8max_sizeEv
yl:__inet_ntop4_raw
UF:_waitid
_hd:__ZNSt3__211__stdoutbufIcE6xsputnEPKci
Lqa:__ZN21GGSampleOpenALManager4tickEPNS_7ChannelE
Vu:_emscripten_set_socket_connection_callback
Y5a:__ZN15TextFieldBinder9setLayoutEP9lua_State
Rbc:_INT123_frame_buffers
E1c:_fixup
ytc:_cff_get_interface
Xnd:__ZNKSt3__217moneypunct_bynameIcLb1EE11do_groupingEv
Xzc:_FT_Sin
Wu:_emscripten_set_socket_error_callback
GJd:__ZNKSt3__212basic_stringIwNS_11char_traitsIwEENS_9allocatorIwEEE12__invariantsEv
rfa:__ZN16ogl2ShaderBuffer10bindBufferEi
T7b:__ZN8pystring7isalnumERKNSt3__212basic_stringIcNS0_11char_traitsIcEENS0_9allocatorIcEEEE
znc:_af_sort_pos
b_a:__ZN17ApplicationBinder16configureFrustumEP9lua_State
_pd:__ZNKSt3__27codecvtIDsc11__mbstate_tE10do_unshiftERS1_PcS4_RS4_
C$a:__ZN12Box2DBinder232b2ParticleSystem_destroyParticleEP9lua_State
Xma:__ZN6ginput12InputManager11addCallbackEPFviPvS1_ES1_
uOb:__ZN6ServerD2Ev
jma:__ZNSt3__26__treeINS_12__value_typeIjNS_6vectorIP17ginput_TouchEventNS_9allocatorIS4_EEEEEENS_19__map_value_compareIjS8_NS_4lessIjEELb1EEENS5_IS8_EEE16__construct_nodeIJRKNS_21piecewise_construct_tENS_5tupleIJRKjEEENSJ_IJEEEEEENS_10unique_ptrINS_11__tree_nodeIS8_PvEENS_22__tree_node_destructorINS5_ISR_EEEEEEDpOT_
UOb:__ZNK10ByteBuffer4dataEv
Kpb:__ZL6s_openPKci
Xwa:__ZN12b2ClipVertexC2Ev
em:_alGenBuffers
gBb:_png_set_oFFs
Iec:_mpg123_getpar
$2c:_getc_unlocked
Ccd:__ZNKSt3__28ios_base6getlocEv
Nh:___cxa_thread_atexit
fS:__ZN15MyTexturePacker18getTextureLocationEiPiS0_S0_S0_
yob:_gaudio_Init
o$a:__ZNK14LuaApplication15getPhysicsScaleEv
Xzd:__ZNSt3__26locale5__imp12install_fromINS_10moneypunctIwLb0EEEEEvRKS1_
rPa:__ZZN16b2ParticleSystem33CreateParticlesWithShapesForGroupEPKPK7b2ShapeiRK18b2ParticleGroupDefRK11b2TransformENK14CompositeShape5CloneEP16b2BlockAllocator
fia:__ZL12quad_segmentPKdddPd
TOa:__ZNK10b2FreeList11GetFreeListEv
nOa:__ZNK16b2ParticleSystem24ExpirationTimeToLifetimeEi
fHd:__ZNSt3__212basic_stringIwNS_11char_traitsIwEENS_9allocatorIwEEE27__invalidate_iterators_pastEj
Uqb:_luaC_traceback
n7:__ZN14TimerContainer11removeTimerEP5Timer
t1a:__ZNK12b2WheelJoint20GetSpringFrequencyHzEv
yRc:_iswcntrl_l
SGc:_reset_envelopes
sib:__ZN9g_private14TextureManager13deleteTextureEm
kkd:__ZNSt3__214__num_put_base12__format_intEPcPKcbj
qxd:__ZNKSt3__28messagesIcE4openERKNS_12basic_stringIcNS_11char_traitsIcEENS_9allocatorIcEEEERKNS_6localeE
nRc:_iscntrl_l
Xpc:_Write_CVT
OQb:__ZplRK11CPVRTStringc
WX:__ZN9TextField7setFontEP8FontBase
end:__ZNKSt3__210moneypunctIcLb1EE16do_thousands_sepEv
NLc:_ccoshl
Jpb:_gvfs_setAssetsKey
gzd:__ZNSt3__214collate_bynameIcEC2ERKNS_12basic_stringIcNS_11char_traitsIcEENS_9allocatorIcEEEEj
_8b:__ZN6snappy21GetUncompressedLengthEPKcjPj
rKd:__ZNSt3__212_GLOBAL__N_110as_integerIyNS_12basic_stringIwNS_11char_traitsIwEENS_9allocatorIwEEEEEET_RKNS2_IcNS3_IcEENS5_IcEEEERKT0_Pji
gV:__ZNSt3__26__treeINS_12__value_typeINS_4pairIiiEEiEENS_19__map_value_compareIS3_S4_NS_4lessIS3_EELb1EEENS_9allocatorIS4_EEE25__emplace_unique_key_argsIS3_JRKNS_21piecewise_construct_tENS_5tupleIJOS3_EEENSG_IJEEEEEENS2_INS_15__tree_iteratorIS4_PNS_11__tree_nodeIS4_PvEEiEEbEERKT_DpOT0_
GLc:_ccoshf
Qxb:_png_gamma_correct
$6c:_ualarm
v8:__ZNSt3__214__split_bufferIcRNS_9allocatorIcEEED2Ev
hu:_emscripten_run_script
_Id:__ZNKSt3__212basic_stringIwNS_11char_traitsIwEENS_9allocatorIwEEE5rfindENS_17basic_string_viewIwS2_EEj
$fd:__ZNSt3__213basic_istreamIwNS_11char_traitsIwEEE6ignoreEij
PM:__ZN10BitmapDataD2Ev
PYc:___mremap
vJa:__ZNK16b2ParticleSystem14GetFlagsBufferEv
ae:_SDL_CreateMutex
VW:__ZN11Application14setImageScalesERKNSt3__26vectorINS0_4pairINS0_12basic_stringIcNS0_11char_traitsIcEENS0_9allocatorIcEEEEfEENS6_IS9_EEEE
I3b:__ZL5LidivP9lua_State
Yec:_stream_back_bytes
sqc:_Ins_RTG
yaa:__ZNSt3__214__split_bufferIPPK6SpriteRNS_9allocatorIS4_EEE10push_frontERKS4_
Mmc:_af_glyph_hints_scale_dim
G3b:__ZL4LsubP9lua_State
X_b:__ZL8funcnameP8LexStateP7expdesc
sFc:_virt_pastnote
b:HEAP16
Wuc:_cf2_hintmap_isValid
DUb:__ZL12correctstackP9lua_StateP10lua_TValue
Vbd:__ZNSt3__214basic_iostreamIcNS_11char_traitsIcEEED0Ev
eda:__ZNK9Transform9rotationZEv
rLa:__ZNSt3__26__sortIRN12_GLOBAL__N_124ExpirationTimeComparatorEPiEEvT0_S5_T_
Vhd:__ZNSt3__211char_traitsIwE7not_eofEj
Oh:___cxa_thread_atexit_impl
fYd:b61
aMb:_jpeg_gen_optimal_table
uza:__ZN13b2PulleyJoint4DumpEv
$db:_block_set_size
FE:_raise
YD:_pthread_getspecific
FEd:__ZNSt3__212basic_stringIcNS_11char_traitsIcEENS_9allocatorIcEEE5frontEv
Iaa:__ZNSt3__26vectorIP6SpriteNS_9allocatorIS2_EEE26__swap_out_circular_bufferERNS_14__split_bufferIS2_RS4_EEPS2_
J4a:__ZN17b2RayCastCallbackD0Ev
Tkb:__ZNSt3__214__split_bufferIN19gevent_CallbackList8CallbackERNS_9allocatorIS2_EEED2Ev
VLc:_clogl
sId:__ZNSt3__212basic_stringIwNS_11char_traitsIwEENS_9allocatorIwEEE6insertENS_11__wrap_iterIPKwEEjw
Ehb:_gimage_parsePng
IEa:__ZN16b2ParticleSystem16ReallocateBufferI6b2Vec2EEPT_PNS_21UserOverridableBufferIS2_EEiib
YZc:___fopen_rb_ca
mja:__ZN6Path2D13getPathBoundsEibbPfS0_S0_S0_
YO:__ZNSt3__26__treeINS_12__value_typeINS_12basic_stringIcNS_11char_traitsIcEENS_9allocatorIcEEEEiEENS_19__map_value_compareIS7_S8_NS_4lessIS7_EELb1EEENS5_IS8_EEE12__find_equalIS7_EERPNS_16__tree_node_baseIPvEERPNS_15__tree_end_nodeISJ_EERKT_
dSc:_textdomain
lAd:__ZNSt3__26locale5__imp12install_fromINS_8messagesIcEEEEvRKS1_
PLc:_cexp
WLc:_conj
ana:_ginputp_mouseDown
MIc:__ZN12_GLOBAL__N_1L20register_memory_viewIeEEvPKc
ZZa:__ZN17ApplicationBinder13getApiVersionEP9lua_State
BLb:_compress_data
IZ:__ZN13GridBagLayout9RectangleC2Ev
mza:__ZN11b2GearJointD0Ev
R9a:__ZN12MatrixBinder9getScaleYEP9lua_State
Wsa:__ZNKSt3__26__treeINS_12__value_typeIm12GHttpContextEENS_19__map_value_compareImS3_NS_4lessImEELb1EEENS_9allocatorIS3_EEE10__root_ptrEv
f$b:_luaF_newproto
xpc:_FT_GlyphLoader_Prepare
tn:_alcGetContextsDevice
DF:_utime
Nld:__ZNKSt3__28time_getIwNS_19istreambuf_iteratorIwNS_11char_traitsIwEEEEE12__get_secondERiRS4_S4_RjRKNS_5ctypeIwEE
rj:___syscall3
uXa:__ZN11GGGyroscopeC2Ev
H8a:__ZN6Sprite11ShaderParamaSERKS0_
p$b:_luaG_checkcode
Cca:__ZN6Sprite3getEPKcP7GStatus
eta:__ZN10emscripten8internal9SignatureIiJNS_3valES2_RS2_NS_11memory_viewIhEES2_S2_iiiEE18init_method_callerEv
feb:_block_set_prev_free
an:_alSourceRewindv
Nbb:__ZN16PushEventVisitor16getOrCreateTouchEP12ginput_Touchffff
oXc:_issetugid
Djd:__ZNKSt3__27num_getIwNS_19istreambuf_iteratorIwNS_11char_traitsIwEEEEE6do_getES4_S4_RNS_8ios_baseERjRm
Phd:__ZNSt3__211__stdoutbufIwED2Ev
J:Math_acos
tKa:__ZNSt3__29remove_ifIP21b2ParticleBodyContact36b2ParticleBodyContactRemovePredicateEET_S4_S4_T0_
Gjd:__ZNKSt3__27num_getIwNS_19istreambuf_iteratorIwNS_11char_traitsIwEEEEE6do_getES4_S4_RNS_8ios_baseERjRd
BSa:__ZNSt3__214__split_bufferIPN14LuaApplication12AsyncLuaTaskERNS_9allocatorIS3_EEEC2EjjS6_
E_c:_name_from_numeric
Ajd:__ZNKSt3__27num_getIwNS_19istreambuf_iteratorIwNS_11char_traitsIwEEEEE6do_getES4_S4_RNS_8ios_baseERjRx
Ejd:__ZNKSt3__27num_getIwNS_19istreambuf_iteratorIwNS_11char_traitsIwEEEEE6do_getES4_S4_RNS_8ios_baseERjRy
jFc:_check_dct
wsa:__ZN10emscripten8internal11BindingTypeINS_3valEE10toWireTypeERKS2_
$mc:_af_latin_hints_compute_edges
JWd:_emscripten_set_mousemove_callback__wrapper
J0a:__ZThn508_N11b2DebugDraw10DrawCircleERK6b2Vec2fRK7b2Color
noa:__ZN12_GLOBAL__N_121GGStreamOpenALManager16ChannelSetPausedEmb
uxd:__ZNKSt3__28messagesIwE4openERKNS_12basic_stringIcNS_11char_traitsIcEENS_9allocatorIcEEEERKNS_6localeE
Bjd:__ZNKSt3__27num_getIwNS_19istreambuf_iteratorIwNS_11char_traitsIwEEEEE6do_getES4_S4_RNS_8ios_baseERjRt
ZIa:__ZNSt3__216__insertion_sortIRPFbRKN16b2ParticleSystem4PairES4_EPS2_EEvT0_S9_T_
tgd:__ZNSt3__213basic_ostreamIcNS_11char_traitsIcEEElsEb
$Qa:__ZN3Rnd7MT1993710InitializeEj
HKa:__ZZN16b2ParticleSystem18UpdateBodyContactsEvEN26UpdateBodyContactsCallback13ShouldCollideEP9b2Fixturei
AAa:__ZN16b2StackAllocator4FreeEPv
M3:__ZNSt3__26__treeINS_12__value_typeIiN8TTBMFont12TextureGlyphEEENS_19__map_value_compareIiS4_NS_4lessIiEELb1EEENS_9allocatorIS4_EEE25__emplace_unique_key_argsIiJRKNS_21piecewise_construct_tENS_5tupleIJRKiEEENSG_IJEEEEEENS_4pairINS_15__tree_iteratorIS4_PNS_11__tree_nodeIS4_PvEEiEEbEERKT_DpOT0_
KZ:__ZN17GridBagLayoutInfoaSEOS_
z2:__ZN6TTFont9getBoundsEPKifPiS2_S2_S2_
wYc:_connect
l$a:__ZN12Box2DBinder219getFrictionJointDefEP9lua_State
xBd:__ZNSt3__221recursive_timed_mutex6unlockEv
Ujc:_tt_face_lookup_table
lXd:__emval_decref__wrapper
Ea:ftCall_iii
wva:__ZN16b2BlockAllocator8AllocateEi
zv:_emscripten_vr_set_display_render_loop_arg
foc:_af_loader_done
GBd:__ZdaPv
CRa:__ZL14lzstream_flushP9lua_State
xya:__ZN15b2FrictionJoint23InitVelocityConstraintsERK12b2SolverData
iua:_ggeolocation_removeCallbackWithGid
RMa:__ZNK16b2PrismaticJoint19GetJointTranslationEv
iPc:_wctrans
EVb:_luaG_typeerror
Idd:__ZNSt3__215basic_streambufIcNS_11char_traitsIcEEEaSERKS3_
lr:_emscripten_glDrawElementsInstancedANGLE
HMb:_rgb_rgb1_convert
gad:__ZNKSt3__223__future_error_category7messageEi
XRa:__ZN3Rnd7MT19937L5TwistEv
sia:__ZL13init_merger4fP8merger4f
YAa:__ZNK6b2Stat7GetMeanEv
ISb:_CheckForIntersect
GQb:__ZN11CPVRTString7toLowerEv
Wfc:_mpg123_replace_reader_handle
Fud:__ZNKSt3__27num_putIwNS_19ostreambuf_iteratorIwNS_11char_traitsIwEEEEE3putES4_RNS_8ios_baseEwd
Qd:_SDL_AudioDriverName
Re:_SDL_GetWindowFlags
zIb:_start_pass_dcolor
Qwd:__ZNSt3__217moneypunct_bynameIcLb1EEC2ERKNS_12basic_stringIcNS_11char_traitsIcEENS_9allocatorIcEEEEj
Gud:__ZNKSt3__27num_putIwNS_19ostreambuf_iteratorIwNS_11char_traitsIwEEEEE3putES4_RNS_8ios_baseEwe
u5:__ZN10Tesselator11EndCallbackEv
Fvc:_cf2_getPpemY
nsd:__ZNKSt3__215__codecvt_utf16IwLb0EE13do_max_lengthEv
Nid:__ZNKSt3__27num_getIcNS_19istreambuf_iteratorIcNS_11char_traitsIcEEEEE6do_getES4_S4_RNS_8ios_baseERjRPv
dMb:_emit_byte
t3b:_luaopen_utf8
rNc:_wcrtomb
Zma:__ZN6ginput12InputManager14removeCallbackEPFviPvS1_ES1_
N3b:__ZL4LshlP9lua_State
Bic:_tt_cmap0_char_index
eYb:_lua_cpcall
fI:FUNCTION_TABLE_viiidddiiddi
wGa:__ZN8b2IslandC2EiiiP16b2StackAllocatorP17b2ContactListener
NGb:_jinit_color_deconverter
ZV:__ZN11Application8initViewEv
blc:_tt_sbit_decoder_load_compound
gsa:__ZN10emscripten3val6objectEv
BT:__ZNSt3__212basic_stringIiNS_11char_traitsIiEENS_9allocatorIiEEED2Ev
xda:__ZN7Matrix411getCofactorEfffffffff
mOc:___isgraph_l
Bud:__ZNKSt3__27num_putIwNS_19ostreambuf_iteratorIwNS_11char_traitsIwEEEEE3putES4_RNS_8ios_baseEwl
Lid:__ZNKSt3__27num_getIcNS_19istreambuf_iteratorIcNS_11char_traitsIcEEEEE6do_getES4_S4_RNS_8ios_baseERjRd
Oic:_tt_cmap4_validate
QY:__ZN6Screen10getMaxSizeERiS0_
ZVd:b0
wm:_alGetListener3f
TLa:__ZNK16b2ParticleSystem14GetColorBufferEv
YRb:_EmptyCache
a_a:__ZN17ApplicationBinder20getDeviceOrientationEP9lua_State
xm:_alGetListener3i
Ixa:__ZN12b2MouseJoint23InitVelocityConstraintsERK12b2SolverData
isd:__ZNKSt3__215__codecvt_utf16IwLb0EE5do_inER11__mbstate_tPKcS5_RS5_PwS7_RS7_
jLd:__ZNSt3__212_GLOBAL__N_19as_stringINS_12basic_stringIcNS_11char_traitsIcEENS_9allocatorIcEEEEPFiPcjPKczEeEET_T0_SD_PKNSD_10value_typeET1_
Vic:_tt_cmap6_char_next
O0:__ZNSt3__26__treeINS_12__value_typeIP6SpriteiEENS_19__map_value_compareIS3_S4_NS_4lessIS3_EELb1EEENS_9allocatorIS4_EEE12__find_equalIS3_EERPNS_16__tree_node_baseIPvEERPNS_15__tree_end_nodeISG_EERKT_
Wvb:_z_gztell
Ec:ftCall_viiiiiiiiii
QI:__ZN9Particles14removeParticleEi
M2a:__ZN12Box2DBinder215b2EdgeShape_setEP9lua_State
c2b:__ZL8db_debugP9lua_State
Yjb:__ZN9g_private14TextureManager17SaveRenderTargetsEv
r4c:_strtod_l
Mib:__ZNSt3__26__treeINS_12__value_typeImPN9g_private19RenderTargetElementEEENS_19__map_value_compareImS5_NS_4lessImEELb1EEENS_9allocatorIS5_EEE4findImEENS_15__tree_iteratorIS5_PNS_11__tree_nodeIS5_PvEEiEERKT_
hWa:__ZN10MeshBinder27clearTextureCoordinateArrayEP9lua_State
mob:__ZN14GGAudioManager26BackgroundChannelSetPausedEmb
_Qc:_iconv_open
gJb:_start_pass_1_quant
Zja:__ZN12NetworkEventC2Ev
_Zb:__ZL16discharge2anyregP9FuncStateP7expdesc
CMc:___crypt_sha512
yKa:__ZNSt3__27__sort4IRPFbRK21b2ParticleBodyContactS3_EPS1_EEjT0_S8_S8_S8_T_
WM:__ZN10BitmapData9getRegionEPiS0_S0_S0_S0_S0_S0_S0_
J_b:__ZL7codenotP9FuncStateP7expdesc
hCb:_png_set_swap_alpha
Txc:_t2_hints_open
Wkd:__ZNKSt3__28time_getIcNS_19istreambuf_iteratorIcNS_11char_traitsIcEEEEE9__get_dayERiRS4_S4_RjRKNS_5ctypeIcEE
Qaa:__ZN6Sprite11removeChildEiP7GStatus
Oma:_ginputp_keyChar
Nqd:__ZNKSt3__212ctype_bynameIwE5do_isEtw
ICd:__ZNSt3__215__refstring_imp12_GLOBAL__N_113rep_from_dataEPKc
vKd:__ZNSt3__212_GLOBAL__N_115as_float_helperIfNS_12basic_stringIcNS_11char_traitsIcEENS_9allocatorIcEEEEPFfPKcPPcEEET_RKS7_RKT0_PjT1_
j6c:_getgroups
V7c:__ZNSt3__27__sort5IRNS_6__lessIjjEEPjEEjT0_S5_S5_S5_S5_T_
Wea:__ZNSt3__25stackIN12ShaderEngine12DepthStencilENS_5dequeIS2_NS_9allocatorIS2_EEEEED2Ev
MNa:__ZNK13b2PulleyJoint8GetRatioEv
n_b:__ZL8recfieldP8LexStateP11ConsControl
Cya:__ZNK15b2RevoluteJoint16GetReactionForceEf
$wc:_cff_index_get_pointers
MTc:_hypotl
Ucc:_store_id3_text
D4b:__ZL15end_captureUTF8P14MatchStateUTF8PKcS2_
M0a:__ZThn508_N11b2DebugDraw11DrawSegmentERK6b2Vec2S2_RK7b2Color
BAd:__ZNSt3__26locale6globalERKS0_
RAc:_ft_hash_num_insert
aWd:b3
y4b:__ZL9matchUTF8P14MatchStateUTF8PKcS2_
F7a:__ZN12SpriteBinder11getRotationEP9lua_State
mfc:_bc_alloc
Mrd:__ZNKSt3__214__codecvt_utf8IwE16do_always_noconvEv
uIb:_fullsize_upsample
Taa:__ZNK6Sprite13globalToLocalEfffPfS0_S0_
HJd:__ZNKSt3__212basic_stringIwNS_11char_traitsIwEENS_9allocatorIwEEE19__get_short_pointerEv
VUd:mftCall_iii
H5c:_mkstemps
Knc:_af_cjk_hints_compute_blue_edges
mNd:__ZNSt3__214__split_bufferINS_4pairIPNS_18condition_variableEPNS_5mutexEEERNS_18__hidden_allocatorIS6_EEEC2EjjS9_
Dhb:__ZL15getTypeFromPathPKc
gva:__ZN6b2Vec2C2Eff
wP:__ZNKSt3__26__treeINS_12__value_typeINS_12basic_stringIcNS_11char_traitsIcEENS_9allocatorIcEEEEiEENS_19__map_value_compareIS7_S8_NS_4lessIS7_EELb1EEENS5_IS8_EEE13__lower_boundIS7_EENS_21__tree_const_iteratorIS8_PNS_11__tree_nodeIS8_PvEEiEERKT_SK_PNS_15__tree_end_nodeIPNS_16__tree_node_baseISI_EEEE
k$b:__ZL7LoadIntP9LoadState
imd:__ZNKSt3__218__time_get_storageIcE15__do_date_orderEv
j8b:__ZN8pystring5indexERKNSt3__212basic_stringIcNS0_11char_traitsIcEENS0_9allocatorIcEEEES8_ii
YXd:___cxa_throw__wrapper
lab:__ZN11TimerBinder5resetEP9lua_State
OBd:__ZdlPvSt11align_val_tRKSt9nothrow_t
_oc:_tt_loader_set_pp
d_a:__ZN17ApplicationBinder13setFullScreenEP9lua_State
fU:__ZNSt3__26vectorIiNS_9allocatorIiEEE8__appendEj
kMb:_arith_encode
tbb:__ZNK4SlotI12CppLuaBridge8LuaEventE6objectEv
Adc:_INT123_check_decoders
pvb:_z_gzprintf
cxc:_CFF_Load_FD_Select
Krb:___swrite
Aa:ftCall_ii
Tmc:_FT_DivFix
ya:ftCall_id
aec:_INT123_synth_1to1_real_m2s
yea:__ZNSt3__25dequeIN12ShaderEngine7ScissorENS_9allocatorIS2_EEE8pop_backEv
Ysa:__ZN10emscripten11memory_viewIhEC2EjPKh
x0b:_lua_getprintfuncdata
IZa:__ZN17ApplicationBinder16getLogicalScaleXEP9lua_State
j0c:_freelist
lU:__ZNSt3__26__treeINS_12__value_typeIiN4Font12TextureGlyphEEENS_19__map_value_compareIiS4_NS_4lessIiEELb1EEENS_9allocatorIS4_EEED2Ev
knd:__ZNKSt3__210moneypunctIcLb1EE13do_pos_formatEv
wta:__ZN8UiDialogC2Ev
ep:_emscripten_async_run_script
UYb:__ZL11check_matchP8LexStateiii
IZb:_luaK_setreturns
DNa:__ZN12b2MotorJoint15SetLinearOffsetERK6b2Vec2
ir:_emscripten_glDrawBuffersEXT
Dq:_emscripten_glClearStencil
jva:__Z5b2MaxRK6b2Vec2S1_
PHd:__ZNSt3__212basic_stringIwNS_11char_traitsIwEENS_9allocatorIwEEEpLERKS5_
Mhb:__ZL13read_png_dataP14png_struct_defPhj
VGc:_process_fx
XJb:_transdecode_master_selection
ind:__ZNKSt3__210moneypunctIcLb1EE16do_negative_signEv
Vfc:_mpg123_replace_reader
_xc:_psh_globals_set_scale
Zf:_SDL_SetVideoMode
Qrd:__ZNKSt3__214__codecvt_utf8IDsE6do_outER11__mbstate_tPKDsS5_RS5_PcS7_RS7_
tac:_INT123_dct64
Qta:_gui_setInputType
x7b:__ZL16pushnexttemplateP9lua_StatePKc
ova:__ZN6b2Vec29NormalizeEv
S5c:_tcgetsid
Iua:_serverSendData
U7:__ZNSt3__24moveINS_4pairIP5TimeriEEPS4_RS4_PS5_iLi0ES4_S5_S6_S7_iLi0EEENS_16__deque_iteratorIT5_T6_T7_T8_T9_XT10_EEENS8_IT_T0_T1_T2_T3_XT4_EEESK_SE_
obb:__ZN4SlotI12CppLuaBridge8LuaEventEeqERKS2_
Bnc:_af_sort_and_quantize_widths
hha:__ZN16ogl2ShaderEngine17resizeFramebufferEii
LU:__ZNSt3__211char_traitsIcE11to_int_typeEc
C6a:__ZNK11Application19getClearColorBufferEv
qwd:__ZNKSt3__210moneypunctIwLb0EE13positive_signEv
Zw:_glCheckFramebufferStatus
Rwc:_cff_cmap_encoding_char_next
Qg:_TTF_SizeUTF8
tGc:_update_lfo
O8:__ZN5Stage28setSpritesWithListenersDirtyEv
gHb:_dummy_consume_data
bka:__ZN14NetworkManager4stopEv
Ww:_glBlendFuncSeparate
z8c:__ZNSt3__227__insertion_sort_incompleteIRNS_6__lessIffEEPfEEbT0_S5_T_
OSb:_CallCombine
Em:_alGetSource3i
b1a:__ZN11b2WeldJoint15SetDampingRatioEf
hjc:_tt_cmap12_validate
mnb:__ZN14GGSoundManager15ChannelIsPausedEm
UKb:_write_file_header
Mza:__ZNK15b2DistanceJoint17GetReactionTorqueEf
YY:__GLOBAL__sub_I_screen_cpp
Ixb:_png_pow10
kza:__ZNK11b2GearJoint17GetReactionTorqueEf
XWa:__ZN17GGTextInputDialog8callbackEiPv
Z5a:__ZL14populateLayoutP9lua_StateiPN8FontBase20TextLayoutParametersE
v0:__ZN8SlotBaseC2Ev
rtb:__ZNSt3__26__treeINS_12__value_typeIi5DriveEENS_19__map_value_compareIiS3_NS_4lessIiEELb1EEENS_9allocatorIS3_EEE4findIiEENS_15__tree_iteratorIS3_PNS_11__tree_nodeIS3_PvEEiEERKT_
Z9a:__ZN12MatrixBinder9setScaleXEP9lua_State
qqb:__ZNK11GReferenced5proxyEv
nec:_INT123_synth_ntom_s32_m2s
w4c:_wcstox
UTd:_i64Subtract
Jxc:_ps_hinter_done
Xfd:__ZNSt3__213basic_istreamIwNS_11char_traitsIwEEE3getERNS_15basic_streambufIwS2_EE
pZ:__ZN17GridBagLayoutInfoD2Ev
_ob:_gaudio_BackgroundMusicPlay
op:_emscripten_atomic_store_u64
uA:_glfwGetMouseButton
Jac:_rate2num
yz:_glUniform2iv
Rva:__ZN14b2PolygonShapeD0Ev
Wsb:_g_getc_unlocked
c0a:__ZN12Box2DBinder223b2Contact_resetFrictionEP9lua_State
N9a:__ZN12MatrixBinder12getRotationZEP9lua_State
Uid:__ZNKSt3__26locale5__imp9use_facetEl
Fxc:_ps_check_extra_glyph_unicode
PDd:__ZNSt3__212basic_stringIcNS_11char_traitsIcEENS_9allocatorIcEEE3endEv
qda:__ZN7Vector4C2Effff
VL:__ZNSt3__23mapIi14GStatusElementNS_4lessIiEENS_9allocatorINS_4pairIKiS1_EEEEEixEOi
kN:__ZN12GraphicsBase8setColorEffff
Xxb:_png_calloc
pNc:_frexpl
bGc:_smix_stereo_8bit_linear
$Xb:_lua_call
LTc:_frexpf
l8c:__ZNSt3__27__sort5IRNS_6__lessIxxEEPxEEjT0_S5_S5_S5_S5_T_
n7a:__ZN12SpriteBinder11numChildrenEP9lua_State
TSc:_erfc2_253
M4b:__ZL15match_classUTF8jj
whc:_ft_outline_glyph_prepare
u5a:__ZN20EventContactListener21dispatchEventParticleERK9EventTypeI5EventEP16b2ParticleSystemP9b2Fixturei
$Pc:_fetestexcept
mad:__ZNSt3__217__assoc_sub_state9__executeEv
gE:_pthread_mutexattr_setschedparam
AP:__ZL8rotationfPA2_f
bxd:__ZNKSt3__29money_getIcNS_19istreambuf_iteratorIcNS_11char_traitsIcEEEEE3getES4_S4_bRNS_8ios_baseERjRe
ojb:_gtexture_getInternalTexture
w8a:__ZN12SpriteBinder14clearBlendModeEP9lua_State
bh:__Unwind_FindEnclosingFunction
nia:__ZL9fill_pathjiN12ShaderEngine12DepthStencilEPK7Matrix4
K2c:_vfwprintf
y0c:_tre_compute_nfl
mU:__ZNSt3__26__treeINS_12__value_typeIiN4Font12TextureGlyphEEENS_19__map_value_compareIiS4_NS_4lessIiEELb1EEENS_9allocatorIS4_EEE7destroyEPNS_11__tree_nodeIS4_PvEE
cqc:_Ins_SPVTL
Kgb:__ZNSt3__26__treeINS_12__value_typeIdNS_6vectorIiNS_9allocatorIiEEEEEENS_19__map_value_compareIdS6_NS_4lessIdEELb1EEENS3_IS6_EEEC2ERKSA_
u$a:__ZN15b2WheelJointDefC2Ev
uwc:_cff_index_read_offset
olc:_FT_Get_Module_Interface
l6a:__ZN14FontBaseBinderC2EP9lua_State
Onb:__ZN14GGAudioManager9SoundPlayEmb
LZb:__ZL8getunopri
Ocd:__ZNSt3__28ios_base4swapERS0_
Myd:__ZNSt3__26locale5__imp7installINS_8time_putIwNS_19ostreambuf_iteratorIwNS_11char_traitsIwEEEEEEEEvPT_
yYc:__vsyslog
ajd:__ZNSt3__29__num_getIcE19__stage2_float_loopEcRbRcPcRS4_ccRKNS_12basic_stringIcNS_11char_traitsIcEENS_9allocatorIcEEEEPjRSE_RjS4_
sd:_Mix_OpenAudio
$S:__ZN8FontBase11ChunkLayoutaSERKS0_
R_:__ZL14easeOutInQuintd
Nya:__ZNK11b2WeldJoint17GetReactionTorqueEf
t$:__ZL13easeInOutBackdd
i$a:__ZN12Box2DBinder215getGearJointDefEP9lua_State
HW:__ZN11Application10resolutionEPiS0_
uja:_prFreePath
AUb:_luaD_reallocstack
Eq:_emscripten_glColorMask
AT:__ZNSt3__212basic_stringIiNS_11char_traitsIiEENS_9allocatorIiEEE6resizeEji
wRb:_RenderStrip
SF:_wait3
gub:_send_all_trees
fTb:___gl_vertLeq
Gp:_emscripten_exit_soft_fullscreen
mR:__ZN5GMesh16resizeIndexArrayEj
Wx:_glFramebufferTexture2D
t6:__ZNSt3__26__treeINS_12__value_typeIiNS_6vectorIP8SlotBaseNS_9allocatorIS4_EEEEEENS_19__map_value_compareIiS8_NS_4lessIiEELb1EEENS5_IS8_EEEC2ERKSC_
Mfb:_XorWithIv
BFd:__ZNKSt3__212basic_stringIcNS_11char_traitsIcEENS_9allocatorIcEEE5rfindEcj
XXb:_lua_rawseti
RHd:__ZNSt3__212basic_stringIwNS_11char_traitsIwEENS_9allocatorIwEEE6appendERKS5_
eYc:___memrchr
pG:genericPointerToWireType
rsd:__ZNSt3__215__codecvt_utf16IwLb1EED0Ev
C1c:___fstatfs
K3c:_wstring_read
Ot:_emscripten_idb_load
X1b:__ZL9luaB_typeP9lua_State
Xdb:_tlsf_pool_overhead
r9a:__ZN12MatrixBinder6setM11EP9lua_State
Qvc:_cff_parser_init
wl:__formatString
I8:__ZN6Sprite13childrenDrawnEv
YSc:_exp10
dbb:__ZNK9EventTypeI8LuaEventE4typeEv
zmc:_af_glyph_hints_save
NBb:_png_init_palette_transformations
Z3:__ZN8TTBMFontC2EP11ApplicationNSt3__26vectorIN8FontBase8FontSpecENS2_9allocatorIS5_EEEEfPKcfP7GStatus
$X:__ZNK9TextField9textColorEv
mbd:__ZNSt3__215basic_streambufIwNS_11char_traitsIwEEE7seekoffExNS_8ios_base7seekdirEj
As:_emscripten_glReleaseShaderCompiler
iL:__ZNSt3__212__deque_baseIP6SpriteNS_9allocatorIS2_EEED2Ev
XZ:__ZN9MovieClip8getFieldEi9Parameter
vb:invoke_vidddddddddddd
FGb:_finish_output_pass
Ztb:_deflate_fast
Qdd:__ZNKSt3__215basic_streambufIcNS_11char_traitsIcEEE4pptrEv
Dba:__ZNSt3__214__split_bufferIP7Matrix4RNS_9allocatorIS2_EEE10push_frontERKS2_
l4:__ZN5ShapeD2Ev
XSa:__ZNK6Binder11getInstanceEPKci
gmb:__ZNSt3__26__treeINS_12__value_typeINS_12basic_stringIcNS_11char_traitsIcEENS_9allocatorIcEEEE13GGAudioLoaderEENS_19__map_value_compareIS7_S9_NS_4lessIS7_EELb1EEENS5_IS9_EEEC2ERKSD_
n3a:__ZN12Box2DBinder214b2Body_setTypeEP9lua_State
yhb:__ZNSt3__26__treeINS_12__value_typeIdNS_6vectorIiNS_9allocatorIiEEEEEENS_19__map_value_compareIdS6_NS_4lessIdEELb1EEENS3_IS6_EEE5eraseENS_21__tree_const_iteratorIS6_PNS_11__tree_nodeIS6_PvEEiEE
Cod:__ZNSt3__212__do_nothingEPv
nAc:_FT_Stroker_EndSubPath
eM:__ZN7GStatusC2Eiz
Hea:__ZNSt3__214__split_bufferIPN12ShaderEngine7ScissorENS_9allocatorIS3_EEE9push_backEOS3_
$I:__ZNSt3__213__vector_baseItNS_9allocatorItEEED2Ev
Vw:_glBlendFunc
$pd:__ZNKSt3__27codecvtIDsc11__mbstate_tE11do_encodingEv
Jub:_z_get_crc_table
Z_b:__ZL4condP8LexState
mBd:__ZNSt3__215recursive_mutex6unlockEv
sQb:__ZNK11CPVRTString16find_last_not_ofEPKcj
WMc:_pad_62
Sva:__ZNK14b2PolygonShape5CloneEP16b2BlockAllocator
xmc:_af_dummy_hints_apply
GVa:__ZNSt3__26vectorIcNS_9allocatorIcEEEC2ERKS3_
O5c:_tcdrain
ipc:_FT_GlyphLoader_CheckPoints
Rta:_gui_getInputType
hE:_pthread_mutexattr_settype
$Eb:_png_set_compression_window_bits
alc:_tt_sbit_decoder_load_bitmap
iKc:___stdio_close
EMa:__ZN6b2Body16SetFixedRotationEb
hnd:__ZNKSt3__210moneypunctIcLb1EE16do_positive_signEv
CEa:__ZN16b2ParticleSystem13RequestBufferIfEEPT_S2_
IO:__ZNSt3__26__treeINS_12__value_typeINS_12basic_stringIcNS_11char_traitsIcEENS_9allocatorIcEEEEiEENS_19__map_value_compareIS7_S8_NS_4lessIS7_EELb1EEENS5_IS8_EEE7destroyEPNS_11__tree_nodeIS8_PvEE
ZFa:__ZNK6b2Body7GetTypeEv
Ie:_SDL_GetModState
m$a:__ZN12Box2DBinder215getRopeJointDefEP9lua_State
$tb:_fill_window
MGd:__ZNSt3__212basic_stringIwNS_11char_traitsIwEENS_9allocatorIwEEEC2ENS_17basic_string_viewIwS2_EE
Gzc:_FT_Stroker_Rewind
Qya:__ZN11b2WeldJoint23InitVelocityConstraintsERK12b2SolverData
tpb:_gaudio_WavRead
L9b:__ZNK6snappy17SnappyArrayWriter11CheckLengthEv
hBa:__ZN9b2SimplexC2Ev
Ugd:__ZNKSt3__213basic_ostreamIwNS_11char_traitsIwEEE6sentrycvbEv
dpc:_ft_list_get_node_at
O3c:_tmpnam
iP:__ZNK3Dib6heightEv
YOa:__ZN15b2SlabAllocatorI16b2ParticleHandleE4SlabC2Ej
vld:__ZNKSt3__220__time_get_c_storageIwE3__rEv
VXc:_hasmntopt
UO:__ZNSt3__214__split_bufferIN11TexturePack4RectERNS_9allocatorIS2_EEEC2EjjS5_
qtb:_gpath_getDrivePath
wsc:__iup_worker_interpolate
HZ:__ZN13GridBagLayout11ArrangeGridEP6Sprite
D5:___cxx_global_var_init_1_239
Gaa:__ZNSt3__26vectorIP6SpriteNS_9allocatorIS2_EEE12__move_rangeEPS2_S6_S6_
H2b:__ZL10pushresultP9lua_StateiPKc
$5a:__ZN12TTFontBinder6createEP9lua_State
veb:_block_can_split
QW:__ZN11Application20setLogicalDimensionsEii
V9c:__ZNSt3__211__libcpp_db4swapEPvS1_
rxc:_cff_ps_has_glyph_names
TJd:__ZNSt3__212_GLOBAL__N_129throw_from_string_invalid_argERKNS_12basic_stringIcNS_11char_traitsIcEENS_9allocatorIcEEEE
KRc:___pthread_self_192
A4c:_wcstoull
rca:__ZN9Transform7setRefXEf
iDd:__ZNSt3__212basic_stringIcNS_11char_traitsIcEENS_9allocatorIcEEE6__initEjc
T$:__ZNSt3__214__split_bufferIN9MovieClip5FrameERNS_9allocatorIS2_EEED2Ev
XP:__ZN7TileMapC2EP11ApplicationiiP11TextureBaseiiiiiiii
BRc:_iswgraph_l
wVc:_remquol
X$:__ZNSt3__26vectorI9ParameterNS_9allocatorIS1_EEE18__construct_at_endIPS1_EENS_9enable_ifIXsr21__is_forward_iteratorIT_EE5valueEvE4typeES8_S8_j
E3:__ZN8TTBMFont8addGlyphEi
bvd:__ZNSt3__215__time_get_tempIcEC2EPKc
QTb:_unz64local_GetCurrentFileInfoInternal
SYb:__ZL9whilestatP8LexStatei
rfb:__ZN6GProxyD2Ev
XBb:_png_set_interlace_handling
$ga:__ZN16ogl2ShaderEngine5resetEb
Po:_eglWaitGL
D2c:_freopen
mUa:__ZN8Viewport10getContentEv
qS:__ZNKSt3__26vectorI8RectSizeNS_9allocatorIS1_EEE8max_sizeEv
_t:_emscripten_pause_main_loop
OW:__ZNKSt3__26vectorIP15EventDispatcherNS_9allocatorIS2_EEE8max_sizeEv
tVc:_remquof
jga:__ZNSt3__26__treeIP20gl2ShaderBufferCacheNS_4lessIS2_EENS_9allocatorIS2_EEE13__lower_boundIS2_EENS_15__tree_iteratorIS2_PNS_11__tree_nodeIS2_PvEEiEERKT_SD_PNS_15__tree_end_nodeIPNS_16__tree_node_baseISB_EEEE
Wwd:__ZNSt3__212__rotate_gcdINS_11__wrap_iterIPwEEEET_S4_S4_S4_
PNb:__ZNSt3__212__deque_baseIP12QueueElementNS_9allocatorIS2_EEE5clearEv
Yrb:_g_vfscanf
fZ:__ZN6Screen5clearEjf
c2a:__ZN12Box2DBinder231b2PrismaticJoint_isMotorEnabledEP9lua_State
QFa:__ZN16b2ParticleSystem9SetRadiusEf
rm:_alGetError
iYd:_glGetShaderPrecisionFormat__wrapper
d6b:__ZL7str_subP9lua_State
Y1:__ZN11TTTextField7setFontEP8FontBase
Ytc:_cf2_getScaleAndHintFlag
Ddb:_tlsf_check
oed:__ZNSt3__215basic_streambufIwNS_11char_traitsIwEEE5gbumpEi
Z4:__ZL20createSolidLineStripfffffRKNSt3__26vectorI6Point2IfENS_9allocatorIS2_EEEER12GraphicsBase
pLa:__ZNK16b2ParticleSystem23GetQuantizedTimeElapsedEv
lmc:_gray_set_cell
N3:__ZNSt3__26__treeINS_12__value_typeIiN8TTBMFont12TextureGlyphEEENS_19__map_value_compareIiS4_NS_4lessIiEELb1EEENS_9allocatorIS4_EEE12__find_equalIiEERPNS_16__tree_node_baseIPvEERPNS_15__tree_end_nodeISG_EERKT_
R2b:__ZL10io_tmpfileP9lua_State
pId:__ZNSt3__212basic_stringIwNS_11char_traitsIwEENS_9allocatorIwEEE6insertEjPKw
Mbd:__ZTv0_n12_NSt3__213basic_ostreamIcNS_11char_traitsIcEEED1Ev
mGa:__ZN15b2ContactSolver24SolvePositionConstraintsEv
jnd:__ZNKSt3__210moneypunctIcLb1EE14do_frac_digitsEv
hMb:_encode_mcu_AC_refine
gDc:_ft_set_default_properties
IPb:__ZN21CPVRTMemoryFileSystem11GetNumFilesEv
vR:__ZNK5GMesh29getTextureCoordinateArraySizeEv
T3c:_wscanf
Msc:_Current_Ratio
Twd:__ZNSt3__2L10__init_patIwEEvRNS_10money_base7patternERNS_12basic_stringIT_NS_11char_traitsIS5_EENS_9allocatorIS5_EEEEbcccS5_
$p:_emscripten_get_num_gamepads
uK:__GLOBAL__sub_I_stage_cpp
qza:__ZNK13b2PulleyJoint10GetAnchorAEv
Ubc:_INT123_frame_fill_toc
gZc:___pthread_self_441
eca:__ZN6Sprite18setGreenMultiplierEf
xGb:_default_decompress_parms
eea:__ZN12ShaderEngine10getDefaultENS_15StandardProgramE
Hkc:_tt_face_load_sbit
j8c:__ZNSt3__27__sort3IRNS_6__lessIxxEEPxEEjT0_S5_S5_T_
Fvd:__ZNKSt3__28time_putIcNS_19ostreambuf_iteratorIcNS_11char_traitsIcEEEEE3putES4_RNS_8ios_baseEcPK2tmcc
qxa:__ZN12b2EPCollider24ComputePolygonSeparationEv
YEb:_png_set_compression_level
SRa:__ZL13lz_read_charsP9lua_StateP9lz_streamj
aYb:_lua_pcall
eGd:__ZNKSt3__212basic_stringIcNS_11char_traitsIcEENS_9allocatorIcEEE12__invariantsEv
tm:_alGetFloatv
KP:__ZNK8Matrix2D21inverseTransformPointEffPfS0_
fOc:_isascii
Sc:RegisteredPointer
qC:_llvm_fabs_f32
x1c:_mkfifo
vod:__ZNKSt3__217moneypunct_bynameIwLb1EE14do_frac_digitsEv
Oxb:_png_gamma_8bit_correct
Cyb:_png_get_y_pixels_per_meter
RAb:_png_handle_hIST
hib:_gtexture_get_spritefactory
Xm:_alSourcePausev
_Aa:__ZNK6b2Stat6GetMaxEv
sTb:_call_ztell64
Vvb:_z_gztell64
YTd:___muldsi3
$Ic:__ZN10emscripten8internal6TypeIDINS_11memory_viewItEEE3getEv
Z3b:__ZL13Lutf8_reverseP9lua_State
rfc:_bc_skip
J7:__ZNSt3__214__split_bufferIPNS_4pairIP5TimeriEERNS_9allocatorIS5_EEE18__construct_at_endINS_13move_iteratorIPS5_EEEENS_9enable_ifIXsr21__is_forward_iteratorIT_EE5valueEvE4typeESF_SF_
tQb:__ZNK11CPVRTString16find_last_not_ofEPKcjj
g6a:__ZN8FontBase8FontSpecC2EOS0_
ZAa:__ZNK6b2Stat6GetMinEv
Tla:__ZNSt3__213__vector_baseIP15ginput_KeyEventNS_9allocatorIS2_EEED2Ev
qrb:_g_registerForegroundCallback
Uec:_generic_head_read
Wod:__ZNSt3__211__money_putIcE13__gather_infoEbbRKNS_6localeERNS_10money_base7patternERcS8_RNS_12basic_stringIcNS_11char_traitsIcEENS_9allocatorIcEEEESF_SF_Ri
gN:__ZN12SplashScreenD2Ev
J2b:__ZL8io_closeP9lua_State
iW:__ZNK11Application16getHardwareWidthEv
YPb:__ZNK11CPVRTString7compareEPKc
Aoa:__ZN12_GLOBAL__N_121GGStreamOpenALManager14ChannelIsValidEm
$a:invoke_iiiiiiiiiiiii
mba:__ZNSt3__214__split_bufferIP9_cliprectRNS_9allocatorIS2_EEEC2EjjS5_
z1a:__ZN12Box2DBinder222b2MouseJoint_setTargetEP9lua_State
zMa:__ZN12b2FixtureDefC2Ev
sZb:_luaK_numberK
HGa:__ZN16b2ParticleSystem7GetNextEv
hPd:__ZNK10__cxxabiv122__base_class_type_info16search_below_dstEPNS_19__dynamic_cast_infoEPKvib
zwa:__ZN13b2CircleShapeaSERKS_
bua:_ggeolocation_setThreshold
mld:__ZNKSt3__28time_getIwNS_19istreambuf_iteratorIwNS_11char_traitsIwEEEEE11do_get_dateES4_S4_RNS_8ios_baseERjP2tm
s2b:__ZL10auxupvalueP9lua_Statei
dh:__Unwind_RaiseException
I0b:_luaL_newmetatable
lFd:__ZNSt3__212basic_stringIcNS_11char_traitsIcEENS_9allocatorIcEEE7replaceENS_11__wrap_iterIPKcEES9_St16initializer_listIcE
SZ:__ZN9MovieClipD2Ev
wkd:__ZNSt3__216__pad_and_outputIwNS_11char_traitsIwEEEENS_19ostreambuf_iteratorIT_T0_EES6_PKS4_S8_S8_RNS_8ios_baseES4_
OM:__ZN7Vector3C2Ev
YFc:_smix_mono_16bit_spline_filter
yld:__ZNSt3__211char_traitsIwE6lengthEPKw
_qc:_Ins_WS
uha:__ZNSt3__219basic_ostringstreamIcNS_11char_traitsIcEENS_9allocatorIcEEED1Ev
W5a:__ZN15TextFieldBinder9setSampleEP9lua_State
Kzb:_png_push_read_sig
ara:__ZNSt3__26__treeINS_12__value_typeImPN21GGSampleOpenALManager5SoundEEENS_19__map_value_compareImS5_NS_4lessImEELb1EEENS_9allocatorIS5_EEE13__lower_boundImEENS_15__tree_iteratorIS5_PNS_11__tree_nodeIS5_PvEEiEERKT_SI_PNS_15__tree_end_nodeIPNS_16__tree_node_baseISG_EEEE
Ff:_SDL_PauseAudio
vU:__ZNSt3__26__treeINS_12__value_typeINS_4pairIiiEEiEENS_19__map_value_compareIS3_S4_NS_4lessIS3_EELb1EEENS_9allocatorIS4_EEE5clearEv
$Jc:_malloc_trim
Ivb:_z_uncompress
QB:_glutTimerFunc
P3c:_vprintf
SHb:_jpeg_idct_4x2
Mh:___cxa_rethrow_primary_exception
fga:__ZNSt3__26__treeIP20gl2ShaderBufferCacheNS_4lessIS2_EENS_9allocatorIS2_EEED2Ev
ts:_emscripten_glLinkProgram
dO:__ZNK12SplashScreen10isFinishedEv
MHb:_jpeg_idct_4x8
Zl:_alDeleteBuffers
a:HEAP8
jd:_Mix_HaltChannel
Tac:_enc2num
fSa:__ZNSt3__23mapINS_12basic_stringIcNS_11char_traitsIcEENS_9allocatorIcEEEEdNS_4lessIS6_EENS4_INS_4pairIKS6_dEEEEED2Ev
_jc:_FT_Stream_Pos
HGc:_read_event_st3
X8b:__ZN8pystring2os4path14splitext_posixERNSt3__212basic_stringIcNS2_11char_traitsIcEENS2_9allocatorIcEEEES9_RKS8_
a9b:__ZN6snappy8internal13WorkingMemory12GetHashTableEjPi
YMd:__ZNSt3__26thread4joinEv
Oq:_emscripten_glDeleteFramebuffers
jOc:___iscntrl_l
T2a:__ZN12Box2DBinder223b2Fixture_SetFilterDataEP9lua_State
Fzd:__ZNSt3__215numpunct_bynameIcE6__initEPKc
wBc:_raccess_guess_apple_single
zva:__ZN7b2ShapeaSERKS_
jmc:_gray_split_cubic
ovc:_cf2_hintmap_map
m9b:__ZN6snappy12LittleEndian7Store16EPvt
Rda:__ZN7Matrix46rotateEfRK7Vector3
Dpd:__ZNSt3__214codecvt_bynameIcc11__mbstate_tED0Ev
ZW:__ZNSt3__26__sortIRNS_6__lessIN11Application10ImageScaleES3_EEPS3_EEvT0_S7_T_
nFd:__ZNKSt3__212basic_stringIcNS_11char_traitsIcEENS_9allocatorIcEEE4copyEPcjj
T0c:_tre_purge_regset
Oea:__ZNSt3__212__deque_baseIN12ShaderEngine12DepthStencilENS_9allocatorIS2_EEE3endEv
N9:__ZNK14ColorTransform14blueMultiplierEv
zPa:__ZN16b2ParticleSystem19CreateParticleGroupERK18b2ParticleGroupDef
sDd:__ZNSt3__212basic_stringIcNS_11char_traitsIcEENS_9allocatorIcEEED2Ev
BEc:_xlat_fx_135
Gbb:__ZN16PushEventVisitor5visitEP13KeyboardEvent
pRa:__ZL18crypto_aes_encryptP9lua_State
Qkc:_FT_Stream_GetULong
rjb:__ZN9g_private14TextureManager11setUserDataEmPv
xFc:_period_to_bend
C$c:___dns_get_rr
Ty:_glLineWidth
B2:__ZNSt3__213__vector_baseIN6TTFont8FontFaceENS_9allocatorIS2_EEED2Ev
M5b:__ZL9math_sinhP9lua_State
Mrc:_Ins_S45ROUND
VFd:__ZNKSt3__212basic_stringIcNS_11char_traitsIcEENS_9allocatorIcEEE16find_last_not_ofEPKcj
Kic:_tt_cmap2_get_subheader
ASb:_FinishLeftRegions
PEc:_anticlick
Wjd:__ZNSt3__214__scan_keywordINS_19istreambuf_iteratorIwNS_11char_traitsIwEEEEPKNS_12basic_stringIwS3_NS_9allocatorIwEEEENS_5ctypeIwEEEET0_RT_SE_SD_SD_RKT1_Rjb
NH:FUNCTION_TABLE_vidddddddddddd
zub:_z_compressBound
GNc:_sha256_update
wjb:__ZN9g_private14TextureManager17setCachingEnabledEi
jV:__ZNSt3__26__treeINS_12__value_typeINS_4pairIiiEEiEENS_19__map_value_compareIS3_S4_NS_4lessIS3_EELb1EEENS_9allocatorIS4_EEE16__insert_node_atEPNS_15__tree_end_nodeIPNS_16__tree_node_baseIPvEEEERSG_SG_
EQ:__Z11glMultColorffff
hmc:_gray_render_cubic
qnd:__ZNKSt3__210moneypunctIwLb0EE11do_groupingEv
GF:_uuid_compare
wOc:_iswalpha
Vr:_emscripten_glGetQueryivEXT
ixd:__ZNSt3__211__money_putIcEC2Ev
hLa:__ZNSt3__29remove_ifIP21b2ParticleBodyContactPFbRKS1_EEET_S7_S7_T0_
uv:_emscripten_vr_get_frame_data
Mlc:_inflate_trees_dynamic
WVb:_luaH_getnum
zjd:__ZNKSt3__27num_getIwNS_19istreambuf_iteratorIwNS_11char_traitsIwEEEEE6do_getES4_S4_RNS_8ios_baseERjRl
WTb:_unzClose
Azd:__ZNSt3__26locale5__imp7installINS_15time_put_bynameIcNS_19ostreambuf_iteratorIcNS_11char_traitsIcEEEEEEEEvPT_
ONa:__ZNK13b2PulleyJoint17GetCurrentLengthBEv
K5:__ZNSt3__214__split_bufferIP9BlendFuncRNS_9allocatorIS2_EEE18__construct_at_endINS_13move_iteratorIPS2_EEEENS_9enable_ifIXsr21__is_forward_iteratorIT_EE5valueEvE4typeESC_SC_
yca:__ZN9Transform12setRotationZEf
$ad:__ZNSt3__215basic_streambufIcNS_11char_traitsIcEEE7seekposENS_4fposI11__mbstate_tEEj
zN:__ZN3DibD2Ev
W9b:__ZN6snappy15string_as_arrayEPNSt3__212basic_stringIcNS0_11char_traitsIcEENS0_9allocatorIcEEEE
ls:_emscripten_glIsFramebuffer
fub:_compress_block
Sgb:__ZNSt3__26__treeINS_12__value_typeIiN9g_private12TimerManager12TimerElementEEENS_19__map_value_compareIiS5_NS_4lessIiEELb1EEENS_9allocatorIS5_EEE7destroyEPNS_11__tree_nodeIS5_PvEE
Exa:__ZN12b2MouseJoint4DumpEv
wGc:_get_lfo_mod
K5b:__ZL11math_randomP9lua_State
Uma:_ginput_setMouseTouchOrder
lFb:_png_image_write_main
FFc:_next_order
tia:__ZL7merge4fP8merger4fPK8vector4fPti
wOd:__ZNKSt11logic_error4whatEv
C_b:__ZL13insert_stringP8LexStatePKc
pRb:___gl_noBeginData
PPd:__ZN10__cxxabiv112_GLOBAL__N_116parse_dot_suffixINS0_2DbEEEPKcS4_S4_RT_
$t:_emscripten_print_double
KN:__ZNSt3__26vectorI6Point2IfENS_9allocatorIS2_EEE6assignIPS2_EENS_9enable_ifIXaasr21__is_forward_iteratorIT_EE5valuesr16is_constructibleIS2_NS_15iterator_traitsIS9_E9referenceEEE5valueEvE4typeES9_S9_
wn:_alcGetError
mYa:__ZN11GGUrlLoader14deleteResourceEPKcP12ghttp_Header
ZGd:__ZNSt3__212basic_stringIwNS_11char_traitsIwEENS_9allocatorIwEEE7reserveEj
W2:__ZNKSt3__26vectorIN8FontBase8FontSpecENS_9allocatorIS2_EEE8max_sizeEv
x$:__ZL12easeInBouncedd
hxa:__ZN15b2CircleContact8EvaluateEP10b2ManifoldRK11b2TransformS4_
gha:__ZN16ogl2ShaderEngine11setViewportEiiii
VGd:__ZNSt3__211char_traitsIwE4moveEPwPKwj
myc:_psh_hint_table_deactivate
vKb:_jpeg_fdct_14x7
Ezd:__ZNSt3__215numpunct_bynameIwE6__initEPKc
z0:__ZNK4SlotI9MovieClip15EnterFrameEventE2t2Ev
t5b:__ZL9math_atanP9lua_State
$Hd:__ZNSt3__212basic_stringIwNS_11char_traitsIwEENS_9allocatorIwEEE10__set_sizeEj
SEc:_mixer_numvoices
v9:__ZNSt3__26__treeINS_12__value_typeINS_12basic_stringIcNS_11char_traitsIcEENS_9allocatorIcEEEEN6Sprite11ShaderParamEEENS_19__map_value_compareIS7_SA_NS_4lessIS7_EELb1EEENS5_ISA_EEE5clearEv
$Fd:__ZNKSt3__212basic_stringIcNS_11char_traitsIcEENS_9allocatorIcEEE7compareEjjRKS5_
ncd:__ZNKSt3__29basic_iosIcNS_11char_traitsIcEEE4goodEv
tYb:__ZL10close_funcP8LexState
KCb:_translate_gamma_flags
cYb:_luaD_pcall
DPa:__ZZN16b2ParticleSystem18JoinParticleGroupsEP15b2ParticleGroupS1_EN24JoinParticleGroupsFilterD0Ev
eia:__ZL18inverse_arc_lengthddddddd
nkd:__ZNSt3__27num_putIwNS_19ostreambuf_iteratorIwNS_11char_traitsIwEEEEED0Ev
cRc:_iconv
jRa:__ZN14LuaApplication15Core_randomSeedEP9lua_State
VQ:__ZNSt3__26vectorIN5GMesh5ColorENS_9allocatorIS2_EEE18__construct_at_endEj
YQc:_freelocale
tIb:_noop_upsample
_a:ftCall_iiiiiiiiiiii
CWd:_pthread_cond_wait__wrapper
h5a:__ZN21b2DestructionListenerD0Ev
Qmb:__ZNSt3__26__treeINS_12__value_typeINS_12basic_stringIcNS_11char_traitsIcEENS_9allocatorIcEEEE13GGAudioLoaderEENS_19__map_value_compareIS7_S9_NS_4lessIS7_EELb1EEENS5_IS9_EEE13__lower_boundIS7_EENS_15__tree_iteratorIS9_PNS_11__tree_nodeIS9_PvEEiEERKT_SL_PNS_15__tree_end_nodeIPNS_16__tree_node_baseISJ_EEEE
VTc:_common_285
Mdb:_offset_to_block
nqa:__ZN21GGSampleOpenALManager17ChannelSetLoopingEmb
uCb:_png_image_begin_read_from_memory
htd:__ZNKSt3__215__codecvt_utf16IDiLb1EE10do_unshiftER11__mbstate_tPcS4_RS4_
Nqc:_Ins_MDAP
ZQ:__ZNSt3__26vectorIN5GMesh5ColorENS_9allocatorIS2_EEE26__swap_out_circular_bufferERNS_14__split_bufferIS2_RS4_EE
m4c:_llabs
JHc:_xmp_test_module
jqd:__ZNSt3__26locale5__impD0Ev
Y4:__ZL20createTexturePolygonP11TextureBaseRK7Matrix4RKNSt3__26vectorINS5_I6Point2IfENS4_9allocatorIS7_EEEENS8_ISA_EEEEbR12GraphicsBase
sha:__ZNSt3__23mapINS_12basic_stringIcNS_11char_traitsIcEENS_9allocatorIcEEEES6_NS_4lessIS6_EENS4_INS_4pairIKS6_S6_EEEEEixEOS6_
bOb:__ZL8getErrorv
pr:_emscripten_glEnable
Ew:_getpwnam
Jdb:_tlsf_fls
aPd:__ZNK10__cxxabiv116__enum_type_info9can_catchEPKNS_16__shim_type_infoERPv
$ec:_stream_rewind
gH:FUNCTION_TABLE_diid
GGd:__ZNSt3__212basic_stringIwNS_11char_traitsIwEENS_9allocatorIwEEE6__initEjw
jH:FUNCTION_TABLE_diii
Zv:_exit
Fmb:__ZNSt3__26__treeINS_12__value_typeImPN14GGSoundManager5SoundEEENS_19__map_value_compareImS5_NS_4lessImEELb1EEENS_9allocatorIS5_EEE13__lower_boundImEENS_15__tree_iteratorIS5_PNS_11__tree_nodeIS5_PvEEiEERKT_SI_PNS_15__tree_end_nodeIPNS_16__tree_node_baseISG_EEEE
Eba:__ZNK6Sprite11localBoundsEPfS0_S0_S0_b
yjd:__ZNKSt3__27num_getIwNS_19istreambuf_iteratorIwNS_11char_traitsIwEEEEE6do_getES4_S4_RNS_8ios_baseERjRb
$qd:__ZNSt3__28numpunctIcED0Ev
Czb:_png_malloc_array
zXb:_lua_topointer
pFd:__ZNSt3__212basic_stringIcNS_11char_traitsIcEENS_9allocatorIcEEE4swapERS5_
c5a:__ZN19DestructionListenerD0Ev
m5c:_wcscasecmp
m5a:__ZN20EventContactListener12BeginContactEP16b2ParticleSystemP21b2ParticleBodyContact
kdb:__ZN14LuaApplication11renderSceneEi
TFd:__ZNKSt3__212basic_stringIcNS_11char_traitsIcEENS_9allocatorIcEEE16find_last_not_ofENS_17basic_string_viewIcS2_EEj
WFa:__ZN7b2World16SetAllowSleepingEb
uzb:_png_get_compression_buffer_size
$Db:_png_write_chunk_end
Lga:__ZNSt3__214__split_bufferIN13ShaderProgram12ConstantDescERNS_9allocatorIS2_EEED2Ev
NFc:_downmix_int_8bit
_ib:__ZN9g_privateL9pixelSizeEii
EW:__ZN11Application20setDeviceOrientationE11Orientation
bcc:_buffy_del
BQc:_bindtextdomain
iuc:_cf2_arrstack_init
_Ga:__ZN16b2ParticleSystem19SolveStaticPressureERK10b2TimeStep
Kqb:__ZNSt3__26vectorIPcNS_9allocatorIS1_EEE21__push_back_slow_pathIRKS1_EEvOT_
qTa:__ZN15ParticlesBinder14setParticleTagEP9lua_State
L1c:___xmknod
pOb:__ZNK12QueueElement2idEv
FTc:___DOUBLE_BITS_271
uQc:___DOUBLE_BITS_273
Eab:__ZN4SlotI13TimerListener10TimerEventEC2EPS0_MS0_FvPS1_E
w9a:__ZN12MatrixBinder5setTyEP9lua_State
njd:__ZNKSt3__27num_getIcNS_19istreambuf_iteratorIcNS_11char_traitsIcEEEEE17__do_get_unsignedIjEES4_S4_S4_RNS_8ios_baseERjRT_
GGa:__ZN16b2ParticleSystem5SolveERK10b2TimeStep
yyd:__ZNSt3__26locale5__imp7installINS_9money_getIcNS_19istreambuf_iteratorIcNS_11char_traitsIcEEEEEEEEvPT_
xx:_glDepthRange
k7a:__ZN12SpriteBinder10addChildAtEP9lua_State
IWd:_emscripten_set_mouseup_callback__wrapper
lwc:_cf2_builder_lineTo
Lq:_emscripten_glCreateShader
QNa:__ZNK11b2RopeJoint13GetLimitStateEv
UNb:__ZN11NetworkBase7cleanupEv
Kba:__ZNK6Sprite5alphaEv
Xpd:__ZNSt3__214codecvt_bynameIDsc11__mbstate_tED0Ev
f2c:_getline
HWb:__ZL14unbound_searchP5Tablej
dwa:__ZN6b2Vec27SetZeroEv
ljb:_gtexture_update
vWa:__ZNSt3__26vectorIjNS_9allocatorIjEEE8__appendEj
f1c:_regexec
W6a:__ZNSt3__213__vector_baseIPKcNS_9allocatorIS2_EEED2Ev
wS:__ZNSt3__26vectorI8RectSizeNS_9allocatorIS1_EEE18__construct_at_endEj
C7c:__ZNSt3__27__sort4IRNS_6__lessIssEEPsEEjT0_S5_S5_S5_T_
h3a:__ZN12Box2DBinder225b2Body_ApplyLinearImpulseEP9lua_State
OOb:__ZN10ByteBuffer6appendEj
ho:_ctime
GSb:_WalkDirtyRegions
dJ:__ZN6TickerC2Ev
aUa:__ZN14ViewportBinder6createEP9lua_State
hn:_alSourceiv
XKa:__ZNSt3__27__sort5IRPFbRKN12_GLOBAL__N_115LightweightPairIP9b2FixtureiEES7_EPS5_EEjT0_SC_SC_SC_SC_T_
KUc:_log10f
D7b:__ZN8pystring6rsplitERKNSt3__212basic_stringIcNS0_11char_traitsIcEENS0_9allocatorIcEEEERNS0_6vectorIS6_NS4_IS6_EEEES8_i
Egc:_INT123_feed_set_pos
Egb:__ZN9g_private9StopWatch5clockEv
QNb:__ZNSt3__214__split_bufferIPP12QueueElementNS_9allocatorIS3_EEED2Ev
Bdd:__ZNSt3__215basic_streambufIcNS_11char_traitsIcEEE5sgetnEPci
Lza:__ZNK15b2DistanceJoint16GetReactionForceEf
And:__ZNKSt3__210moneypunctIwLb1EE16do_thousands_sepEv
rCa:__ZN13b2DynamicTree15RebuildBottomUpEv
d3a:__ZN12Box2DBinder220b2Body_CreateFixtureEP9lua_State
juc:_cf2_hintmask_init
xIc:__ZN10emscripten8internal6TypeIDINSt3__212basic_stringIcNS2_11char_traitsIcEENS2_9allocatorIcEEEEE3getEv
hma:__ZNSt3__26__treeINS_12__value_typeIjNS_6vectorIP17ginput_TouchEventNS_9allocatorIS4_EEEEEENS_19__map_value_compareIjS8_NS_4lessIjEELb1EEENS5_IS8_EEE25__emplace_unique_key_argsIjJRKNS_21piecewise_construct_tENS_5tupleIJRKjEEENSJ_IJEEEEEENS_4pairINS_15__tree_iteratorIS8_PNS_11__tree_nodeIS8_PvEEiEEbEERKT_DpOT0_
tV:__ZNSt3__26vectorIhNS_9allocatorIhEEE8__appendEjRKh
Aod:__ZNKSt3__29money_getIcNS_19istreambuf_iteratorIcNS_11char_traitsIcEEEEE6do_getES4_S4_bRNS_8ios_baseERjRe
l6:__ZN15EventDispatcher12removeSourceEPS_
oO:__ZN12GBitmapArray8setAlphaEif
$Nb:__ZN12QueueElement4sendEi
AA:_glfwGetTime
Uic:_tt_cmap6_char_index
hAd:__ZNSt3__26locale5__imp12install_fromINS_8time_getIcNS_19istreambuf_iteratorIcNS_11char_traitsIcEEEEEEEEvRKS1_
plb:__ZNSt3__29remove_ifINS_16__deque_iteratorIN6gevent12EventManager17EventQueueElementEPS4_RS4_PS5_iLi0EEENS3_10equal_typeIS4_EEEET_SB_SB_T0_
AMa:__ZN6b2Body14DestroyFixtureEP9b2Fixture
VWc:_ftrylockfile
v:inf
rF:_system
Nsb:_g_setvbuf
Vlb:__ZN19gevent_CallbackList21removeCallbackWithGidEm
vN:__ZL18createGraphicsBaseP11TextureDataii
G5b:__ZL8math_minP9lua_State
aja:__ZL5angledddd
w_:__ZL13easeOutBounced
b9c:__ZNSt3__218condition_variable10notify_allEv
o5:__ZNSt3__26vectorIPdNS_9allocatorIS1_EEE21__push_back_slow_pathIRKS1_EEvOT_
QFb:_get_dac
zJ:__ZNKSt3__26vectorItNS_9allocatorItEEE8max_sizeEv
ihc:_ft_bitmap_glyph_copy
ajc:_tt_cmap10_char_index
BHc:_format_list
DCb:_png_set_add_alpha
TRb:_internal_gluTessProperty
aAb:_png_do_expand_palette
KHc:_hio_open
c9a:__ZNK6Sprite5clipYEv
DKc:_strtoll_l
xsa:__ZN10emscripten8internal20writeGenericWireTypeINS0_7_EM_VALEEEvRPNS0_15GenericWireTypeEPT_
lB:_glfwWaitThread
SC:_llvm_sin_f32
Cjd:__ZNKSt3__27num_getIwNS_19istreambuf_iteratorIwNS_11char_traitsIwEEEEE6do_getES4_S4_RNS_8ios_baseERjS8_
XDb:_png_write_chunk
zud:__ZNSt3__27num_putIwNS_19ostreambuf_iteratorIwNS_11char_traitsIwEEEEEC2Ej
C0c:_tre_make_trans
OTd:runPostSets63
mDb:_png_set_cHRM_XYZ
PP:__ZN8Matrix2D7setTypeEv
PTd:runPostSets64
STd:runPostSets67
RTd:runPostSets66
zZc:_endhostent
AMd:__ZNKSt3__224__generic_error_category7messageEi
iqc:_Ins_SFVTPV
CV:__ZNSt3__26vectorItNS_9allocatorItEEEC2Ej
K8a:__ZNSt3__26__treeINS_12__value_typeINS_12basic_stringIcNS_11char_traitsIcEENS_9allocatorIcEEEEN6Sprite11ShaderParamEEENS_19__map_value_compareIS7_SA_NS_4lessIS7_EELb1EEENS5_ISA_EEE16__construct_nodeIJRKNS_21piecewise_construct_tENS_5tupleIJRKS7_EEENSL_IJEEEEEENS_10unique_ptrINS_11__tree_nodeISA_PvEENS_22__tree_node_destructorINS5_IST_EEEEEEDpOT_
Rw:_glBindVertexArrayOES
tfa:__ZN16ogl2ShaderBufferC2EP13ShaderTexture
FTa:__ZN11PixelBinder9setHeightEP9lua_State
Vtc:_cff_index_forget_element
Zub:_z_inflateInit_
D_c:_name_from_null
Frd:__ZNSt3__216__narrow_to_utf8ILj16EED0Ev
dE:_pthread_mutexattr_init
hdc:_II_step_one
CCb:_png_set_background_fixed
$Oc:_isxdigit
TVa:__ZN10MeshBinder11setVerticesEP9lua_State
zsc:_Round_To_Grid
fWb:__ZL12computesizesPiS_
jJc:__ZN10emscripten8internal11LightTypeIDINS_3valEE3getEv
Bjc:_tt_cmap14_validate
KQb:__ZN11CPVRTStringaSERKS_
CVa:__ZN12_GLOBAL__N_114GGSoundChannelD2Ev
Fbd:__ZNSt3__213basic_istreamIwNS_11char_traitsIwEEED1Ev
YQa:__ZNSt3__26__treeINS_12__value_typeIibEENS_19__map_value_compareIiS2_NS_4lessIiEELb1EEENS_9allocatorIS2_EEE16__construct_nodeIJRKNS_21piecewise_construct_tENS_5tupleIJRKiEEENSE_IJEEEEEENS_10unique_ptrINS_11__tree_nodeIS2_PvEENS_22__tree_node_destructorINS7_ISM_EEEEEEDpOT_
xuc:_cf2_doStems
Erd:__ZNSt3__27codecvtIDic11__mbstate_tED0Ev
r_b:__ZL9checknameP8LexStateP7expdesc
MWb:__ZL6growCIP9lua_State
Cdd:__ZNSt3__215basic_streambufIcNS_11char_traitsIcEEE9sputbackcEc
bsa:_ghttp_CloseAll
lNd:__ZNKSt3__26vectorINS_4pairIPNS_18condition_variableEPNS_5mutexEEENS_18__hidden_allocatorIS6_EEE8max_sizeEv
pid:__ZNSt3__27collateIcED0Ev
Ao:_eglGetCurrentSurface
Jz:_glUniformMatrix4fv
ZVc:___fpclassify
Vrc:_Ins_SCANCTRL
Ma:ftCall_iiiiii
KEd:__ZNSt3__212basic_stringIcNS_11char_traitsIcEENS_9allocatorIcEEE6assignERKS5_
Ka:ftCall_iiiiid
KNb:__ZN6snappy22UncheckedByteArraySink6AppendEPKcj
zPb:__ZN11CPVRTString6appendEPKcj
zD:_pthread_attr_setdetachstate
Brc:_Ins_DIV
KAd:__ZNKSt3__212bad_weak_ptr4whatEv
C4c:_do_read_777
Qxc:_psh_globals_funcs_init
G:Math_cos
syb:_png_get_rowbytes
l4a:__ZN12Box2DBinder220b2World_destroyJointEP9lua_State
ZXb:_lua_setmetatable
Zvb:_z_gzeof
tAd:__ZNSt3__26localeC2EPKc
Bx:_glDisableVertexAttribArray
Rpd:__ZNKSt3__27codecvtIwc11__mbstate_tE16do_always_noconvEv
E$c:_erand48
JVa:__ZNSt3__26vectorIcNS_9allocatorIcEEE18__construct_at_endIPcEENS_9enable_ifIXsr21__is_forward_iteratorIT_EE5valueEvE4typeES7_S7_j
Hhb:__ZL15jpeg_gstdio_srcP22jpeg_decompress_structP8g__sFILE
Gja:_moveto
Dob:_gaudio_SoundPlay
ARb:_ComputeNormal
tjc:_tt_cmap14_done
Ohd:__ZNSt3__211__stdoutbufIwEC2EP8_IO_FILEP11__mbstate_t
bM:__ZN14GStatusElementC2Ev
qdd:__ZNSt3__29basic_iosIwNS_11char_traitsIwEEE4swapERS3_
GLb:_finish_pass_huff
fLd:__ZNKSt3__212_GLOBAL__N_114initial_stringINS_12basic_stringIcNS_11char_traitsIcEENS_9allocatorIcEEEEdLb1EEclEv
OLa:__ZNK13b2PulleyJoint16GetGroundAnchorAEv
gma:__ZNSt3__214__split_bufferIP17ginput_TouchEventRNS_9allocatorIS2_EEED2Ev
_7c:__ZNSt3__27__sort4IRNS_6__lessIllEEPlEEjT0_S5_S5_S5_T_
Xec:_generic_read_frame_body
gCc:_FT_Face_GetVariantSelectors
xkb:__ZNSt3__26__treeIPN9g_private14TextureManager18TempTextureElementENS_4lessIS4_EENS_9allocatorIS4_EEE7destroyEPNS_11__tree_nodeIS4_PvEE
owb:_png_malloc_warn
Cha:__ZNSt3__26__treeINS_12__value_typeINS_12basic_stringIcNS_11char_traitsIcEENS_9allocatorIcEEEES7_EENS_19__map_value_compareIS7_S8_NS_4lessIS7_EELb1EEENS5_IS8_EEE16__insert_node_atEPNS_15__tree_end_nodeIPNS_16__tree_node_baseIPvEEEERSJ_SJ_
z5c:_wmemcmp
Hza:__ZN11b2RopeJoint24SolveVelocityConstraintsERK12b2SolverData
Nfc:_nix_lseek
uUa:__ZN12Path2DBinder11setFontPathEP9lua_State
Dxb:_png_colorspace_set_rgb_coefficients
I7c:__ZNSt3__27__sort4IRNS_6__lessIttEEPtEEjT0_S5_S5_S5_T_
hQd:__ZN10__cxxabiv112_GLOBAL__N_111string_pair9move_fullEv
lMb:_start_pass_fdctmgr
o$b:__ZL9LoadDebugP9LoadStateP5Proto
twd:__ZNKSt3__210moneypunctIwLb0EE10pos_formatEv
JYa:__ZN15MovieClipBinder6createEP9lua_State
VKd:__ZNKSt3__212_GLOBAL__N_114initial_stringINS_12basic_stringIcNS_11char_traitsIcEENS_9allocatorIcEEEEmLb0EEclEv
wBd:__ZNSt3__221recursive_timed_mutex8try_lockEv
P4c:_threebyte_memmem
H0a:__ZThn508_N11b2DebugDraw11DrawPolygonEPK6b2Vec2iRK7b2Color
kYb:_luaZ_lookahead
C0:__ZN9MovieClip8oneFrameEv
wXa:__ZN11GGGyroscopeD0Ev
M1b:__ZL15luaB_loadstringP9lua_State
zsd:__ZNSt3__2L22utf16le_to_ucs4_lengthEPKhS1_jmNS_12codecvt_modeE
mcc:_INT123_frame_expect_outsamples
uvb:_adler32_combine_
Wfd:__ZNSt3__213basic_istreamIwNS_11char_traitsIwEEE3getEPwiw
Rrc:_Ins_RDTG
He:_SDL_GetKeyboardState
rLd:__ZNKSt3__212_GLOBAL__N_114initial_stringINS_12basic_stringIwNS_11char_traitsIwEENS_9allocatorIwEEEElLb0EEclEv
ALa:__ZNSt3__27__sort5IRN12_GLOBAL__N_124ExpirationTimeComparatorEPiEEjT0_S5_S5_S5_S5_T_
kxb:_png_colorspace_endpoints_match
bja:__ZL16subdivide_cubic8PKdPd
R8a:__ZN6Sprite9setSkewXYEff
W4c:_strerror_r
r8b:__ZN8pystring2os4path16splitdrive_posixERNSt3__212basic_stringIcNS2_11char_traitsIcEENS2_9allocatorIcEEEES9_RKS8_
n3c:_popen
SRc:_strerror_l
uBb:_png_process_data_pause
B6c:_pwritev
xSb:___gl_dictListDelete
Ild:__ZNKSt3__28time_getIwNS_19istreambuf_iteratorIwNS_11char_traitsIwEEEEE18__get_day_year_numERiRS4_S4_RjRKNS_5ctypeIwEE
IT:__ZNSt3__211char_traitsIiE6assignERiRKi
lcc:_INT123_ntom_frmouts
uc:ftCall_viiiiii
uWb:_luaG_concaterror
_tc:_cf2_checkTransform
dId:__ZNSt3__212basic_stringIwNS_11char_traitsIwEENS_9allocatorIwEEE4backEv
SE:_setgroups
iE:_pthread_once
Tud:__ZNKSt3__28time_getIwNS_19istreambuf_iteratorIwNS_11char_traitsIwEEEEE10date_orderEv
zNa:__ZN12b2MotorJoint12SetMaxTorqueEf
xka:__ZNSt3__24pairINS_12basic_stringIcNS_11char_traitsIcEENS_9allocatorIcEEEEfEC2EOS7_
k9:__ZN18SpriteProxyFactoryD0Ev
Yqb:_lua_traceback
Njd:__ZNKSt3__27num_getIwNS_19istreambuf_iteratorIwNS_11char_traitsIwEEEEE23__do_get_floating_pointIdEES4_S4_S4_RNS_8ios_baseERjRT_
F0:__ZNSt3__26__treeINS_12__value_typeIiNS_6vectorIPN9MovieClip5FrameENS_9allocatorIS5_EEEEEENS_19__map_value_compareIiS9_NS_4lessIiEELb1EEENS6_IS9_EEE4findIiEENS_15__tree_iteratorIS9_PNS_11__tree_nodeIS9_PvEEiEERKT_
Ika:__ZNSt3__26__treeINS_12__value_typeINS_12basic_stringIcNS_11char_traitsIcEENS_9allocatorIcEEEENS_6vectorIhNS5_IhEEEEEENS_19__map_value_compareIS7_SB_NS_4lessIS7_EELb1EEENS5_ISB_EEE25__emplace_unique_key_argsIS7_JRKNS_21piecewise_construct_tENS_5tupleIJRKS7_EEENSM_IJEEEEEENS_4pairINS_15__tree_iteratorISB_PNS_11__tree_nodeISB_PvEEiEEbEERKT_DpOT0_
Fub:_z_gz_error
BCa:__ZN12b2ChainShape13SetNextVertexERK6b2Vec2
j7a:__ZN12SpriteBinder8addChildEP9lua_State
dDb:_png_set_rgb_to_gray
Jt:_emscripten_idb_async_exists
Hjc:_tt_cmap14_ensure
pvd:__ZNSt3__215time_get_bynameIwNS_19istreambuf_iteratorIwNS_11char_traitsIwEEEEEC2EPKcj
Txa:__ZNK16b2PrismaticJoint10GetAnchorAEv
lUa:__ZN8Viewport12getTransformEv
Bad:__ZNSt3__222__release_shared_countclEPNS_14__shared_countE
Evb:_z_gzgetc_
ic:ftCall_viiidddiiddi
ctd:__ZNKSt3__215__codecvt_utf16IDiLb0EE9do_lengthER11__mbstate_tPKcS5_j
xK:__ZN10MouseEventC2ERK9EventTypeIS_Eiiffff
pIc:__ZN12_GLOBAL__N_1L16register_integerIsEEvPKc
B8b:__ZN8pystring2os4path7join_ntERKNSt3__26vectorINS2_12basic_stringIcNS2_11char_traitsIcEENS2_9allocatorIcEEEENS7_IS9_EEEE
tTc:_ilogb
cic:_Decompose_Curve
aKa:__ZN12_GLOBAL__N_117FixedSetAllocatorC2EP16b2StackAllocator
h5:__ZN10Tesselator16VertexCallback_sEPvS0_
u7c:__ZNSt3__26__sortIRNS_6__lessIhhEEPhEEvT0_S5_T_
o3a:__ZN12Box2DBinder214b2Body_getTypeEP9lua_State
wMc:_ctanl
aIa:__ZZN16b2ParticleSystem41UpdatePairsAndTriadsWithReactiveParticlesEvEN14ReactiveFilterC2EPj
Uia:__ZL7move_toP12reduced_pathff
lmb:__ZNSt3__23mapINS_12basic_stringIcNS_11char_traitsIcEENS_9allocatorIcEEEE13GGAudioLoaderNS_4lessIS6_EENS4_INS_4pairIKS6_S7_EEEEED2Ev
sMc:_ctanf
Vsd:__ZNSt3__2L22utf16le_to_ucs2_lengthEPKhS1_jmNS_12codecvt_modeE
Tc:RegisteredPointer_deleteObject
X2b:__ZL9read_lineP9lua_StateP8g__sFILE
aNb:_jpeg_set_defaults
rja:__ZN6Path2D10setTextureEP11TextureBasePK7Matrix4
lCc:_FT_Get_Sfnt_Table
SVa:__ZN10MeshBinder20setTextureCoordinateEP9lua_State
YId:__ZNKSt3__212basic_stringIwNS_11char_traitsIwEENS_9allocatorIwEEE5rfindERKS5_j
Vs:_emscripten_glUniform1iv
Qvb:_z_gzdopen
cBa:__ZN15b2DistanceProxy3SetEPK7b2Shapei
iv:_emscripten_vibrate
hpc:_TT_Process_Composite_Glyph
fXd:_glfwSwapBuffers__wrapper
ZXd:_glTexParameteri__wrapper
woc:_af_property_get_face_globals
Ugb:__ZN9g_private12TimerManagerD2Ev
Kr:_emscripten_glGetBufferParameteriv
ab:ftCall_iiiiiiiiiiiii
bbd:__ZNSt3__215basic_streambufIcNS_11char_traitsIcEEE9showmanycEv
sD:_posix_spawnp
eCb:_png_set_invert_mono
Ypb:__ZNSt3__26__treeINS_12__value_typeIi8FileInfoEENS_19__map_value_compareIiS3_NS_4lessIiEELb1EEENS_9allocatorIS3_EEE16__construct_nodeIJRKNS_21piecewise_construct_tENS_5tupleIJRKiEEENSF_IJEEEEEENS_10unique_ptrINS_11__tree_nodeIS3_PvEENS_22__tree_node_destructorINS8_ISN_EEEEEEDpOT_
__b:__ZL10leaveblockP9FuncState
Qra:__ZNSt3__26__treeINS_12__value_typeINS_12basic_stringIcNS_11char_traitsIcEENS_9allocatorIcEEEES7_EENS_19__map_value_compareIS7_S8_NS_4lessIS7_EELb1EEENS5_IS8_EEEC2ERKSC_
GUa:__ZN12ShaderBinder13getPropertiesEP9lua_State
mZc:___pthread_self_450
HKb:_jpeg_fdct_3x6
xib:__ZN9g_private14TextureManager4tickEv
FIc:__ZN12_GLOBAL__N_1L20register_memory_viewItEEvPKc
jKb:_jpeg_fdct_3x3
rhd:__ZNSt3__214basic_iostreamIcNS_11char_traitsIcEEEC2EPNS_15basic_streambufIcS2_EE
GYa:__ZN11GGUrlLoaderD2Ev
ILa:__ZNK6b2AABB9GetCenterEv
f_a:__ZN17ApplicationBinder3setEP9lua_State
f4:__ZNKSt3__26vectorIN8TTBMFont8FontFaceENS_9allocatorIS2_EEE8max_sizeEv
kBd:__ZNSt3__215recursive_mutexD2Ev
eNd:__ZNSt3__219__thread_struct_impD2Ev
hVa:__ZN12_GLOBAL__N_114GGSoundChannel9isLoopingEv
anb:__ZNSt3__26__treeIPN14GGSoundManager7ChannelENS_4lessIS3_EENS_9allocatorIS3_EEE16__construct_nodeIJRKS3_EEENS_10unique_ptrINS_11__tree_nodeIS3_PvEENS_22__tree_node_destructorINS6_ISF_EEEEEEDpOT_
f5c:_swab
POb:__ZN10ByteBuffer6appendEf
LXc:_arg_n
S0b:_luaL_callmeta
Rra:__ZNSt3__23mapINS_12basic_stringIcNS_11char_traitsIcEENS_9allocatorIcEEEES6_NS_4lessIS6_EENS4_INS_4pairIKS6_S6_EEEEEixERSA_
Gs:_emscripten_glStencilFunc
sZa:__ZN17ApplicationBinderC2EP9lua_State
MNb:__ZN11NetworkBaseC2Ev
fmc:_gray_conic_to
am:_alDistanceModel
ntb:__ZNKSt3__26__treeINS_12basic_stringIcNS_11char_traitsIcEENS_9allocatorIcEEEENS_4lessIS6_EENS4_IS6_EEE10__root_ptrEv
ONb:__ZNSt3__212__deque_baseIP12QueueElementNS_9allocatorIS2_EEED2Ev
S0a:__ZN12Box2DBinder224b2RopeJoint_getMaxLengthEP9lua_State
Sod:__ZNSt3__29money_putIcNS_19ostreambuf_iteratorIcNS_11char_traitsIcEEEEED2Ev
h$c:_recvmmsg
o2a:__ZN12Box2DBinder225b2RevoluteJoint_setLimitsEP9lua_State
JZc:_getifaddrs
cwd:__ZNKSt3__210moneypunctIcLb1EE13decimal_pointEv
aKc:_malloc_footprint
yOa:__ZNSt3__212__rotate_gcdIP6b2Vec2EET_S3_S3_S3_
kOc:___isdigit_l
pNb:_jpeg_copy_critical_parameters
FKc:_strtoul_l
mD:_pathconf
bF:_siglongjmp
WIc:__ZN10emscripten8internal11LightTypeIDINS_11memory_viewIlEEE3getEv
iIc:__GLOBAL__sub_I_bind_cpp
dMc:___FLOAT_BITS
pka:__ZN17ProjectPropertiesD2Ev
qmb:__ZNSt3__26__treeINS_12__value_typeImPN14GGSoundManager5SoundEEENS_19__map_value_compareImS5_NS_4lessImEELb1EEENS_9allocatorIS5_EEE7destroyEPNS_11__tree_nodeIS5_PvEE
Scc:_add_id3_text
Kud:__ZNKSt3__28time_getIcNS_19istreambuf_iteratorIcNS_11char_traitsIcEEEEE10date_orderEv
zKc:___shgetc
qad:__ZNSt3__217__assoc_sub_state24set_value_at_thread_exitEv
BWa:__ZNSt3__214__split_bufferIjRNS_9allocatorIjEEED2Ev
p5b:__ZL8math_absP9lua_State
apd:__ZNSt3__211__money_putIwE13__gather_infoEbbRKNS_6localeERNS_10money_base7patternERwS8_RNS_12basic_stringIcNS_11char_traitsIcEENS_9allocatorIcEEEERNS9_IwNSA_IwEENSC_IwEEEESJ_Ri
F6:___cxx_global_var_init_253
Dpc:_tt_delta_interpolate
DJb:_empty_output_buffer
FXd:_glBindFramebuffer__wrapper
OCc:_FT_Outline_Embolden
eKc:_mallinfo
mVa:__ZN12_GLOBAL__N_114GGSoundChannel19isPitchingAvailableEv
I$a:__ZN16b2ParticleSystem20GetParticleGroupListEv
QLc:_cexpf
tN:__ZL8logo2dibP11ApplicationPhjii
Hjd:__ZNKSt3__27num_getIwNS_19istreambuf_iteratorIwNS_11char_traitsIwEEEEE6do_getES4_S4_RNS_8ios_baseERjRe
r8a:__ZN12SpriteBinder9setMatrixEP9lua_State
nbd:__ZNSt3__215basic_streambufIwNS_11char_traitsIwEEE7seekposENS_4fposI11__mbstate_tEEj
ysa:__ZN10emscripten8internal11BindingTypeIiE10toWireTypeERKi
fUb:_unzGoToFilePos
iJa:__ZNSt3__220__half_inplace_mergeINS_8__negateIRPFbRKN16b2ParticleSystem4PairES5_EEENS_16reverse_iteratorIPS3_EESC_SC_EEvT0_SD_T1_SE_T2_T_
Uf:_SDL_SetColors
jkd:__ZNSt3__29__num_putIcE23__widen_and_group_floatEPcS2_S2_S2_RS2_S3_RKNS_6localeE
W_b:__ZL12indexupvalueP9FuncStateP7TStringP7expdesc
Rb:invoke_viidddddd
Gmc:_af_latin_get_standard_widths
yp:_emscripten_coroutine_next
dPa:__ZZN16b2ParticleSystem23DestroyParticlesInShapeERK7b2ShapeRK11b2TransformbEN31DestroyParticlesInShapeCallbackD0Ev
H9b:__ZN6snappyL25InternalUncompressAllTagsINS_17SnappyArrayWriterEEEbPNS_18SnappyDecompressorEPT_jj
nB:_gluOrtho2D
QMb:_reduce_script
nAd:__ZNSt3__26locale5__impC2ERKS1_PNS0_5facetEl
ST:__ZN12VertexBufferItEC2ERKS0_
YZb:__ZL14luaK_goiffalseP9FuncStateP7expdesc
L_b:__ZL10getcompopri
Ph:___cxa_throw
tsa:__ZN10emscripten8internal17DestructorsRunnerD2Ev
XYa:__ZN9AutoUnref7releaseEv
eF:_sigprocmask
Xrb:__ZNSt3__26__treeINS_12basic_stringIcNS_11char_traitsIcEENS_9allocatorIcEEEENS_4lessIS6_EENS4_IS6_EEE7destroyEPNS_11__tree_nodeIS6_PvEE
Zhb:__ZNSt3__26vectorIPhNS_9allocatorIS1_EEEC2Ej
uQb:__ZNK11CPVRTString16find_last_not_ofERKS_j
lGa:__ZN15b2ContactSolver24SolveVelocityConstraintsEv
Mz:_glVertexAttrib1f
$Bb:_png_set_scale_16
dub:_build_tree
n_:__ZN9ParameterC2Eiff9TweenType
vAd:__ZNSt3__26localeC2ERKS0_PKci
sL:__ZN5Stage10mouseWheelEiiiffffi
OTa:__ZN11PixelBinder15setTextureScaleEP9lua_State
oVb:__ZL11removeentryP4Node
O8c:__ZNSt3__212__rs_defaultD2Ev
ADb:_png_set_invalid
kEa:__ZN16b2ParticleSystem10FreeBufferINS_5TriadEEEvPPT_i
_rc:_Ins_MAX
Ovc:_cf2_getFamilyOtherBlues
o9c:__ZNSt3__227__libcpp_set_debug_functionEPFvRKNS_19__libcpp_debug_infoEE
Zpc:_Move_CVT
R_c:_is_valid_hostname
rfd:__ZNSt3__213basic_istreamIwNS_11char_traitsIwEEEC1EPNS_15basic_streambufIwS2_EE
T7c:__ZNSt3__27__sort3IRNS_6__lessIjjEEPjEEjT0_S5_S5_T_
r6a:__ZN14FontBaseBinder20getCharIndexAtOffsetEP9lua_State
EZb:__ZL10code_labelP9FuncStateiii
qkd:__ZNKSt3__27num_putIwNS_19ostreambuf_iteratorIwNS_11char_traitsIwEEEEE6do_putES4_RNS_8ios_baseEwx
Um:_alSource3f
Vm:_alSource3i
skd:__ZNKSt3__27num_putIwNS_19ostreambuf_iteratorIwNS_11char_traitsIwEEEEE6do_putES4_RNS_8ios_baseEwy
WZ:__ZN9MovieClip8setFieldEi9Parameterf
Qja:__ZN14NetworkManagerC2EP18ApplicationManager
GIc:__ZN12_GLOBAL__N_1L20register_memory_viewIiEEvPKc
KMd:__ZNSt3__212system_errorD0Ev
sR:__ZNK5GMesh18getVertexArraySizeEv
YUa:__ZN11AudioBinder21SoundChannel_setPitchEP9lua_State
Cgb:__Z18drawInfoResolutioniiiiibPfS_iiff
U6a:__ZN17TexturePackBinder11getLocationEP9lua_State
uaa:__ZNSt3__214__split_bufferIPPK6SpriteRNS_9allocatorIS4_EEED2Ev
Zn:_clock
_wd:__ZNSt3__217moneypunct_bynameIwLb1EEC2ERKNS_12basic_stringIcNS_11char_traitsIcEENS_9allocatorIcEEEEj
Pya:__ZN11b2WeldJointD0Ev
iFd:__ZNSt3__212basic_stringIcNS_11char_traitsIcEENS_9allocatorIcEEE7replaceENS_11__wrap_iterIPKcEES9_S8_j
P7:__ZN14TimerContainer23queueTimerCompleteEventEP5Timer
kuc:_cf2_glyphpath_init
yBa:__Z6b2SwapIfEvRT_S1_
EPc:_readdir
p0c:_regcomp
Hid:__ZNKSt3__27num_getIcNS_19istreambuf_iteratorIcNS_11char_traitsIcEEEEE6do_getES4_S4_RNS_8ios_baseERjS8_
fKa:__ZNSt3__218__insertion_sort_3IRNS_6__lessIN16b2ParticleSystem5ProxyES3_EEPS3_EEvT0_S7_T_
bRb:_KillFace
xdd:__ZNSt3__215basic_streambufIcNS_11char_traitsIcEEE8in_availEv
Wed:__ZNSt3__213basic_istreamIcNS_11char_traitsIcEEErsERd
Fjd:__ZNKSt3__27num_getIwNS_19istreambuf_iteratorIwNS_11char_traitsIwEEEEE6do_getES4_S4_RNS_8ios_baseERjRf
IQc:___gettextdomain
UQ:__ZNSt3__26vectorIN5GMesh5ColorENS_9allocatorIS2_EEE8__appendEj
zGb:_jpeg_has_multiple_scans
Tzd:__ZNSt3__26locale5__imp12install_fromINS_7codecvtIDic11__mbstate_tEEEEvRKS1_
COb:__Z15eventCodeString9EventCode
B$:__ZL26qt_smoothBeginEndMixFactord
R8c:__ZNSt3__223mersenne_twister_engineIjLj32ELj624ELj397ELj31ELj2567483615ELj11ELj4294967295ELj7ELj2636928640ELj15ELj4022730752ELj18ELj1812433253EEclEv
qzd:__ZNSt3__215numpunct_bynameIcEC2ERKNS_12basic_stringIcNS_11char_traitsIcEENS_9allocatorIcEEEEj
Bl:__inet_pton6
qfb:__ZNSt3__26__treeINS_12__value_typeIPvP11GReferencedEENS_19__map_value_compareIS2_S5_NS_4lessIS2_EELb1EEENS_9allocatorIS5_EEE13__lower_boundIS2_EENS_15__tree_iteratorIS5_PNS_11__tree_nodeIS5_S2_EEiEERKT_SH_PNS_15__tree_end_nodeIPNS_16__tree_node_baseIS2_EEEE
rkd:__ZNKSt3__27num_putIwNS_19ostreambuf_iteratorIwNS_11char_traitsIwEEEEE6do_putES4_RNS_8ios_baseEwm
uAc:_ft_stroke_border_export
eMa:__ZNK7b2World14GetTreeQualityEv
ZOc:___iswupper_l
I9b:__ZN6snappy17SnappyArrayWriter17SetExpectedLengthEj
XAd:__ZNSt3__219__shared_weak_count4lockEv
DQ:__ZL8setColorffff
dy:_glGenerateMipmap
Flb:_gevent_EnqueueEvent
FY:__ZN11TextureBaseC2EP11Application
OE:_sem_trywait
TFc:_smix_mono_8bit_spline
JJ:__ZNSt3__26vectorIN9Particles5ColorENS_9allocatorIS2_EEE26__swap_out_circular_bufferERNS_14__split_bufferIS2_RS4_EE
kcb:__ZNSt3__26__treeINS_12__value_typeIiNS_6vectorIP12CppLuaBridgeNS_9allocatorIS4_EEEEEENS_19__map_value_compareIiS8_NS_4lessIiEELb1EEENS5_IS8_EEE7destroyEPNS_11__tree_nodeIS8_PvEE
z3:__ZNK8TTBMFont7kerningEii
XTd:___divdi3
iZ:__ZN13GridBagLayout17lookupConstraintsEP6Sprite
T9c:__ZNKSt3__211__libcpp_db15__subscriptableEPKvi
ttd:__ZNKSt3__220__codecvt_utf8_utf16IwE13do_max_lengthEv
eRa:__ZN14LuaApplication18Core_profilerStartEP9lua_State
Vcb:__ZN8MemCache14AllocateMemoryEj
eN:__ZN7TextureC2EP11ApplicationPKc6Filter4Wrap6Formatbjb
ldd:__ZNSt3__215basic_streambufIwNS_11char_traitsIwEEE8pubimbueERKNS_6localeE
Rcd:__ZNKSt3__29basic_iosIwNS_11char_traitsIwEEE4failEv
OUb:__ZL8markrootP9lua_State
OP:__ZN8Matrix2D3setEffffff
VZb:__ZL12constfolding6OpCodeP7expdescS1_
Edd:__ZNSt3__215basic_streambufIcNS_11char_traitsIcEEE5sputcEc
kTb:_ComputeNormal_92
Snc:_af_cjk_hints_compute_segments
e8b:__ZN8pystring5zfillERKNSt3__212basic_stringIcNS0_11char_traitsIcEENS0_9allocatorIcEEEEi
vXc:___ofl_add
yRb:___gl_renderBoundary
z6a:__ZN11StageBinder18getBackgroundColorEP9lua_State
hZc:_mbstowcs
UT:__ZN12VertexBufferIhEC2ERKS0_
kab:__ZN11TimerBinder4stopEP9lua_State
R7:__ZNSt3__26removeINS_16__deque_iteratorINS_4pairIP5TimeriEEPS5_RS5_PS6_iLi0EEES5_EET_SA_SA_RKT0_
rY:__ZN5Pixel6doDrawERK7Matrix4ffff
mra:__ZNSt3__26__treeINS_12__value_typeImPN21GGSampleOpenALManager7ChannelEEENS_19__map_value_compareImS5_NS_4lessImEELb1EEENS_9allocatorIS5_EEE7destroyEPNS_11__tree_nodeIS5_PvEE
MTb:_unz64local_getLong64
b7a:__ZN13TextureBinder8destructEP9lua_State
P0c:_tre_copy_ast
Ra:invoke_iiiiiiii
O4c:_twobyte_memmem
AC:_llvm_log_f64
Ke:_SDL_GetNumAudioDrivers
ay:_glGenTextures
uH:FUNCTION_TABLE_iiiiii
plc:_ft_module_get_service
VYc:_shm_open
wud:__ZNKSt3__27num_putIcNS_19ostreambuf_iteratorIcNS_11char_traitsIcEEEEE3putES4_RNS_8ios_baseEcd
RGb:_jinit_arith_decoder
zLb:_start_pass_coef
tH:FUNCTION_TABLE_iiiiid
CYa:__ZNSt3__214__split_bufferINS_4pairINS_12basic_stringIcNS_11char_traitsIcEENS_9allocatorIcEEEES7_EERNS5_IS8_EEEC2EjjSA_
Bf:_SDL_MapRGB
bra:__ZNSt3__26__treeINS_12__value_typeImPN21GGSampleOpenALManager7ChannelEEENS_19__map_value_compareImS5_NS_4lessImEELb1EEENS_9allocatorIS5_EEE14__erase_uniqueImEEjRKT_
tIc:__ZN12_GLOBAL__N_1L16register_integerIlEEvPKc
Mgd:__ZNSt3__213basic_ostreamIcNS_11char_traitsIcEEEC2Ev
ydc:_mpg123_init
DMa:__ZN6b2Body9SetActiveEb
rGb:_jpeg_destroy_decompress
LBa:__ZN13b2DynamicTree10InsertLeafEi
hka:__ZN17ProjectPropertiesC2Ev
Zob:_gaudio_BackgroundMusicGetLength
FLc:_ccosf
bSb:___gl_meshSplitEdge
Jtb:_z_compress2
oJ:__ZNSt3__26vectorINS_12basic_stringIcNS_11char_traitsIcEENS_9allocatorIcEEEENS4_IS6_EEE6resizeEj
KSd:runPostSets5
ZI:___clang_call_terminate
NO:__ZN16GiderosExceptionC2ERK7GStatus
cqd:__ZNKSt3__27codecvtIDsc11__mbstate_tE13do_max_lengthEv
Vnd:__ZNKSt3__217moneypunct_bynameIcLb1EE16do_decimal_pointEv
g9c:__ZNSt3__229__libcpp_abort_debug_functionERKNS_19__libcpp_debug_infoE
OSd:runPostSets9
aPb:__ZN10ByteBuffer3getERNSt3__212basic_stringIcNS0_11char_traitsIcEENS0_9allocatorIcEEEE
qy:_glGetQueryObjecti64vEXT
tFb:_jinit_memory_mgr
H3b:__ZL4LnegP9lua_State
NXa:__ZN13GGGeolocation20startUpdatingHeadingEv
OC:_llvm_pow_f64
O5:__ZNSt3__214__split_bufferIP9BlendFuncRNS_9allocatorIS2_EEE9push_backEOS2_
Uod:__ZNKSt3__29money_putIcNS_19ostreambuf_iteratorIcNS_11char_traitsIcEEEEE6do_putES4_bRNS_8ios_baseEce
vXa:__ZN11GGGyroscopeD2Ev
Clc:_inflate
w3b:__ZL4PgetP9lua_Statei
BOb:__ZN6Client4tickEP12NetworkEvent
H0c:_tre_stack_pop_voidptr
ghc:_ft_bitmap_glyph_init
V1:__ZN11TTTextFieldD0Ev
s4c:_strtold_l
nMb:_forward_DCT_float
t5:__ZN10Tesselator15CombineCallbackEPdPS0_PfS1_
jAa:__ZNK19b2IntrusiveListNode7GetNextEv
qEb:_png_write_tIME
dw:_fabsl
ra:invoke_diiiid
Lnb:__ZN14GGAudioManager11SoundDeleteEm
s9a:__ZN12MatrixBinder6setM12EP9lua_State
cD:_localtime_r
cw:_fabsf
sC:_llvm_floor_f32
_x:_glGenQueriesEXT
n6b:__ZL12matchbalanceP10MatchStatePKcS2_
H7a:__ZN12SpriteBinder12getRotationYEP9lua_State
JNb:__ZN6snappy22UncheckedByteArraySinkD0Ev
wJa:__ZN17b2ParticlePairSet10InitializeEPK17b2ParticleContactiPKj
vhd:__ZNSt3__214basic_iostreamIcNS_11char_traitsIcEEEaSEOS3_
K7a:__ZN12SpriteBinder9getScaleZEP9lua_State
mF:_strftime
WMb:_jpeg_write_raw_data
krd:__ZNKSt3__28numpunctIwE11do_truenameEv
jBd:__ZNSt3__215recursive_mutexC2Ev
C3a:__ZN12Box2DBinder221b2Body_getLocalVectorEP9lua_State
ey:_glGetActiveAttrib
Gg:_TTF_FontLineSkip
x$c:___ipparse
Zrd:__ZNSt3__2L12ucs2_to_utf8EPKtS1_RS1_PhS3_RS3_mNS_12codecvt_modeE
yB:_glutInit
_Td:___remdi3
sya:__ZNK15b2FrictionJoint10GetAnchorBEv
Jgc:_mpg123_id3
fT:__ZNKSt3__26vectorIN8FontBase11ChunkLayoutENS_9allocatorIS2_EEE8max_sizeEv
Knd:__ZNKSt3__217moneypunct_bynameIcLb0EE16do_decimal_pointEv
Wxd:__ZNSt3__26locale5__imp7installINS_5ctypeIwEEEEvPT_
Sed:__ZNSt3__213basic_istreamIcNS_11char_traitsIcEEErsERm
v0b:__ZL11callallgcTMP9lua_StatePv
FVd:mftCall_viidii
aad:__ZNSt16nested_exceptionC2Ev
Vad:__ZNSt3__29basic_iosIwNS_11char_traitsIwEEED0Ev
rDa:__ZN23b2ChainAndCircleContact7DestroyEP9b2ContactP16b2BlockAllocator
gVd:mftCall_v
BZb:_luaK_concat
KM:__ZN7Matrix43rawEv
jsd:__ZNKSt3__215__codecvt_utf16IwLb0EE10do_unshiftER11__mbstate_tPcS4_RS4_
OZ:__ZNSt3__26vectorIdNS_9allocatorIdEEE6assignIPdEENS_9enable_ifIXaasr21__is_forward_iteratorIT_EE5valuesr16is_constructibleIdNS_15iterator_traitsIS7_E9referenceEEE5valueEvE4typeES7_S7_
NRb:_GotoState
EWa:__ZN21TextInputDialogBinder8destructEP9lua_State
GUd:mftCall_d
Rgb:__ZNSt3__26__treeINS_12__value_typeIiN9g_private12TimerManager12TimerElementEEENS_19__map_value_compareIiS5_NS_4lessIiEELb1EEENS_9allocatorIS5_EEED2Ev
dud:__ZNKSt3__27num_getIcNS_19istreambuf_iteratorIcNS_11char_traitsIcEEEEE3getES4_S4_RNS_8ios_baseERjRPv
Swd:__ZNSt3__217moneypunct_bynameIwLb0EE4initEPKc
E5b:__ZL8math_logP9lua_State
AIc:__ZN10emscripten8internal6TypeIDINS_3valEE3getEv
_fb:__ZNSt3__25stackINS_12basic_stringIcNS_11char_traitsIcEENS_9allocatorIcEEEENS_5dequeIS6_NS4_IS6_EEEEED2Ev
tBb:_png_set_IHDR
erd:__ZNKSt3__28numpunctIcE12do_falsenameEv
tPa:__ZZN16b2ParticleSystem33CreateParticlesWithShapesForGroupEPKPK7b2ShapeiRK18b2ParticleGroupDefRK11b2TransformENK14CompositeShape9TestPointESA_RK6b2Vec2
uKd:__ZNSt3__212_GLOBAL__N_18as_floatIfNS_12basic_stringIcNS_11char_traitsIcEENS_9allocatorIcEEEEEET_RKS7_RKT0_Pj
rVa:__ZN12_GLOBAL__N_114GGSoundChannel11getPositionEv
zpc:_ft_var_readpackedpoints
wZa:__ZN17ApplicationBinder16getLogicalHeightEP9lua_State
kUb:_unzOpenCurrentFile2
FUa:__ZN12ShaderBinder9enableVBOEP9lua_State
qHb:_decode_mcu_AC_first_5
qnb:__ZN14GGSoundManager18ChannelGetStreamIdEm
hTb:___gl_pqSortInit
mLb:_jpeg_start_compress
zUc:___lgammal_r
TMc:_sha512_sum
Ia:ftCall_iiiii
zKa:__ZNSt3__27__sort5IRPFbRK21b2ParticleBodyContactS3_EPS1_EEjT0_S8_S8_S8_S8_T_
lC:_llvm_eh_typeid_for
TLc:_cimagf
wpc:_ft_trig_downscale
Xc:_IMG_Init
onb:__ZN14GGSoundManager16ChannelSetVolumeEmf
$Ed:__ZNSt3__212basic_stringIcNS_11char_traitsIcEENS_9allocatorIcEEE5eraseENS_11__wrap_iterIPKcEES9_
hEa:__ZN16b2ParticleSystem10FreeBufferI17b2ParticleContactEEvPPT_i
ULc:_cimagl
Vg:_XOpenDisplay
ET:__ZNKSt3__26__treeINS_12__value_typeINS_4pairIiiEEiEENS_19__map_value_compareIS3_S4_NS_4lessIS3_EELb1EEENS_9allocatorIS4_EEE4findIS3_EENS_21__tree_const_iteratorIS4_PNS_11__tree_nodeIS4_PvEEiEERKT_
g5a:__ZN21b2DestructionListener10SayGoodbyeEP16b2ParticleSystemi
Xla:__ZNSt3__24pairIKjNS_6vectorIP17ginput_TouchEventNS_9allocatorIS4_EEEEED2Ev
MJb:_skip_input_data
wMa:__ZNK9b2Fixture11GetMassDataEP10b2MassData
or:_emscripten_glDrawElementsInstancedNV
fYa:__ZNSt3__26vectorINS_4pairINS_12basic_stringIcNS_11char_traitsIcEENS_9allocatorIcEEEES7_EENS5_IS8_EEE21__push_back_slow_pathIS8_EEvOT_
A8b:__ZNSt3__26vectorINS_12basic_stringIcNS_11char_traitsIcEENS_9allocatorIcEEEENS4_IS6_EEEC2Ej
A8c:__ZNSt3__26__sortIRNS_6__lessIddEEPdEEvT0_S5_T_
Orb:_g_p_close
jWa:__ZN10MeshBinder17getIndexArraySizeEP9lua_State
Ddc:_mpg123_parnew
ND:_pthread_condattr_destroy
Lm:_alIsEnabled
s8:__ZNSt3__214__split_bufferIcRNS_9allocatorIcEEEC2EjjS3_
Rac:_mpg123_format_support
wFd:__ZNKSt3__212basic_stringIcNS_11char_traitsIcEENS_9allocatorIcEEE4findEcj
mKc:___errno_location
AEb:_png_create_write_struct
WK:__ZNK9EventTypeI13KeyboardEventE2idEv
FMc:_strcmp
ps:_emscripten_glIsShader
A1a:__ZN12Box2DBinder222b2MouseJoint_getTargetEP9lua_State
xD:_pthread_attr_getstack
ywc:_cff_done_blend
msb:___swhatbuf
Y3b:__ZL9Lutf8_subP9lua_State
cad:__ZNKSt16nested_exception14rethrow_nestedEv
IRb:_noEnd
YDa:__ZN16b2ParticleSystem20DestroyParticleGroupEP15b2ParticleGroup
$3:__ZN8TTBMFont11constructorENSt3__26vectorIN8FontBase8FontSpecENS0_9allocatorIS3_EEEEfPKcf
wwd:__ZNKSt3__210moneypunctIwLb1EE13decimal_pointEv
yjc:_tt_cmap14_variants
Bw:_getprotobynumber
DQc:_strlen
yUa:__ZN12ShaderBinderC2EP9lua_State
K6c:_setgid
RIb:_start_pass_2_quant
XZa:__ZN17ApplicationBinder4exitEP9lua_State
$4c:_strndup
k3c:_wms_close
Nbc:_mpg123_delete_pars
qFa:__ZN7b2JointC2EPK10b2JointDef
ZQc:___loc_is_allocated
SHa:__ZNK15b2ParticleGroup18GetAngularVelocityEv
sSa:__ZN11ProfileInfoC2Ev
jt:_emscripten_glUseProgram
jE:_pthread_rwlock_destroy
j2c:___fgetwc_unlocked
I$c:_nrand48
b5:__ZN10TesselatorC2Ev
ZYa:__ZNSt3__26vectorI9ParameterNS_9allocatorIS1_EEE21__push_back_slow_pathIS1_EEvOT_
C8:__ZN6SpriteD2Ev
jQd:__ZNSt3__2plIcNS_11char_traitsIcEEN10__cxxabiv112_GLOBAL__N_112malloc_allocIcEEEENS_12basic_stringIT_T0_T1_EERKSB_PKS8_
uSb:___gl_pqHeapDeletePriorityQ
hV:__ZNSt3__26__treeINS_12__value_typeINS_4pairIiiEEiEENS_19__map_value_compareIS3_S4_NS_4lessIS3_EELb1EEENS_9allocatorIS4_EEE12__find_equalIS3_EERPNS_16__tree_node_baseIPvEERPNS_15__tree_end_nodeISG_EERKT_
gUb:_unzOpenCurrentFile3
iX:__ZNSt3__26vectorINS_4pairINS_12basic_stringIcNS_11char_traitsIcEENS_9allocatorIcEEEEfEENS5_IS8_EEE18__construct_at_endIPS8_EENS_9enable_ifIXsr21__is_forward_iteratorIT_EE5valueEvE4typeESE_SE_j
wvb:_z_gzread
NQb:__ZplRK11CPVRTStringPKc
u5b:__ZL9math_ceilP9lua_State
uJc:__ZN10emscripten8internal11LightTypeIDIlE3getEv
jZa:__ZN11ShapeBinder8destructEP9lua_State
FXc:_ferror
xTd:runPostSets46
dZa:__ZN12MovieClipLuaD2Ev
TBa:__ZN13b2DynamicTree12DestroyProxyEi
qq:_emscripten_glBindVertexArrayOES
YGd:__ZNSt3__212basic_stringIwNS_11char_traitsIwEENS_9allocatorIwEEEaSEOS5_
sTd:runPostSets41
QDa:__ZNSt3__227__insertion_sort_incompleteIRPFbRK6b2PairS3_EPS1_EEbT0_S8_T_
t_c:_inet_lnaof
ENc:_strnlen
rS:__ZNSt3__214__split_bufferI8RectSizeRNS_9allocatorIS1_EEEC2EjjS4_
ATd:runPostSets49
_C:_llvm_trunc_f64
Jyb:_png_get_y_offset_pixels
jmd:__ZNSt3__210__time_getD2Ev
NF:_uuid_unparse_lower
qjb:_gtexture_setUserData
Wmd:__ZNKSt3__210moneypunctIcLb0EE11do_groupingEv
fX:__ZNSt3__214__split_bufferIN11Application10ImageScaleERNS_9allocatorIS2_EEEC2EjjS5_
EEa:__ZL13LimitCapacityii
Vjd:__ZNKSt3__27num_getIwNS_19istreambuf_iteratorIwNS_11char_traitsIwEEEEE15__do_get_signedIlEES4_S4_S4_RNS_8ios_baseERjRT_
yAd:__ZNKSt3__26locale4nameEv
QQb:__ZplcRK11CPVRTString
Isa:__ZN10emscripten8internal11LightTypeIDIbE3getEv
Mgb:__ZNSt3__23mapIiN9g_private12TimerManager12TimerElementENS_4lessIiEENS_9allocatorINS_4pairIKiS3_EEEEED2Ev
Zld:__ZNKSt3__215time_get_bynameIcNS_19istreambuf_iteratorIcNS_11char_traitsIcEEEEE3__cEv
uZ:__ZNKSt3__26vectorIdNS_9allocatorIdEEE8max_sizeEv
uu:_emscripten_set_element_css_size
m_c:_netlink_msg_to_nameindex
tca:__ZN9Transform9setScaleYEf
hFc:_note_to_period_mix
Ym:_alSourcePlay
cQd:__ZNSt3__212basic_stringIcNS_11char_traitsIcEEN10__cxxabiv112_GLOBAL__N_112malloc_allocIcEEEC2ERKS7_jjRKS6_
hNc:_fmt_o
r3b:_luaopen_string
nsa:__ZN10emscripten8internal12MethodCallerIiJNS_3valES2_RS2_S2_S2_S2_iiiEE4callEPNS0_7_EM_VALEPKcOS2_S9_S3_S9_S9_S9_OiSA_SA_
rXc:_setmntent
fpb:_gaudio_BackgroundChannelSetVolume
Z4a:__ZN9b2WorldED18SetContactListenerEP17b2ContactListener
$hc:_InsNew
sMb:_expand_bottom_edge
wCd:__ZNSt3__218shared_timed_mutex8try_lockEv
BId:__ZNSt3__212basic_stringIwNS_11char_traitsIwEENS_9allocatorIwEEE7replaceEjjRKS5_jj
cSd:__ZN10__cxxabiv112_GLOBAL__N_111string_pairC2ILj8EEERAT__Kc
NEc:_virt_resetvoice
Vid:__ZNKSt3__26locale5__imp9has_facetEl
Wp:_emscripten_get_main_loop_timing
eMb:_encode_mcu_DC_first
kgc:_mpg123_decode_frame
G_:__ZL13easeInOutCircd
$2:__ZNSt3__26__treeINS_12__value_typeIiN6TTFont9GlyphDataEEENS_19__map_value_compareIiS4_NS_4lessIiEELb1EEENS_9allocatorIS4_EEE25__emplace_unique_key_argsIiJRKNS_21piecewise_construct_tENS_5tupleIJRKiEEENSG_IJEEEEEENS_4pairINS_15__tree_iteratorIS4_PNS_11__tree_nodeIS4_PvEEiEEbEERKT_DpOT0_
b2a:__ZN12Box2DBinder226b2PrismaticJoint_setLimitsEP9lua_State
Wzc:_ft_pos_abs
Ow:_glBindRenderbuffer
lTa:__ZN15ParticlesBinder16getParticleColorEP9lua_State
tX:__ZNSt3__26__treeIP6TickerNS_4lessIS2_EENS_9allocatorIS2_EEE16__construct_nodeIJRKS2_EEENS_10unique_ptrINS_11__tree_nodeIS2_PvEENS_22__tree_node_destructorINS5_ISE_EEEEEEDpOT_
ALd:__ZNKSt3__212_GLOBAL__N_114initial_stringINS_12basic_stringIwNS_11char_traitsIwEENS_9allocatorIwEEEEyLb0EEclEv
X3:__ZNSt3__23mapIiN8TTBMFont12TextureGlyphENS_4lessIiEENS_9allocatorINS_4pairIKiS2_EEEEED2Ev
hac:__ZNK6snappy22UncheckedByteArraySink18CurrentDestinationEv
AEa:__ZN16b2ParticleSystem13SetGroupFlagsEP15b2ParticleGroupj
JUa:__ZN18RenderTargetBinder8destructEP9lua_State
isc:_Ins_Goto_CodeRange
kv:_emscripten_vr_cancel_display_render_loop
Qf:_SDL_SaveBMP_RW
fQa:__GLOBAL__sub_I_luaapplication_cpp
_:getTempRet0
Q9a:__ZN12MatrixBinder9getScaleXEP9lua_State
Ywc:_ft_mem_dup
mX:__ZNSt3__24pairINS_12basic_stringIcNS_11char_traitsIcEENS_9allocatorIcEEEEfEC2ERKS7_
H8c:__ZNSt3__27__sort3IRNS_6__lessIeeEEPeEEjT0_S5_S5_T_
ZXc:_fourbyte_strstr
he:_SDL_DestroyRenderer
sbc:_INT123_clear_icy
hsa:__ZN10emscripten3valC2EPKc
QFc:_smix_mono_16bit_nearest
_tb:_deflate_slow
JDb:_png_write_data
L1a:__ZN12Box2DBinder222b2PulleyJoint_getRatioEP9lua_State
Ejb:__ZNSt3__26__treeIPN9g_private14TextureElementENS_4lessIS3_EENS_9allocatorIS3_EEE12__find_equalIS3_EERPNS_16__tree_node_baseIPvEERPNS_15__tree_end_nodeISD_EERKT_
BPa:__ZN16b2ParticleSystem18JoinParticleGroupsEP15b2ParticleGroupS1_
Drc:_Ins_ABS
xpa:__ZNSt3__26__treeIPN12_GLOBAL__N_121GGStreamOpenALManager7ChannelENS_4lessIS4_EENS_9allocatorIS4_EEE16__construct_nodeIJRKS4_EEENS_10unique_ptrINS_11__tree_nodeIS4_PvEENS_22__tree_node_destructorINS7_ISG_EEEEEEDpOT_
Efa:__ZN17ogl2ShaderProgram12drawElementsEN13ShaderProgram9ShapeTypeEjNS0_8DataTypeEPKvbPP17ShaderBufferCachejj
gvd:__ZNSt3__212ctype_bynameIcEC2EPKcj
BDc:_hio_read16l
Dod:__ZNSt3__29money_getIcNS_19istreambuf_iteratorIcNS_11char_traitsIcEEEEE8__do_getERS4_S4_bRKNS_6localeEjRjRbRKNS_5ctypeIcEERNS_10unique_ptrIcPFvPvEEERPcSM_
QVd:mftCall_viiiiii
Wz:_glVertexAttribDivisorARB
iQc:_fesetround
Bbd:__ZNSt3__213basic_istreamIcNS_11char_traitsIcEEED0Ev
vnb:__ZN14GGSoundManager23ChannelSetWorldPositionEmffffff
W7:__ZNSt3__213move_backwardIPNS_4pairIP5TimeriEES4_S5_RS4_PS5_iLi0EEENS_16__deque_iteratorIT0_T1_T2_T3_T4_XT5_EEET_SF_SE_PNS_9enable_ifIXsr27__is_random_access_iteratorISF_EE5valueEvE4typeE
FEc:_hio_read16b
YVa:__ZN10MeshBinder13setIndexArrayEP9lua_State
Xqc:_Ins_MIAP
Kib:__ZN9g_private14TextureElementD2Ev
B6:__ZN12GraphicsBase5clearEv
Jfa:__ZN17ogl2ShaderProgram8recreateEv
B1:__ZNKSt3__26__treeINS_12__value_typeIiiEENS_19__map_value_compareIiS2_NS_4lessIiEELb1EEENS_9allocatorIS2_EEE10__root_ptrEv
PXc:_getmntent
Kxd:__ZNSt3__220__vector_base_commonILb1EEC2Ev
Co:_eglGetError
VE:_setpwent
iMa:__ZN7b2World4DumpEv
qLb:_jinit_downsampler
aub:_longest_match
Pwd:__ZNSt3__217moneypunct_bynameIcLb1EE4initEPKc
BYa:__ZNKSt3__26vectorINS_4pairINS_12basic_stringIcNS_11char_traitsIcEENS_9allocatorIcEEEES7_EENS5_IS8_EEE8max_sizeEv
cRb:_Splice
NA:_glfwPollEvents
QAd:__ZNSt3__212_GLOBAL__N_19incrementIlEET_RS2_
Ndd:__ZNSt3__215basic_streambufIcNS_11char_traitsIcEEE5gbumpEi
Pub:_z__tr_tally
iVa:__ZN12_GLOBAL__N_114GGSoundChannel10setLoopingEb
Qqb:__ZN8StringId2idERKNSt3__212basic_stringIcNS0_11char_traitsIcEENS0_9allocatorIcEEEE
fxc:_cff_charset_compute_cids
wLb:_jinit_c_main_controller
SJb:_jpeg_save_markers
NQd:__ZN10__cxxabiv112_GLOBAL__N_122parse_static_cast_exprINS0_2DbEEEPKcS4_S4_RT_
oTb:___gl_vertCCW
Otc:_cff_decoder_init
uTd:runPostSets43
tUd:_sbrk
ZFb:_jpeg_mem_term
fyc:_psh_glyph_interpolate_normal_points
aZb:__ZL8exprstatP8LexState
qca:__ZN9Transform7setRefYEf
NHb:_jpeg_idct_5x10
N_c:_name_from_dns
_Ad:__ZNSt3__212__get_sp_mutEPKv
Lwa:__ZN17b2ContactListener10EndContactEP9b2FixtureP16b2ParticleSystemi
obd:__ZNSt3__215basic_streambufIwNS_11char_traitsIwEEE4syncEv
JLd:__ZNKSt3__212_GLOBAL__N_114initial_stringINS_12basic_stringIwNS_11char_traitsIwEENS_9allocatorIwEEEEeLb1EEclEv
Ly:_glIsEnabled
ob:ftCall_vidddd
OEb:_png_do_pack
$q:_emscripten_glDisable
m6c:_getlogin_r
Plc:_zcalloc
pjb:__ZN9g_private14TextureManager18getInternalTextureEm
Tgb:_gtimer_cleanup
NZa:__ZN17ApplicationBinder16getContentHeightEP9lua_State
kr:_emscripten_glDrawElementsInstanced
iBb:_png_set_hIST
Ykd:__ZNKSt3__28time_getIcNS_19istreambuf_iteratorIcNS_11char_traitsIcEEEEE13__get_12_hourERiRS4_S4_RjRKNS_5ctypeIcEE
bad:__ZSt17current_exceptionv
LOc:_towlower
wga:__ZNSt3__26vectorIP17ogl2ShaderProgramNS_9allocatorIS2_EEE26__swap_out_circular_bufferERNS_14__split_bufferIS2_RS4_EE
vy:_glGetRenderbufferParameteriv
dxc:_cff_charset_load
kSa:__ZL15profilerGetInfoP7Closure
lDc:_ft_gzip_check_header
hSa:__ZNSt3__26__treeINS_12__value_typeINS_12basic_stringIcNS_11char_traitsIcEENS_9allocatorIcEEEEdEENS_19__map_value_compareIS7_S8_NS_4lessIS7_EELb1EEENS5_IS8_EEE7destroyEPNS_11__tree_nodeIS8_PvEE
IKb:_jpeg_fdct_2x4
kKb:_jpeg_fdct_2x2
BKb:_jpeg_fdct_2x1
Tpb:__ZNSt3__26__treeINS_12__value_typeIi8FileInfoEENS_19__map_value_compareIiS3_NS_4lessIiEELb1EEENS_9allocatorIS3_EEE5eraseENS_21__tree_const_iteratorIS3_PNS_11__tree_nodeIS3_PvEEiEE
yEa:__ZN16b2ParticleSystem10FreeBufferIjEEvPPT_i
WR:__ZN15MyTexturePackerC2Ebii
xbb:__ZN16PushEventVisitor5visitEP5Event
Ntc:_cff_fd_select_get
Lsb:_g_ftello
eRb:_MakeFace
p9c:__ZNSt3__229__libcpp_throw_debug_functionERKNS_19__libcpp_debug_infoE
M9c:__ZNKSt3__211__libcpp_db8__find_cEPv
Jo:_eglQuerySurface
bmc:_FT_Outline_Decompose
HLd:__ZNSt3__212_GLOBAL__N_19as_stringINS_12basic_stringIwNS_11char_traitsIwEENS_9allocatorIwEEEEPFiPwjPKwzEdEET_T0_SD_PKNSD_10value_typeET1_
qNd:__ZNKSt3__218__hidden_allocatorINS_4pairIPNS_18condition_variableEPNS_5mutexEEEE8max_sizeEv
PK:__ZNSt3__26vectorIP6SpriteNS_9allocatorIS2_EEE21__push_back_slow_pathIRKS2_EEvOT_
c1:__ZN4SlotI9MovieClip15EnterFrameEventEC2ERKS2_
y7a:__ZN12SpriteBinder20setLayoutConstraintsEP9lua_State
iwd:__ZNKSt3__210moneypunctIcLb1EE11frac_digitsEv
_r:_emscripten_glGetShaderiv
jhb:__ZNSt3__26__treeINS_12__value_typeIiN9g_private12TimerManager12TimerElementEEENS_19__map_value_compareIiS5_NS_4lessIiEELb1EEENS_9allocatorIS5_EEE14__erase_uniqueIiEEjRKT_
Huc:_cf2_initLocalRegionBuffer
_1a:__ZN12Box2DBinder231b2PrismaticJoint_isLimitEnabledEP9lua_State
Hld:__ZNKSt3__28time_getIwNS_19istreambuf_iteratorIwNS_11char_traitsIwEEEEE13__get_12_hourERiRS4_S4_RjRKNS_5ctypeIwEE
qqc:_Ins_SZPS
qva:__Z5b2MulRK5b2RotRK6b2Vec2
twa:__ZNK13b2CircleShape9TestPointERK11b2TransformRK6b2Vec2
bHb:_start_input_pass
xvd:__ZNSt3__212ctype_bynameIwEC2EPKcj
bIa:__ZN16b2ParticleSystem20UpdatePairsAndTriadsEiiRKNS_16ConnectionFilterE
pIa:__ZNSt3__220get_temporary_bufferIN16b2ParticleSystem5TriadEEENS_4pairIPT_iEEi
jBa:__ZNK9b2Simplex15GetClosestPointEv
wza:__ZN13b2PulleyJointD0Ev
kX:__ZNKSt3__26vectorINS_4pairINS_12basic_stringIcNS_11char_traitsIcEENS_9allocatorIcEEEEfEENS5_IS8_EEE8max_sizeEv
Mua:__ZN10emscripten8internal9SignatureIvJNS_11memory_viewIhEEEE17get_method_callerEv
JIb:_ycck_cmyk_convert
Oba:__ZN6Sprite17setColorTransformERK14ColorTransform
dPc:___toupper_l
vH:FUNCTION_TABLE_iiiiiid
Kob:_gaudio_ChannelIsPlaying
vu:_emscripten_set_focus_callback
hbb:__ZL25getOrCreateEventBinderMapP15EventDispatcher
l3a:__ZN12Box2DBinder216b2Body_setActiveEP9lua_State
wH:FUNCTION_TABLE_iiiiiii
w3a:__ZN12Box2DBinder217b2Body_getInertiaEP9lua_State
k7:__ZNSt3__26__treeIP5TimerNS_4lessIS2_EENS_9allocatorIS2_EEE16__construct_nodeIJRKS2_EEENS_10unique_ptrINS_11__tree_nodeIS2_PvEENS_22__tree_node_destructorINS5_ISE_EEEEEEDpOT_
dEd:__ZNSt3__212basic_stringIcNS_11char_traitsIcEENS_9allocatorIcEEE9__grow_byEjjjjjj
JIa:__ZN16b2VoronoiDiagram12NodeCallbackC2Ev
$Qd:__ZN10__cxxabiv112_GLOBAL__N_115parse_simple_idINS0_2DbEEEPKcS4_S4_RT_
Icd:__ZNKSt3__29basic_iosIcNS_11char_traitsIcEEE6narrowEcc
n9c:__ZNSt3__28__c_nodeD0Ev
d_b:__ZL9checknextP8LexStatei
J2c:_fwprintf
Vt:_emscripten_log_js
Uad:__ZNSt3__29basic_iosIwNS_11char_traitsIwEEED2Ev
RZb:__ZL9codearithP9FuncState6OpCodeP7expdescS3_
y6c:_pread
f2b:__ZL10db_getinfoP9lua_State
Ewd:__ZNKSt3__210moneypunctIwLb1EE10neg_formatEv
JKd:__ZNSt3__212_GLOBAL__N_18as_floatIeNS_12basic_stringIwNS_11char_traitsIwEENS_9allocatorIwEEEEEET_RKNS2_IcNS3_IcEENS5_IcEEEERKT0_Pj
Zpa:__ZN21GGSampleOpenALManagerD2Ev
m8c:__ZNSt3__218__insertion_sort_3IRNS_6__lessIxxEEPxEEvT0_S5_T_
Gta:__ZNSt3__26__treeINS_12__value_typeIm8UiDialogEENS_19__map_value_compareImS3_NS_4lessImEELb1EEENS_9allocatorIS3_EEE4findImEENS_15__tree_iteratorIS3_PNS_11__tree_nodeIS3_PvEEiEERKT_
vac:_white_noise
k7b:__ZL7setfenvP9lua_State
oSb:_SpliceMergeVertices
z2b:__ZL10unmakemaskiPc
xN:__ZN6Sprite10setScaleXYEff
aVb:_luaE_freethread
ZUa:__ZN11AudioBinder21SoundChannel_getPitchEP9lua_State
lda:__ZN7Matrix39transposeEv
zua:__ZL17JSNative_callbackiPvS_
_Tb:_unzGetCurrentFileInfo64
DY:__ZN11TextureBaseD2Ev
e9:__ZN6Sprite11ShaderParamD2Ev
s$b:_luaZ_read
uQd:__ZNSt3__212basic_stringIcNS_11char_traitsIcEEN10__cxxabiv112_GLOBAL__N_112malloc_allocIcEEE7reserveEj
z6:__ZN10ErrorEventD0Ev
roc:_af_autofitter_init
BRa:__ZL14lzstream_linesP9lua_State
pJd:__ZNKSt3__212basic_stringIwNS_11char_traitsIwEENS_9allocatorIwEEE17find_first_not_ofEPKwjj
iSa:__ZNSt3__24pairIKNS_12basic_stringIcNS_11char_traitsIcEENS_9allocatorIcEEEEdED2Ev
aN:__ZN9StopWatch6resumeEv
LEb:_png_compress_IDAT
fJc:__ZN10emscripten8internal6TypeIDINS_11memory_viewIaEEE3getEv
Tvc:_cff_parser_done
d3b:__ZL9aux_linesP9lua_Stateii
LVc:___rem_pio2f
GIb:_gray_rgb_convert
yZb:_luaK_reserveregs
Lvd:__ZNKSt3__28time_putIwNS_19ostreambuf_iteratorIwNS_11char_traitsIwEEEEE3putES4_RNS_8ios_baseEwPK2tmPKwSC_
yda:__ZN7Matrix3C2Efffffffff
Sbc:_frame_decode_buffers_reset
Xhc:_Horizontal_Sweep_Step
Nqb:__ZNSt3__26vectorIPcNS_9allocatorIS1_EEE26__swap_out_circular_bufferERNS_14__split_bufferIS1_RS3_EE
Ieb:_block_absorb
LJb:_fill_input_buffer
Obc:_INT123_frame_outbuffer
WEd:__ZNSt3__212basic_stringIcNS_11char_traitsIcEENS_9allocatorIcEEE6insertENS_11__wrap_iterIPKcEEjc
bNd:__ZNSt3__221__thread_specific_ptrINS_15__thread_structEEC2Ev
Acb:__ZN12CppLuaBridgeD2Ev
vbb:__ZN16PushEventVisitorC2EP9lua_StateP12CppLuaBridge
T7:__ZNSt3__213move_backwardINS_4pairIP5TimeriEEPS4_RS4_PS5_iLi0ES4_S5_S6_S7_iLi0EEENS_16__deque_iteratorIT5_T6_T7_T8_T9_XT10_EEENS8_IT_T0_T1_T2_T3_XT4_EEESK_SE_
ifc:_bc_add
vzc:_FT_Get_Glyph
nBb:_png_get_fixed_point
KS:__ZN15MaxRectsBinPack13PruneFreeListEv
Yqa:__ZNSt3__26__treeIPN21GGSampleOpenALManager7ChannelENS_4lessIS3_EENS_9allocatorIS3_EEE12__find_equalIS3_EERPNS_16__tree_node_baseIPvEERPNS_15__tree_end_nodeISD_EERKT_
ZJa:__ZNSt3__227__insertion_sort_incompleteIRPFbRKN12_GLOBAL__N_115LightweightPairIiiEES5_EPS3_EEbT0_SA_T_
Pwb:_png_get_header_version
_Sc:_exp2
Qnb:__ZN14GGAudioManager18ChannelSetPositionEmj
Aga:__ZNSt3__26vectorIN13ShaderProgram12ConstantDescENS_9allocatorIS2_EEE21__push_back_slow_pathIRKS2_EEvOT_
po:_dysize
bga:__ZN20gl2ShaderBufferCacheD2Ev
Lsd:__ZNSt3__2L15utf16be_to_ucs2EPKhS1_RS1_PtS3_RS3_mNS_12codecvt_modeE
M9:__ZNK14ColorTransform15greenMultiplierEv
JUd:mftCall_did
hyb:_png_reset_filter_heuristics
ZRd:__ZNSt3__26vectorINS0_IN10__cxxabiv112_GLOBAL__N_111string_pairENS2_11short_allocIS3_Lj4096EEEEENS4_IS6_Lj4096EEEE26__swap_out_circular_bufferERNS_14__split_bufferIS6_RS7_EE
Pcd:__ZNSt3__29basic_iosIcNS_11char_traitsIcEEE9set_rdbufEPNS_15basic_streambufIcS2_EE
qQ:__ZNSt3__212__deque_baseI5ColorNS_9allocatorIS1_EEE3endEv
JZb:__ZL4exprP8LexStateP7expdesc
kK:__ZNK9Particles6getTagEi
vVd:mftCall_vidid
Cv:_emscripten_vr_version_minor
rJd:__ZNKSt3__212basic_stringIwNS_11char_traitsIwEENS_9allocatorIwEEE17find_first_not_ofEwj
rsa:__ZN10emscripten8internal17DestructorsRunnerC2EPNS0_15_EM_DESTRUCTORSE
Kjd:__ZNKSt3__27num_getIwNS_19istreambuf_iteratorIwNS_11char_traitsIwEEEEE23__do_get_floating_pointIeEES4_S4_S4_RNS_8ios_baseERjRT_
$v:_expf
nTc:___FLOAT_BITS_267
Qz:_glVertexAttrib3f
cab:__ZN12MatrixBinder17setAnchorPositionEP9lua_State
aw:_expl
ehd:__ZNSt3__213basic_ostreamIwNS_11char_traitsIwEEElsEy
Y0a:__ZN12Box2DBinder224b2WeldJoint_setFrequencyEP9lua_State
KWa:__ZN21TextInputDialogBinder12getInputTypeEP9lua_State
Ki:___syscall194
Zza:__ZN12b2WheelJoint24SolveVelocityConstraintsERK12b2SolverData
B4a:__ZN7b2Joint11SetUserDataEPv
W$a:__ZN12Box2DBinder220b2Contact_setEnabledEP9lua_State
jJb:_create_colormap
dka:__ZN14NetworkManager14setProjectNameERKNSt3__26vectorIcNS0_9allocatorIcEEEE
hK:__ZN9Particles8setDecayEiffff
dta:__ZN10emscripten8internal20writeGenericWireTypeIhEEvRPNS0_15GenericWireTypeERKNS_11memory_viewIT_EE
Spd:__ZNKSt3__27codecvtIwc11__mbstate_tE9do_lengthERS1_PKcS5_j
Sh:___gcc_personality_v0
ybb:__ZN16PushEventVisitor5visitEP15EnterFrameEvent
rJc:__ZN10emscripten8internal6TypeIDImE3getEv
Mvc:_cf2_getOtherBlues
nE:_pthread_rwlock_timedwrlock
FVc:_significand
jHb:_smoothing_ok
lkc:_get_sfnt_table
EPd:__ZN10__cxxabiv112_GLOBAL__N_111short_allocINSt3__26vectorINS0_11string_pairENS1_IS4_Lj4096EEEEELj4096EE10deallocateEPS6_j
Bwc:_cff_encoding_done
Hoa:__ZN12_GLOBAL__N_121GGStreamOpenALManager22deleteSourceAndBuffersEPNS0_7ChannelE
xMb:_h2v1_downsample
RUb:__ZL9sweeplistP9lua_StatePP8GCObjectj
Kec:_bc_fill
Qwa:__ZN16b2PolygonContact8EvaluateEP10b2ManifoldRK11b2TransformS4_
qE:_pthread_rwlock_unlock
kn:_alarm
pu:_emscripten_set_canvas_size
PPb:__ZN11CPVRTString6appendERKS_jj
sl:__emval_strictly_equals
eK:__ZN9Particles8setColorEijf
TF:_wait4
Hsb:_g_putc_unlocked
trb:_g_enableTypeChecking
Ry:_glIsTexture
nXa:__ZN15GyroscopeBinder11isAvailableEP9lua_State
Gwa:__ZN17b2ContactListenerD2Ev
CXa:__ZN17GeolocationBinder11setAccuracyEP9lua_State
fMd:__ZTv0_n12_NSt3__29strstreamD0Ev
Sxb:_png_build_gamma_table
vIb:_h2v1_upsample
uMc:___FLOAT_BITS_28
nBa:__ZNK9b2Simplex16GetWitnessPointsEP6b2Vec2S1_
mxb:_png_xy_from_XYZ
ura:__Z12setKeepAwakeb
fuc:_cf2_setError
rT:__ZN4Font11getAdvanceXEPKcfi
qLd:__ZNSt3__210to_wstringEl
YKd:__ZNKSt3__212_GLOBAL__N_114initial_stringINS_12basic_stringIcNS_11char_traitsIcEENS_9allocatorIcEEEExLb0EEclEv
Rjd:__ZNKSt3__27num_getIwNS_19istreambuf_iteratorIwNS_11char_traitsIwEEEEE17__do_get_unsignedImEES4_S4_S4_RNS_8ios_baseERjRT_
zra:__Z13getDeviceNamev
h8b:__ZN8pystring6centerERKNSt3__212basic_stringIcNS0_11char_traitsIcEENS0_9allocatorIcEEEEi
nMa:__ZN9b2Fixture6CreateEP16b2BlockAllocatorP6b2BodyPK12b2FixtureDef
WBa:__ZN12b2BroadPhase9MoveProxyEiRK6b2AABBRK6b2Vec2
uh:___clock_gettime
fR:__ZNSt3__26vectorIfNS_9allocatorIfEEE8allocateEj
UOa:__ZN15b2SlabAllocatorI16b2ParticleHandleE12AllocateSlabEv
B$c:_mkptr4
X_:__ZL12easeOutQuartd
tcb:__ZN15EventDispatcher16addEventListenerI8LuaEvent12CppLuaBridgeS1_EEvRK9EventTypeIT_EPT0_MS8_FvPT1_E
emc:_gray_line_to
$Rc:_strcpy
sT:__ZN4Font20getCharIndexAtOffsetEPKcffi
X7a:__ZN12SpriteBinder8setSkewYEP9lua_State
p4c:_strtold
Lcd:__ZNSt3__28ios_base4moveERS0_
WUd:mftCall_iiii
Z1b:__ZL11luaB_xpcallP9lua_State
aBd:__ZNSt3__217declare_reachableEPv
WBb:_png_read_image
Uuc:_cf2_arrstack_finalize
d8a:__ZN12SpriteBinder8getScaleEP9lua_State
Cba:__ZNSt3__214__split_bufferIP7Matrix4RNS_9allocatorIS2_EEE9push_backEOS2_
TTb:_unzOpen2_64
dV:__ZL10startsWithRKNSt3__212basic_stringIcNS_11char_traitsIcEENS_9allocatorIcEEEES7_
BGc:_check_envelope_fade
Rpa:__ZN17GGStreamInterface20AdvanceStreamBuffersEv
O$:__ZN9MovieClip5FrameC2ERKS0_
$7a:__ZN12SpriteBinder17getAnchorPositionEP9lua_State
dGd:__ZNKSt3__212basic_stringIcNS_11char_traitsIcEENS_9allocatorIcEEE7compareEjjPKc
qc:ftCall_viiiiddi
UKc:_casin
Ymb:__ZNSt3__26__treeINS_12__value_typeImPN14GGSoundManager7ChannelEEENS_19__map_value_compareImS5_NS_4lessImEELb1EEENS_9allocatorIS5_EEE16__construct_nodeIJRKNS_21piecewise_construct_tENS_5tupleIJRKmEEENSH_IJEEEEEENS_10unique_ptrINS_11__tree_nodeIS5_PvEENS_22__tree_node_destructorINSA_ISP_EEEEEEDpOT_
JZ:__ZN17GridBagLayoutInfoC2Ev
hJb:_finish_pass_1_quant
zLd:__ZNSt3__210to_wstringEy
_Q:__ZNSt3__214__split_bufferIN5GMesh5ColorERNS_9allocatorIS2_EEED2Ev
vYc:_socket
Puc:_cf2_arrstack_size
kec:_INT123_synth_ntom_m2s
ssb:_g_fputs
vzb:_png_get_user_width_max
bhc:_INT123_get_songlen
NK:__ZNK15EventDispatcher16hasEventListenerI10TouchEventEEbRK9EventTypeIT_E
JWa:__ZN21TextInputDialogBinder12setInputTypeEP9lua_State
dqb:__ZNSt3__26__treeINS_12__value_typeINS_12basic_stringIcNS_11char_traitsIcEENS_9allocatorIcEEEE8FileInfoEENS_19__map_value_compareIS7_S9_NS_4lessIS7_EELb1EEENS5_IS9_EEE5clearEv
B8a:__ZN12SpriteBinder3getEP9lua_State
xha:__ZTv0_n12_NSt3__219basic_ostringstreamIcNS_11char_traitsIcEENS_9allocatorIcEEED1Ev
s7:__ZNSt3__26__treeIP5TimerNS_4lessIS2_EENS_9allocatorIS2_EEE5eraseENS_21__tree_const_iteratorIS2_PNS_11__tree_nodeIS2_PvEEiEE
ap:_emscripten_asm_const_iiiiiiiii
hXb:_lua_pushvalue
VRd:__ZNSt3__212basic_stringIcNS_11char_traitsIcEEN10__cxxabiv112_GLOBAL__N_112malloc_allocIcEEE7replaceEjjPKcj
DSa:__ZNSt3__214__split_bufferIPN14LuaApplication12AsyncLuaTaskERNS_9allocatorIS3_EEED2Ev
Juc:_cf2_stack_pushInt
_F:craftInvokerFunction
Uwa:__Z17b2CollidePolygonsP10b2ManifoldPK14b2PolygonShapeRK11b2TransformS3_S6_
Lpa:__ZNSt3__26__treeINS_12__value_typeImPN12_GLOBAL__N_121GGStreamOpenALManager5SoundEEENS_19__map_value_compareImS6_NS_4lessImEELb1EEENS_9allocatorIS6_EEE7destroyEPNS_11__tree_nodeIS6_PvEE
ON:__ZNSt3__26vectorI6Point2IfENS_9allocatorIS2_EEE8allocateEj
Wud:__ZNKSt3__28time_getIwNS_19istreambuf_iteratorIwNS_11char_traitsIwEEEEE11get_weekdayES4_S4_RNS_8ios_baseERjP2tm
Xuc:_cf2_hintmask_setAll
Xdd:__ZNSt3__215basic_streambufIwNS_11char_traitsIwEEE10pubseekposENS_4fposI11__mbstate_tEEj
O:Math_log
pcd:__ZNKSt3__29basic_iosIcNS_11char_traitsIcEEE3badEv
i5a:__ZN17b2ContactListenerC2Ev
eFc:_virt_setnna
dF:_sigpending
g5c:_wcpcpy
YHc:_mread24l
PRb:_internal_gluTessBeginContour
J3:__ZNSt3__214__split_bufferIP11TextureDataRNS_9allocatorIS2_EEEC2EjjS5_
mva:__Z5b2MinIfET_S0_S0_
qUc:___lgamma_r
dXd:___cxa_rethrow__wrapper
x_c:_strspn
Lda:__ZN7Matrix23setEffff
wrb:__ZL20constructor_postInitP9lua_State
LP:__ZNK8Matrix2D7inverseEv
rx:_glDeleteShader
CC:_llvm_maxnum_f64
e4b:__ZL12Lutf8_escapeP9lua_State
Foc:_tt_glyph_load
Lmb:__ZNSt3__26__treeINS_12__value_typeImPN14GGSoundManager5SoundEEENS_19__map_value_compareImS5_NS_4lessImEELb1EEENS_9allocatorIS5_EEE12__find_equalImEERPNS_16__tree_node_baseIPvEERPNS_15__tree_end_nodeISH_EERKT_
GUc:_llroundf
HRc:_iswxdigit_l
imc:_gray_render_line
dJa:__ZNSt3__213__lower_boundIRPFbRKN16b2ParticleSystem4PairES4_EPS2_S2_EET0_S9_S9_RKT1_T_
qCc:_FT_Get_Renderer
gPd:__ZNK10__cxxabiv122__base_class_type_info16search_above_dstEPNS_19__dynamic_cast_infoEPKvS4_ib
ZP:__ZNSt3__26vectorIN7TileMap6TileIdENS_9allocatorIS2_EEE6resizeEjRKS2_
RCc:_FT_Stream_TryRead
JQa:__ZNK14LuaApplication10isErrorSetEv
lw:_fork
r$a:__ZN18b2FrictionJointDefC2Ev
drb:__ZN13PluginManagerC2Ev
Pfa:__ZNSt3__26vectorIcNS_9allocatorIcEEE8allocateEj
$J:__ZN9Particles7getSizeEi
CF:_usleep
ucd:__ZNSt3__29basic_iosIcNS_11char_traitsIcEEE4initEPNS_15basic_streambufIcS2_EE
bFd:__ZNSt3__212basic_stringIcNS_11char_traitsIcEENS_9allocatorIcEEE7replaceEjjPKcj
_xb:_png_image_free_function
v4a:__ZN16b2ParticleSystem17GetPositionBufferEv
Rxc:_t1_hints_funcs_init
MGa:__ZN16b2ParticleSystem19UpdateAllGroupFlagsEv
Tia:__ZL8new_pathP16reduced_path_vec
rSc:___wcsxfrm_l
nHc:_xmp_free_context
Lg:_TTF_RenderText_Blended
X5c:_ctermid
hYd:_glGetProgramInfoLog__wrapper
mMa:__ZN8b2FilterC2Ev
DIc:__ZN12_GLOBAL__N_1L20register_memory_viewIhEEvPKc
vRa:__ZL13lzlib_inflateP9lua_State
$ob:_gaudio_BackgroundChannelStop
BS:__ZN15MaxRectsBinPackC2Ev
h4:__ZNSt3__214__split_bufferIN8TTBMFont8FontFaceERNS_9allocatorIS2_EEE18__construct_at_endEj
Oyb:_png_get_x_offset_inches_fixed
asc:_Ins_SCANTYPE
Cpb:_gaudio_XmpOpen
QLb:_emit_bits_s
IRc:_isxdigit_l
NPc:_shl
$ta:_ggeolocation_setAccuracy
Nyb:_png_get_y_pixels_per_inch
$0c:_hexval_539
X_a:__ZN12Box2DBinder220b2EdgeShape_destructEP9lua_State
WJb:_jpeg_read_coefficients
tbd:__ZNSt3__215basic_streambufIwNS_11char_traitsIwEEE9pbackfailEj
wad:__ZNSt3__211unique_lockINS_5mutexEE6unlockEv
ayd:__ZNSt3__26locale5__imp7installINS_7codecvtIDsc11__mbstate_tEEEEvPT_
FMd:__ZNKSt3__223__system_error_category23default_error_conditionEi
kwb:_png_longjmp
WWc:_a_cas
Kld:__ZNKSt3__28time_getIwNS_19istreambuf_iteratorIwNS_11char_traitsIwEEEEE12__get_minuteERiRS4_S4_RjRKNS_5ctypeIwEE
lDb:_png_set_cHRM
Zad:__ZNSt3__215basic_streambufIcNS_11char_traitsIcEEE6setbufEPci
$1c:___freadptr
r9:___cxx_global_var_init_317
Bvc:_cf2_getSubfont
_Qa:__ZNKSt3__26__treeINS_12__value_typeIibEENS_19__map_value_compareIiS2_NS_4lessIiEELb1EEENS_9allocatorIS2_EEE10__root_ptrEv
B0:__ZN8SlotBaseD0Ev
vWc:_wrap_write
wPd:__ZN10__cxxabiv112_GLOBAL__N_111string_pairD2Ev
LJ:__ZNSt3__26vectorIhNS_9allocatorIhEEE8__appendEj
sLc:_catanh
ES:__ZN15MaxRectsBinPack6InsertEiiNS_23FreeRectChoiceHeuristicE
eU:__ZNSt3__214__split_bufferIiRNS_9allocatorIiEEED2Ev
umc:_ft_smooth_render_lcd
oEa:__ZN15b2TypedFreeListI16b2ParticleHandleED2Ev
qBb:_png_cache_unknown_chunk
a1:__ZN15EventDispatcher16addEventListenerI15EnterFrameEvent9MovieClipS1_EEvRK9EventTypeIT_EMT0_FvPT1_E
bOc:_isalnum
Kmc:_af_latin_hints_compute_blue_edges
yBb:_png_combine_row
y7:__ZNK5Timer7runningEv
QGa:__ZN16b2ParticleSystem12ComputeDepthEv
ZNb:__ZNK11NetworkBase11isConnectedEv
Zba:__ZN6Sprite9setScaleXEf
yka:__ZNSt3__26__treeINS_12__value_typeINS_12basic_stringIcNS_11char_traitsIcEENS_9allocatorIcEEEENS_6vectorIhNS5_IhEEEEEENS_19__map_value_compareIS7_SB_NS_4lessIS7_EELb1EEENS5_ISB_EEE4findIS7_EENS_15__tree_iteratorISB_PNS_11__tree_nodeISB_PvEEiEERKT_
Jja:_cubicto
BJ:__ZNSt3__214__split_bufferItRNS_9allocatorItEEE18__construct_at_endEj
_Nd:__ZNK10__cxxabiv120__si_class_type_info16search_above_dstEPNS_19__dynamic_cast_infoEPKvS4_ib
nSd:__ZN10__cxxabiv112_GLOBAL__N_111short_allocINS0_11string_pairELj4096EEC2ERNS0_5arenaILj4096EEE
r2:__ZN6TTFont12getDescenderEv
oga:__ZN17ogl2ShaderProgram8resetAllEv
nDd:__ZNSt3__212basic_stringIcNS_11char_traitsIcEENS_9allocatorIcEEEC2ERKS5_jRKS4_
eka:__ZN14NetworkManager10deleteFileERKNSt3__26vectorIcNS0_9allocatorIcEEEE
auc:_cf2_setGlyphWidth
L9c:__ZNKSt3__211__libcpp_db17__find_c_and_lockEPv
abd:__ZNSt3__215basic_streambufIcNS_11char_traitsIcEEE4syncEv
Cbb:__ZN16PushEventVisitor5visitEP18AccelerometerEvent
Rfb:_md5_finish
ega:__ZNSt3__23setIP20gl2ShaderBufferCacheNS_4lessIS2_EENS_9allocatorIS2_EEED2Ev
wUc:_sin_pi
KVd:mftCall_viiidddiiddi
P4b:__ZL12utf8_iscntrlj
m_a:__ZN14LuaApplication12isPlayerModeEv
DC:_llvm_memory_barrier
kw:_floorl
uQa:__ZNSt3__26__treeINS_12__value_typeIibEENS_19__map_value_compareIiS2_NS_4lessIiEELb1EEENS_9allocatorIS2_EEEC2ERKS6_
e7a:__ZN17TextureBaseBinder9getHeightEP9lua_State
nGa:__ZN8b2Island6ReportEPK27b2ContactVelocityConstraint
ynb:__ZN14GGSoundManager28ChannelRemoveCallbackWithGidEmm
BPc:___procfdname
yJ:__ZNSt3__26vectorItNS_9allocatorItEEE18__construct_at_endEj
mHb:_start_pass_huff_decoder
eId:__ZNKSt3__212basic_stringIwNS_11char_traitsIwEENS_9allocatorIwEEE4backEv
njc:_tt_cmap13_char_next
ni:___syscall133
mi:___syscall132
fcc:_INT123_frame_index_find
FWd:_pthread_cond_timedwait__wrapper
HVc:_sincos
Qdc:_INT123_synth_2to1_s32
dcc:_INT123_frame_bitrate
nta:___cxx_global_var_init_602
wyc:_psh_hint_table_record_mask
hda:__ZNK9Transform1xEv
Lfb:_AES128_CBC_encrypt_buffer
jdd:__ZNSt3__29basic_iosIwNS_11char_traitsIwEEE4fillEw
Aoc:_tt_face_init
eVd:mftCall_iiiiiiiiiiii
w6c:_pause
mnd:__ZNSt3__210moneypunctIwLb0EED2Ev
M7b:__ZN8pystring5stripERKNSt3__212basic_stringIcNS0_11char_traitsIcEENS0_9allocatorIcEEEES8_
DTa:__ZN11PixelBinder8destructEP9lua_State
qfa:__ZN16ogl2ShaderBuffer16needDepthStencilEv
N4:__ZNSt3__214__split_bufferINS_6vectorI6Point2IfENS_9allocatorIS3_EEEERNS4_IS6_EEED2Ev
Eld:__ZNKSt3__28time_getIwNS_19istreambuf_iteratorIwNS_11char_traitsIwEEEEE3getES4_S4_RNS_8ios_baseERjP2tmPKwSC_
ufa:__ZN12ShaderBufferC2Ev
G7c:__ZNSt3__26__sortIRNS_6__lessIttEEPtEEvT0_S5_T_
pac:__ZN6snappy6Varint8Append32EPNSt3__212basic_stringIcNS1_11char_traitsIcEENS1_9allocatorIcEEEEj
nod:__ZNSt3__217moneypunct_bynameIwLb1EED2Ev
yLc:_cosh
z7c:__ZNSt3__227__insertion_sort_incompleteIRNS_6__lessIhhEEPhEEbT0_S5_T_
OQc:_evalprim
j1:__ZNSt3__26__treeIP15EventDispatcherNS_4lessIS2_EENS_9allocatorIS2_EEE16__insert_node_atEPNS_15__tree_end_nodeIPNS_16__tree_node_baseIPvEEEERSC_SC_
JXa:__ZN17GeolocationBinder20stopUpdatingLocationEP9lua_State
mB:_gluLookAt
Lka:__ZNSt3__26__treeINS_12__value_typeINS_12basic_stringIcNS_11char_traitsIcEENS_9allocatorIcEEEENS_6vectorIhNS5_IhEEEEEENS_19__map_value_compareIS7_SB_NS_4lessIS7_EELb1EEENS5_ISB_EEE16__insert_node_atEPNS_15__tree_end_nodeIPNS_16__tree_node_baseIPvEEEERSM_SM_
UX:__ZNK9TextField11extraBoundsEPfS0_S0_S0_
vbd:__ZNSt3__215basic_streambufIwNS_11char_traitsIwEEE8overflowEj
L$a:__ZL23tableToParticleGroupDefP9lua_StateiP18b2ParticleGroupDeff
gld:__ZNKSt3__28time_getIcNS_19istreambuf_iteratorIcNS_11char_traitsIcEEEEE13__get_percentERS4_S4_RjRKNS_5ctypeIcEE
Jla:__ZN20GGApplicationManager12enqueueEventEiPvi
$cb:__Z15setEnvironTableP9lua_State
TSa:__ZN12ScreenBinder8setStateEP9lua_State
Sqc:_Ins_SHPIX
W5b:__ZL10str_formatP9lua_State
nwc:_cff_builder_start_point
zFc:_xmp_end_player
Dyb:_png_get_pixels_per_meter
Gma:__ZN6ginput12InputManager14convertKeyCodeEPKc
CLc:_expm1
xa:invoke_id
KLc:___frexp_expf
za:invoke_ii
Oga:__ZN17ogl2ShaderTextureD2Ev
qv:_emscripten_vr_get_display_capabilities
LCb:_png_image_read_and_map
Oia:__ZL13path_commandsjiPKhiPKf
scc:_INT123_frame_set_frameseek
mRb:___gl_renderMesh
lBa:__ZNK15b2DistanceProxy10GetSupportERK6b2Vec2
_Ka:__ZN12_GLOBAL__N_122TypedFixedSetAllocatorINS_15LightweightPairIP9b2FixtureiEEEC2EP16b2StackAllocator
xza:__ZN13b2PulleyJoint23InitVelocityConstraintsERK12b2SolverData
Lbd:__ZNSt3__213basic_ostreamIcNS_11char_traitsIcEEED0Ev
eE:_pthread_mutexattr_setprotocol
ACb:_png_set_rgb_to_gray_fixed
kfa:__ZN13ShaderProgram17shaderInitializedEv
F5b:__ZL8math_maxP9lua_State
qid:__ZNSt3__26locale5facet16__on_zero_sharedEv
jzb:_png_get_sCAL
dKb:_jpeg_fdct_ifast
cGa:__ZN8b2Island3AddEP7b2Joint
Zwb:_png_chunk_benign_error
OGd:__ZNSt3__212basic_stringIwNS_11char_traitsIwEENS_9allocatorIwEEEC2ESt16initializer_listIwE
qHa:__ZZN16b2ParticleSystem14SolveCollisionERK10b2TimeStepEN22SolveCollisionCallbackC2EPS_S2_
hPc:_wcwidth
AJd:__ZNKSt3__212basic_stringIwNS_11char_traitsIwEENS_9allocatorIwEEE7compareEjjPKwj
AJc:__ZN10emscripten8internal11LightTypeIDItE3getEv
LGa:__ZN16b2ParticleSystem22UpdateAllParticleFlagsEv
u1a:__ZN12b2WheelJoint20SetSpringFrequencyHzEf
bfc:_feed_init
SIb:_new_color_map_2_quant
pJc:__ZN10emscripten8internal6TypeIDIfE3getEv
HVb:_luaV_lessthan
r2a:__ZN12Box2DBinder229b2RevoluteJoint_setMotorSpeedEP9lua_State
qMd:__ZNSt3__212strstreambuf4swapERS0_
dFd:__ZNSt3__212basic_stringIcNS_11char_traitsIcEENS_9allocatorIcEEE7replaceEjjRKS5_jj
z9c:__ZNSt3__214__get_const_dbEv
lnc:_af_shaper_get_elem
_eb:__ZN5EventD0Ev
OQa:__ZN11Application8setScaleEf
JCc:_FT_Get_TrueType_Engine_Type
Wfb:__Z20getDirectoryListingRPKcPNSt3__26vectorINS1_12basic_stringIcNS1_11char_traitsIcEENS1_9allocatorIcEEEENS6_IS8_EEEESB_
ssd:__ZNKSt3__215__codecvt_utf16IwLb1EE6do_outER11__mbstate_tPKwS5_RS5_PcS7_RS7_
lx:_glCullFace
lXc:_getcwd
zZ:__ZNSt3__213__vector_baseIdNS_9allocatorIdEEED2Ev
iqb:__ZNSt3__26__treeINS_12__value_typeINS_12basic_stringIcNS_11char_traitsIcEENS_9allocatorIcEEEE8FileInfoEENS_19__map_value_compareIS7_S9_NS_4lessIS7_EELb1EEENS5_IS9_EEE16__construct_nodeIJRKNS_21piecewise_construct_tENS_5tupleIJOS7_EEENSK_IJEEEEEENS_10unique_ptrINS_11__tree_nodeIS9_PvEENS_22__tree_node_destructorINS5_ISR_EEEEEEDpOT_
jKc:___stdio_write
vib:__ZNSt3__23mapImPN9g_private14TextureElementENS_4lessImEENS_9allocatorINS_4pairIKmS3_EEEEED2Ev
U5b:__ZL8str_dumpP9lua_State
Grc:_Ins_CEILING
h7:__ZNSt3__26__treeINS_12__value_typeIdNS_6vectorIP5TimerNS_9allocatorIS4_EEEEEENS_19__map_value_compareIdS8_NS_4lessIdEELb1EEENS5_IS8_EEE16__insert_node_atEPNS_15__tree_end_nodeIPNS_16__tree_node_baseIPvEEEERSJ_SJ_
zgb:__ZNSt3__26vectorINS_12basic_stringIcNS_11char_traitsIcEENS_9allocatorIcEEEENS4_IS6_EEE10deallocateEv
PJa:__ZNK12_GLOBAL__N_122TypedFixedSetAllocatorINS_15LightweightPairIiiEEE8GetIndexEPKS2_
u4c:_strtoumax
zLa:__ZNSt3__27__sort4IRN12_GLOBAL__N_124ExpirationTimeComparatorEPiEEjT0_S5_S5_S5_T_
TOc:___iswdigit_l
pBc:_IsMacBinary
Apa:__ZNSt3__26__treeINS_12__value_typeImPN12_GLOBAL__N_121GGStreamOpenALManager5SoundEEENS_19__map_value_compareImS6_NS_4lessImEELb1EEENS_9allocatorIS6_EEE13__lower_boundImEENS_15__tree_iteratorIS6_PNS_11__tree_nodeIS6_PvEEiEERKT_SJ_PNS_15__tree_end_nodeIPNS_16__tree_node_baseISH_EEEE
LEc:_readmem16b
bt:_emscripten_glUniform3iv
kDb:_png_set_cHRM_XYZ_fixed
TJc:_internal_memalign
BAa:__ZNK16b2StackAllocator16GetMaxAllocationEv
usc:_Move_Zp2_Point
z_a:__ZN13TileMapBinder8destructEP9lua_State
hEc:_readmem16l
Xmc:_af_latin_snap_width
b1c:_tre_compare_lit
qGc:_update_envelope
WKa:__ZNSt3__27__sort4IRPFbRKN12_GLOBAL__N_115LightweightPairIP9b2FixtureiEES7_EPS5_EEjT0_SC_SC_SC_T_
_sb:_gpath_setDrivePath
Rmb:__ZN14GGSoundManager14SoundGetLengthEm
Izd:__ZNSt3__26locale5__imp12make_classicEv
vv:_emscripten_vr_init
dLd:__ZNSt3__212_GLOBAL__N_19as_stringINS_12basic_stringIcNS_11char_traitsIcEENS_9allocatorIcEEEEPFiPcjPKczEfEET_T0_SD_PKNSD_10value_typeET1_
vGd:__ZNKSt3__212basic_stringIwNS_11char_traitsIwEENS_9allocatorIwEEE15__get_long_sizeEv
Qba:__ZN6Sprite3setEPKcfP7GStatus
Vyc:_t1_hints_stem
Udc:_INT123_synth_4to1_s32
xHc:_xmp_channel_vol
fNc:_pop_arg
pKa:__ZN12_GLOBAL__N_122TypedFixedSetAllocatorINS_15LightweightPairIP9b2FixtureiEEE9GetBufferEv
AHb:_decode_mcu_DC_refine
kVd:mftCall_vidd
pGa:__ZN15b2ContactSolverD2Ev
wAc:_FT_Stroker_ParseOutline
hUb:_unz64local_CheckCurrentFileCoherencyHeader
MG:requireHandle
xL:__ZNSt3__26vectorIP6SpriteNS_9allocatorIS2_EEE8__appendEj
Tz:_glVertexAttrib4fv
VSa:__ZN12ScreenBinder10getMaxSizeEP9lua_State
Cwb:_png_create_info_struct
T7a:__ZN12SpriteBinder9setScaleXEP9lua_State
i0:__ZN15EventDispatcher19removeEventListenerI15EnterFrameEvent9MovieClipS1_EEvRK9EventTypeIT_EMT0_FvPT1_E
ph:___atomic_load_8
DEd:__ZNSt3__212basic_stringIcNS_11char_traitsIcEENS_9allocatorIcEEE10__set_sizeEj
el:__emval_get_global
kmd:__ZNSt3__215time_get_bynameIwNS_19istreambuf_iteratorIwNS_11char_traitsIwEEEEED2Ev
Fka:__ZN14NetworkManager7loadMD5Ev
Ewc:_CFF_Done_FD_Select
_Mc:_vsnprintf
M6c:_setpgrp
yla:__ZN20GGApplicationManagerD2Ev
q8c:__ZNSt3__27__sort4IRNS_6__lessIyyEEPyEEjT0_S5_S5_S5_T_
jgb:__ZNSt3__214__split_bufferIPNS_12basic_stringIcNS_11char_traitsIcEENS_9allocatorIcEEEENS4_IS7_EEE10push_frontEOS7_
U:abort
iTa:__ZN15ParticlesBinder14setParticleTtlEP9lua_State
kh:___atomic_fetch_and_8
Zrc:_Ins_ROLL
Akb:__ZNSt3__26__treeIPN9g_private14TextureManager18TempTextureElementENS_4lessIS4_EENS_9allocatorIS4_EEE16__insert_node_atEPNS_15__tree_end_nodeIPNS_16__tree_node_baseIPvEEEERSE_SE_
Smc:_af_iup_shift
ayb:_png_destroy_write_struct
UXc:___fseeko_unlocked
KWc:_getgrouplist
Nha:__ZN6Path2D8drawPathEi7Matrix4PfS1_P11TextureDatabP13ShaderProgramPKS0_
SHc:_mopen
jba:__ZNSt3__212__deque_baseI9_cliprectNS_9allocatorIS1_EEE5beginEv
w3:__ZN8TTBMFont11ensureCharsEPKii
rFd:__ZNKSt3__212basic_stringIcNS_11char_traitsIcEENS_9allocatorIcEEE13get_allocatorEv
IBc:_FT_Raccess_Get_DataOffsets
tcc:_ignoreframe
XAc:_FT_Stream_Open
P_c:___res_msend_rc
ijd:__ZNSt3__214__num_get_base10__get_baseERNS_8ios_baseE
iQd:__ZN10__cxxabiv112_GLOBAL__N_117parse_source_nameINS0_2DbEEEPKcS4_S4_RT_
WUa:__ZN11AudioBinder22SoundChannel_setVolumeEP9lua_State
IUc:_roundl
tNc:_pthread_self
aRd:__ZN10__cxxabiv112_GLOBAL__N_122parse_unqualified_nameINS0_2DbEEEPKcS4_S4_RT_
ORa:__ZL15lzstream_removeP9lz_streamj
wI:stackRestore
EJd:__ZNKSt3__212basic_stringIwNS_11char_traitsIwEENS_9allocatorIwEEE7compareEPKw
sY:__ZN5Pixel13updateTextureEv
Bpb:_gaudio_Mp3Close
rSb:_DonePriorityQ
qK:__ZNK5Stage7isStageEv
Ald:__ZNSt3__2L12init_wmonthsEv
orb:_g_registerSuspendCallback
mwd:__ZNKSt3__210moneypunctIwLb0EE13decimal_pointEv
uxc:_cff_get_mm_var
YAd:__ZNSt3__28__sp_mut4lockEv
uz:_glUniform1iv
G$b:__ZL9DumpBlockPKvjP9DumpState
Btc:_cff_size_init
i_:__ZNSt3__213__vector_baseIPN9MovieClip5FrameENS_9allocatorIS3_EEED2Ev
NDb:_png_set_write_fn
Jpa:__ZN16GGSoundInterfaceD2Ev
csa:_ghttp_Close
qSc:___pthread_self_232
UYa:__ZN12MovieClipLua8destructEP9lua_State
v1b:__ZL9auxresumeP9lua_StateS0_i
Fhd:__ZNSt3__28ios_base15sync_with_stdioEb
S9a:__ZN12MatrixBinder9getScaleZEP9lua_State
ysb:___sflags
Ft:_emscripten_gluUnProject
AHa:__ZNK13b2DynamicTree5QueryI19b2WorldQueryWrapperEEvPT_RK6b2AABB
rCb:_png_set_benign_errors
XNa:__ZN12b2WheelJoint13SetMotorSpeedEf
b4a:__ZN6b2Body18SetAngularVelocityEf
RNc:_BF_encrypt
wrd:__ZNKSt3__25ctypeIwE10do_tolowerEw
e$c:_ns_parserr
DAa:__ZN6b2DrawD2Ev
Yh:___muldc3
Uhc:_Horizontal_Sweep_Init
d3c:_open_memstream
XPc:_openat
Xqd:__ZNKSt3__212ctype_bynameIwE9do_narrowEwc
p5c:_wcscat
QO:__ZN11TexturePack4RectC2Ev
iea:__ZN12ShaderEngine21setViewportProjectionE7Matrix4ff
aCd:__ZNKSt3__213random_device7entropyEv
b9:__ZNSt3__26__treeINS_12__value_typeINS_12basic_stringIcNS_11char_traitsIcEENS_9allocatorIcEEEEN6Sprite11ShaderParamEEENS_19__map_value_compareIS7_SA_NS_4lessIS7_EELb1EEENS5_ISA_EEED2Ev
Rwb:_png_chunk_unknown_handling
cnd:__ZNSt3__210moneypunctIcLb1EED0Ev
dbc:_INT123_init_icy
oC:_llvm_exp_f32
_Ma:__ZN16b2PrismaticJoint11EnableMotorEb
Wmb:__ZNSt3__26__treeINS_12__value_typeImPN14GGSoundManager7ChannelEEENS_19__map_value_compareImS5_NS_4lessImEELb1EEENS_9allocatorIS5_EEE25__emplace_unique_key_argsImJRKNS_21piecewise_construct_tENS_5tupleIJRKmEEENSH_IJEEEEEENS_4pairINS_15__tree_iteratorIS5_PNS_11__tree_nodeIS5_PvEEiEEbEERKT_DpOT0_
zNc:_swapc
DQb:__ZNK11CPVRTString4sizeEv
VEd:__ZNSt3__212basic_stringIcNS_11char_traitsIcEENS_9allocatorIcEEE6insertENS_11__wrap_iterIPKcEEc
h9a:__ZN12MatrixBinderC2EP9lua_State
BDa:__ZN23b2ChainAndCircleContactC2EP9b2FixtureiS1_i
Hja:_lineto
Hv:_emscripten_webgl_get_current_context
Vc:RegisteredPointer_fromWireType
Z8a:__ZN9Transform6setXYZEfff
oRa:__ZL10crypto_md5P9lua_State
Mpd:__ZNSt3__214codecvt_bynameIwc11__mbstate_tED0Ev
sXd:b36
xk:__embind_register_class_function
Szd:__ZNSt3__26locale5__imp12install_fromINS_7codecvtIDsc11__mbstate_tEEEEvRKS1_
xaa:__ZNSt3__214__split_bufferIPPK6SpriteRNS_9allocatorIS4_EEE9push_backEOS4_
mac:_snappy_uncompress
Lx:_glDrawElementsInstanced
EG:makeClassHandle
Yr:_emscripten_glGetShaderPrecisionFormat
lOd:__ZNSt9exceptionD2Ev
pI:FUNCTION_TABLE_viiiiiiiii
N$c:_rand
sTc:_dd_add
VLd:__ZTv0_n12_NSt3__210istrstreamD0Ev
jfb:__ZNSt3__26__treeINS_12__value_typeIPvP11GReferencedEENS_19__map_value_compareIS2_S5_NS_4lessIS2_EELb1EEENS_9allocatorIS5_EEE5eraseENS_21__tree_const_iteratorIS5_PNS_11__tree_nodeIS5_S2_EEiEE
Ebc:_bad_skip_bytes
cyc:_psh_glyph_find_strong_points
AVc:_scalbf
mGc:_process_pan
yj:___syscall306
zj:___syscall307
wj:___syscall304
xj:___syscall305
uj:___syscall302
vj:___syscall303
sj:___syscall300
tj:___syscall301
Mdd:__ZNKSt3__215basic_streambufIcNS_11char_traitsIcEEE5egptrEv
Tid:__ZNSt3__26locale2id5__getEv
Aj:___syscall308
N8c:__ZNSt3__212__rs_defaultC2ERKS0_
Zfa:__ZNSt3__26__treeIP20gl2ShaderBufferCacheNS_4lessIS2_EENS_9allocatorIS2_EEE12__find_equalIS2_EERPNS_16__tree_node_baseIPvEERPNS_15__tree_end_nodeISC_EERKT_
ejb:__ZNSt3__26__treeINS_12__value_typeImPN9g_private14TextureElementEEENS_19__map_value_compareImS5_NS_4lessImEELb1EEENS_9allocatorIS5_EEE16__insert_node_atEPNS_15__tree_end_nodeIPNS_16__tree_node_baseIPvEEEERSH_SH_
WW:__ZNSt3__26vectorINS_4pairINS_12basic_stringIcNS_11char_traitsIcEENS_9allocatorIcEEEEfEENS5_IS8_EEE6assignIPS8_EENS_9enable_ifIXaasr21__is_forward_iteratorIT_EE5valuesr16is_constructibleIS8_NS_15iterator_traitsISE_E9referenceEEE5valueEvE4typeESE_SE_
GRb:_noEdgeFlag
lyc:_psh_hint_table_find_strong_points
Yz:_glVertexAttribDivisorNV
lEb:_png_write_hIST
xja:_wsp
vba:__ZNSt3__25dequeI7Matrix4NS_9allocatorIS1_EEE8__appendINS_16__deque_iteratorIS1_PKS1_RS7_PKS8_iLi0EEEEEvT_SD_PNS_9enable_ifIXsr21__is_forward_iteratorISD_EE5valueEvE4typeE
BI:__ZN11LayoutEvent5applyEP12EventVisitor
k9b:__ZN6snappyL9HashBytesEji
bgb:__ZNSt3__214__split_bufferIPNS_12basic_stringIcNS_11char_traitsIcEENS_9allocatorIcEEEENS4_IS7_EEED2Ev
Sld:__ZNSt3__220__get_up_to_n_digitsIwNS_19istreambuf_iteratorIwNS_11char_traitsIwEEEEEEiRT0_S5_RjRKNS_5ctypeIT_EEi
vf:_SDL_LockAudio
YZ:__ZNK6Sprite6matrixEv
vsd:__ZNKSt3__215__codecvt_utf16IwLb1EE11do_encodingEv
G8a:__ZNSt3__23mapINS_12basic_stringIcNS_11char_traitsIcEENS_9allocatorIcEEEEN6Sprite11ShaderParamENS_4lessIS6_EENS4_INS_4pairIKS6_S8_EEEEEixERSC_
Ur:_emscripten_glGetQueryObjectuivEXT
iy:_glGetBooleanv
qXc:_getpid
FAb:_png_push_have_end
EVa:__ZL6appendRNSt3__26vectorIcNS_9allocatorIcEEEEPKvj_106
Pa:invoke_iiiiiii
o2c:_fgetwc
$h:___resumeException
M1:__ZN13GRenderTarget5clearEjfiiii
Kwb:_png_convert_to_rfc1123_buffer
_4b:__ZL17check_captureUTF8P14MatchStateUTF8i
l6c:_getlogin
ZN:__ZNSt3__214__split_bufferI6Point2IfERNS_9allocatorIS2_EEE18__construct_at_endEj
g8c:__ZNSt3__218__insertion_sort_3IRNS_6__lessImmEEPmEEvT0_S5_T_
t0a:__ZN12Box2DBinder222b2DebugDraw_clearFlagsEP9lua_State
Dxa:__ZNK12b2MouseJoint17GetReactionTorqueEf
f2a:__ZN12Box2DBinder230b2PrismaticJoint_getMotorSpeedEP9lua_State
kCa:__ZNK13b2DynamicTree13ComputeHeightEi
Tqa:__ZNSt3__26__treeINS_12__value_typeImPN21GGSampleOpenALManager7ChannelEEENS_19__map_value_compareImS5_NS_4lessImEELb1EEENS_9allocatorIS5_EEE25__emplace_unique_key_argsImJRKNS_21piecewise_construct_tENS_5tupleIJRKmEEENSH_IJEEEEEENS_4pairINS_15__tree_iteratorIS5_PNS_11__tree_nodeIS5_PvEEiEEbEERKT_DpOT0_
X4b:__ZL13utf8_isxdigitj
$Tc:_pone
Wka:__ZNK12luaException4whatEv
CDc:_hio_read32l
Lnd:__ZNKSt3__217moneypunct_bynameIcLb0EE16do_thousands_sepEv
Fdb:_block_is_prev_free
xe:_SDL_GL_SetSwapInterval
Xeb:__ZNSt3__24pairIKNS_12basic_stringIcNS_11char_traitsIcEENS_9allocatorIcEEEE8FileInfoED2Ev
H9a:__ZN12MatrixBinder8multiplyEP9lua_State
D6:__ZNK12GraphicsBase9getBoundsEPfS0_S0_S0_
lCa:__ZNK13b2DynamicTree13ComputeHeightEv
pXd:b33
rRd:__ZN10__cxxabiv112_GLOBAL__N_121parse_destructor_nameINS0_2DbEEEPKcS4_S4_RT_
Jic:_tt_cmap2_get_info
zjc:_tt_cmap14_char_variants
VEa:__ZN16b2ParticleSystem16ReallocateBufferIiEEPT_S2_iiib
Oua:__ZNK10emscripten8internal12WireTypePackIJNS_11memory_viewIhEEEEcvPKvEv
g5b:__ZL11utf8_tofoldj
ffc:_feed_seek_frame
WOa:__ZN24b2TypedIntrusiveListNodeI16b2ParticleHandleE23GetInstanceFromListNodeEP19b2IntrusiveListNode
Zx:_glGenFramebuffers
v6c:_nice
R8b:__ZN8pystring2os4path10dirname_ntERKNSt3__212basic_stringIcNS2_11char_traitsIcEENS2_9allocatorIcEEEE
GRc:_iswupper_l
fma:__ZNSt3__26vectorIP17ginput_TouchEventNS_9allocatorIS2_EEE26__swap_out_circular_bufferERNS_14__split_bufferIS2_RS4_EE
aU:__ZNSt3__213__vector_baseIiNS_9allocatorIiEEED2Ev
aOd:__ZNK10__cxxabiv120__si_class_type_info27has_unambiguous_public_baseEPNS_19__dynamic_cast_infoEPvi
SOd:__ZN10__cxxabiv123__fundamental_type_infoD0Ev
tnc:_ft_glyphslot_grid_fit_metrics
Cxa:__ZNK12b2MouseJoint16GetReactionForceEf
pVc:_remainder
nxb:_png_reciprocal
VP:__ZN7TileMap6doDrawERK7Matrix4ffff
UAa:__ZN6b2StatC2Ev
oKd:__ZNSt3__212_GLOBAL__N_110as_integerIyNS_12basic_stringIcNS_11char_traitsIcEENS_9allocatorIcEEEEEET_RKS7_RKT0_Pji
ekc:_FT_Stream_ReadAt
AGd:__ZNSt3__212basic_stringIwNS_11char_traitsIwEENS_9allocatorIwEEE18__get_long_pointerEv
Jea:__ZNSt3__214__split_bufferIPN12ShaderEngine7ScissorERNS_9allocatorIS3_EEE9push_backEOS3_
Jec:_mpg123_getstate
Vzd:__ZNSt3__26locale5__imp12install_fromINS_10moneypunctIcLb0EEEEEvRKS1_
QFd:__ZNKSt3__212basic_stringIcNS_11char_traitsIcEENS_9allocatorIcEEE17find_first_not_ofEPKcj
B8c:__ZNSt3__27__sort3IRNS_6__lessIddEEPdEEjT0_S5_S5_T_
Ijb:_gtexture_reuse
NMd:__ZNKSt3__215error_condition7messageEv
XId:__ZNKSt3__212basic_stringIwNS_11char_traitsIwEENS_9allocatorIwEEE4findEwj
Hq:_emscripten_glCompressedTexSubImage2D
YJc:_ialloc
Jpc:_TT_Clear_CodeRange
DBa:__ZN12b2BroadPhaseC2Ev
xA:_glfwGetNumberOfProcessors
rBc:_load_face_in_embedded_rfork
A4:__ZNKSt3__26vectorIP11TextureBaseNS_9allocatorIS2_EEE8max_sizeEv
Z4c:___strncasecmp_l
n1b:__ZL9base_openP9lua_State
N8a:__ZN6Sprite9setMatrixEPK9Transform
_0c:_tre_expand_macro
GY:__ZN11TextureBaseC2EP11ApplicationPKc6Filter4Wrap6Formatbjb
k_b:__ZL14closelistfieldP9FuncStateP11ConsControl
kxa:__ZN23b2EdgeAndPolygonContact8EvaluateEP10b2ManifoldRK11b2TransformS4_
pY:__ZN5Pixel13getDimensionsERfS0_
REa:__ZN16b2ParticleSystem16ReallocateBufferI15b2ParticleColorEEPT_S3_iiib
SYa:__ZN15MovieClipBinder11clearActionEP9lua_State
WHb:_jpeg_idct_12x6
ujd:__ZNSt3__225__num_get_signed_integralIlEET_PKcS3_Rji
R$:__ZNSt3__214__split_bufferIN9MovieClip5FrameERNS_9allocatorIS2_EEEC2EjjS5_
pQa:__ZNSt3__26__treeINS_12__value_typeIP7ClosureP11ProfileInfoEENS_19__map_value_compareIS3_S6_NS_4lessIS3_EELb1EEENS_9allocatorIS6_EEEC2ERKSA_
nac:_snappy_uncompressed_length
g_c:___bswap_32
pQ:__ZN5ColorC2Effff
TRd:__ZN10__cxxabiv112_GLOBAL__N_111short_allocINSt3__26vectorINS3_INS0_11string_pairENS1_IS4_Lj4096EEEEENS1_IS6_Lj4096EEEEELj4096EE8allocateEj
s4b:__ZL11utf8_lengthPKcS0_
QCa:__ZN9b2Contact7GetNextEv
aed:__ZNSt3__215basic_streambufIwNS_11char_traitsIwEEE5sgetcEv
qaa:__ZNSt3__212__deque_baseIPK6SpriteNS_9allocatorIS3_EEE3endEv
Ged:__ZNKSt3__213basic_istreamIcNS_11char_traitsIcEEE6sentrycvbEv
Lkc:_tt_face_get_metrics
m0:__ZNSt3__23mapIiNS_6vectorIP8SlotBaseNS_9allocatorIS3_EEEENS_4lessIiEENS4_INS_4pairIKiS6_EEEEEixEOi
Fja:_FT_Outline_Decompose_Ex
Uxa:__ZNK16b2PrismaticJoint10GetAnchorBEv
iwc:_cff_parse_fixed_dynamic
Kya:__ZNK11b2WeldJoint10GetAnchorAEv
fEd:__ZNSt3__212basic_stringIcNS_11char_traitsIcEENS_9allocatorIcEEE6resizeEj
z2c:_fputwc
tE:_pthread_rwlockattr_getpshared
MQa:__ZN14LuaApplication9addTickerEP6Ticker
UDb:_png_write_sBIT
iPd:__ZN10__cxxabiv117__pbase_type_infoD0Ev
t5c:_wcsncat
ePb:__ZL9TwiddleUVjjjj
vdd:__ZNSt3__215basic_streambufIcNS_11char_traitsIcEEE10pubseekposENS_4fposI11__mbstate_tEEj
kBb:_png_set_tRNS
V5c:_chdir
ul:__emval_typeof
MFa:__ZN16b2ParticleSystem21UserOverridableBufferI15b2ParticleColorEC2Ev
oJc:__ZN10emscripten8internal11LightTypeIDIdE3getEv
Oac:_good_enc
Lu:_emscripten_set_mousemove_callback
dtd:__ZNKSt3__215__codecvt_utf16IDiLb0EE13do_max_lengthEv
tOb:__ZN6ServerC2EtPKc
$Vb:_luaH_set
uCc:_FT_Remove_Module
IQ:__ZN5GMeshD2Ev
Yob:_gaudio_BackgroundMusicDelete
_za:__ZN12b2WheelJoint24SolvePositionConstraintsERK12b2SolverData
Ep:_emscripten_exit_fullscreen
Hyc:_ps_dimension_end_mask
e1c:_regerror
q7b:__ZL8findfileP9lua_StatePKcS2_
zy:_glGetShaderiv
Y0:__ZNK9EventTypeI13CompleteEventE4typeEv
dY:__ZN9TextField9setSampleEPKc
w4:__ZN5Shape14clearFillStyleEv
pkc:_sfnt_done_face
Rgd:__ZNSt3__213basic_ostreamIwNS_11char_traitsIwEEEC1EOS3_
nEd:__ZNKSt3__212basic_stringIcNS_11char_traitsIcEENS_9allocatorIcEEEixEj
o8:__ZNSt3__26vectorIcNS_9allocatorIcEEE6resizeEj
Dib:__ZNSt3__26__treeINS_12__value_typeINS_6vectorIcNS_9allocatorIcEEEEPN9g_private14TextureElementEEENS_19__map_value_compareIS5_S9_NS_4lessIS5_EELb1EEENS3_IS9_EEE7destroyEPNS_11__tree_nodeIS9_PvEE
_ic:_tt_cmap8_validate
RT:__ZN12GraphicsBaseC2ERKS_
GMc:___des_setkey
Fv:_emscripten_webgl_destroy_context
vEc:_it_load
_Pa:__ZN15b2ParticleGroup18ApplyLinearImpulseERK6b2Vec2
uoc:_af_property_set
yAb:_png_read_filter_row_up
Sfd:__ZNKSt3__213basic_istreamIwNS_11char_traitsIwEEE6gcountEv
x5c:_wcsstr
ZVb:__ZL10getfreeposP5Table
Gpc:_tt_size_ready_bytecode
lVb:__ZL7marktmuP12global_State
gX:__ZNSt3__26vectorIN11Application10ImageScaleENS_9allocatorIS2_EEE26__swap_out_circular_bufferERNS_14__split_bufferIS2_RS4_EE
fm:_alGenSources
fQ:__ZN7TileMap3setEiittijP7GStatus
CKc:___toread
Sma:_ginput_setTouchToMouseEnabled
w2c:_fputc
Gwc:_cff_font_load
Dic:_tt_cmap0_validate
gZb:__ZL8explist1P8LexStateP7expdesc
yAa:__Z5b2MaxIiET_S0_S0_
Ztc:_cf2_getUnitsPerEm
vqc:_Ins_ELSE
jqa:__ZN21GGSampleOpenALManager16ChannelSetVolumeEmf
ggb:__ZNSt3__214__split_bufferIPNS_12basic_stringIcNS_11char_traitsIcEENS_9allocatorIcEEEERNS4_IS7_EEE18__construct_at_endINS_13move_iteratorIPS7_EEEENS_9enable_ifIXsr21__is_forward_iteratorIT_EE5valueEvE4typeESG_SG_
Ro:_ellipseColor
mhd:__ZNSt3__213basic_ostreamIwNS_11char_traitsIwEEE5tellpEv
Fqb:__ZNK8StringId5ltstrclEPKcS2_
f0a:__ZN12Box2DBinder226b2Contact_resetRestitutionEP9lua_State
Waa:__ZNSt3__25dequeI7Matrix4NS_9allocatorIS1_EEEC2ERKS4_
fad:__ZNKSt3__223__future_error_category4nameEv
bda:__ZNK9Transform6scaleXEv
akb:__ZN9g_private14TextureManager20RestoreRenderTargetsEv
C5c:_wmemmove
Pf:_SDL_RemoveTimer
hxd:__ZNSt3__29money_putIcNS_19ostreambuf_iteratorIcNS_11char_traitsIcEEEEEC2Ej
wxa:__ZN22b2EdgeAndCircleContactD0Ev
i7c:__ZNSt3__26__sortIRNS_6__lessIwwEEPwEEvT0_S5_T_
Fpc:_FT_Stream_GetChar
X4a:__ZN9b2WorldEDC2ERK6b2Vec2b
ypb:_gaudio_Mp3Seek
tZb:__ZL5boolKP9FuncStatei
_7a:__ZN12SpriteBinder17setAnchorPositionEP9lua_State
Shd:__ZNSt3__211__stdoutbufIwE4syncEv
Tcc:_enc_name
txc:_cff_get_mm_blend
X8a:__ZN9Transform9setRefXYZEfff
IIc:__ZN12_GLOBAL__N_1L20register_memory_viewIlEEvPKc
VBc:_FT_Done_Size
J4c:_bcopy
xd:_Mix_PlayChannel
kya:__Z5b2DotRK6b2Vec3S1_
abc:_INT123_defdec
fOa:__ZN6b2Rope8SetAngleEf
qF:_sysconf
VOa:__ZN15b2TypedFreeListI16b2ParticleHandleE8AllocateEv
iWc:_dirname
cBc:_FT_Set_Transform
Eub:_gz_comp
q6b:__ZL13match_captureP10MatchStatePKci
JJc:__ZN10emscripten8internal11LightTypeIDIvE3getEv
qvb:_z_gzflush
Wcc:_next_text
zE:_pthread_spin_destroy
hB:_glfwTerminate
G3a:__ZN12Box2DBinder215b2Body_isBulletEP9lua_State
ZAd:__ZNSt3__28__sp_mut6unlockEv
Azb:_png_get_io_chunk_type
MLa:__ZN7b2World9DrawJointEP7b2Joint
txa:__ZN24b2ChainAndPolygonContact8EvaluateEP10b2ManifoldRK11b2TransformS4_
_mb:__ZNKSt3__26__treeINS_12__value_typeImPN14GGSoundManager7ChannelEEENS_19__map_value_compareImS5_NS_4lessImEELb1EEENS_9allocatorIS5_EEE10__root_ptrEv
Z7a:__ZN12SpriteBinder11getPositionEP9lua_State
f4b:__ZL12Lutf8_insertP9lua_State
Ced:__ZNSt3__213basic_ostreamIcNS_11char_traitsIcEEE5flushEv
rWc:_fmtmsg
jVc:_nextafterl
XJ:__ZNSt3__26vectorIfNS_9allocatorIfEEE26__swap_out_circular_bufferERNS_14__split_bufferIfRS2_EE
GWa:__ZN21TextInputDialogBinder4hideEP9lua_State
aXa:__ZN17AlertDialogBinder8destructEP9lua_State
wEa:__ZN16b2ParticleSystem10FreeBufferIPvEEvPPT_i
iza:__ZNK11b2GearJoint10GetAnchorBEv
wob:__ZN14GGAudioManager12RegisterTypeEPKcR13GGAudioLoader
xXc:___ofl_unlock
B_a:__ZN13TileMapBinder7setTileEP9lua_State
mDa:__ZN22b2EdgeAndCircleContact6CreateEP9b2FixtureiS1_iP16b2BlockAllocator
y7b:__ZL8readablePKc
AFd:__ZNKSt3__212basic_stringIcNS_11char_traitsIcEENS_9allocatorIcEEE5rfindEPKcj
zqb:__ZNSt3__26__treeINS_12__value_typeIPKciEENS_19__map_value_compareIS3_S4_N8StringId5ltstrELb1EEENS_9allocatorIS4_EEE7destroyEPNS_11__tree_nodeIS4_PvEE
xwc:_cff_font_done
AEd:__ZNSt3__212basic_stringIcNS_11char_traitsIcEENS_9allocatorIcEEEpLESt16initializer_listIcE
C2:__ZNSt3__26__treeINS_12__value_typeIiN6TTFont9GlyphDataEEENS_19__map_value_compareIiS4_NS_4lessIiEELb1EEENS_9allocatorIS4_EEED2Ev
CRc:_iswlower_l
P2:__ZNSt3__214__split_bufferIN6TTFont8FontFaceERNS_9allocatorIS2_EEEC2EjjS5_
pMc:_ctan
Uub:_z_inflateBackEnd
a5c:_strpbrk
QKb:_jpeg_write_m_header
EKd:__ZNSt3__212_GLOBAL__N_115as_float_helperIdNS_12basic_stringIwNS_11char_traitsIwEENS_9allocatorIwEEEEPFdPKwPPwEEET_RKNS2_IcNS3_IcEENS5_IcEEEERKT0_PjT1_
HJc:__ZN10emscripten8internal6TypeIDIcE3getEv
Ahd:__ZNSt3__2L13__ios_new_capIlEEjjj
eNa:__ZN15b2FrictionJoint11SetMaxForceEf
WC:_llvm_stackrestore
BA:_glfwGetVersion
Eed:__ZNSt3__213basic_ostreamIcNS_11char_traitsIcEEE6sentryD2Ev
OI:__ZN12VertexBufferIfE6UpdateEv
mlc:_FT_CMap_New
pJ:__ZN12VertexBufferItE6UpdateEv
ZSc:_modf
bW:__ZN11Application12clearBuffersEv
eIb:_jpeg_idct_9x9
nrd:__ZNSt3__215numpunct_bynameIwED0Ev
ARa:__ZL19lzstream_decompressP9lua_State
CAb:_png_check_chunk_name
oIc:__ZN12_GLOBAL__N_1L16register_integerIhEEvPKc
_dd:__ZNSt3__215basic_streambufIwNS_11char_traitsIwEEE6snextcEv
q1c:_fstatat
yq:_emscripten_glCheckFramebufferStatus
KDd:__ZNSt3__212basic_stringIcNS_11char_traitsIcEENS_9allocatorIcEEEaSESt16initializer_listIcE
cpc:_FT_GlyphLoader_Add
hi:___syscall118
x1:__ZNSt3__26__treeINS_12__value_typeIiiEENS_19__map_value_compareIiS2_NS_4lessIiEELb1EEENS_9allocatorIS2_EEE25__emplace_unique_key_argsIiJRKNS_21piecewise_construct_tENS_5tupleIJRKiEEENSE_IJEEEEEENS_4pairINS_15__tree_iteratorIS2_PNS_11__tree_nodeIS2_PvEEiEEbEERKT_DpOT0_
Tb:invoke_viiddi
rk:__embind_finalize_value_object
K6b:__ZL9os_removeP9lua_State
Qud:__ZNKSt3__28time_getIcNS_19istreambuf_iteratorIcNS_11char_traitsIcEEEEE3getES4_S4_RNS_8ios_baseERjP2tmcc
_Bd:__ZNSt3__213random_deviceD2Ev
gi:___syscall114
VLb:_emit_eobrun
Zmc:_af_latin_hints_compute_segments
cs:_emscripten_glGetUniformLocation
n3:__ZN8TTBMFontD0Ev
sra:__Z8getAppIdv
zmb:__ZNSt3__23setIPN14GGSoundManager7ChannelENS_4lessIS3_EENS_9allocatorIS3_EEED2Ev
rpa:__ZNSt3__26__treeINS_12__value_typeImPN12_GLOBAL__N_121GGStreamOpenALManager7ChannelEEENS_19__map_value_compareImS6_NS_4lessImEELb1EEENS_9allocatorIS6_EEE25__emplace_unique_key_argsImJRKNS_21piecewise_construct_tENS_5tupleIJRKmEEENSI_IJEEEEEENS_4pairINS_15__tree_iteratorIS6_PNS_11__tree_nodeIS6_PvEEiEEbEERKT_DpOT0_
fXb:_lua_insert
aBc:_ft_glyphslot_done
E8b:__ZN8pystring2os4path13abspath_posixERKNSt3__212basic_stringIcNS2_11char_traitsIcEENS2_9allocatorIcEEEESA_
j0a:__ZN9b2Contact14SetRestitutionEf
rDc:_ft_gzip_stream_io
_Rb:_AddVertex
zBc:_raccess_guess_darwin_hfsplus
jCa:__ZNK13b2DynamicTree12GetAreaRatioEv
iKb:_jpeg_fdct_4x4
z0c:_tre_ast_to_tnfa
Ctd:__ZNKSt3__220__codecvt_utf8_utf16IDiE9do_lengthER11__mbstate_tPKcS5_j
$T:__ZNSt3__26vectorIiNS_9allocatorIiEEE21__push_back_slow_pathIiEEvOT_
urb:_g_isTypeCheckingEnabled
Oka:__ZNSt3__23mapINS_12basic_stringIcNS_11char_traitsIcEENS_9allocatorIcEEEENS_6vectorIhNS4_IhEEEENS_4lessIS6_EENS4_INS_4pairIKS6_S9_EEEEEixEOS6_
rNb:__ZN17CPVRTResourceFileD0Ev
DN:__ZN12VertexBufferItEaSERKS0_
NOa:__ZZN16b2ParticleSystem12RotateBufferEiiiENK10NewIndicesixEi
sv:_emscripten_vr_get_display_name
Qu:_emscripten_set_pointerlockchange_callback
Znc:_af_indic_metrics_init
zrb:_g_getInstance
gib:_gtexture_set_spritefactory
yRd:__ZN10__cxxabiv112_GLOBAL__N_111short_allocINS0_11string_pairELj4096EE8allocateEj
Qcc:_process_extra
cpb:_gaudio_BackgroundChannelSetPaused
IJd:__ZNSt3__212basic_stringIwNS_11char_traitsIwEENS_9allocatorIwEEE6__initEPKwjj
LL:__ZN13KeyboardEventD2Ev
nsb:_g_fseeko
Wyc:_ps_hints_t1stem3
a1c:_parse_bracket_terms
ro:_eglChooseConfig
oda:__ZN7Matrix49transposeEv
Tf:_SDL_SetColorKey
Mqd:__ZNSt3__212ctype_bynameIwED0Ev
UTb:_unzOpen
BOa:__ZNSt3__212__rotate_gcdIPP15b2ParticleGroupEET_S4_S4_S4_
Yma:_ginput_removeCallback
gta:__ZNK10emscripten8internal12WithPoliciesIJEE11ArgTypeListIJiNS_3valES4_RS4_NS_11memory_viewIhEES4_S4_iiiEE8getTypesEv
Lua:__ZN10emscripten8internal12MethodCallerIvJNS_11memory_viewIhEEEE4callEPNS0_7_EM_VALEPKcOS3_
LKd:__ZNSt3__29to_stringEi
Sna:__ZNSt3__26__treeINS_12__value_typeINS_12basic_stringIcNS_11char_traitsIcEENS_9allocatorIcEEEE13GGAudioLoaderEENS_19__map_value_compareIS7_S9_NS_4lessIS7_EELb1EEENS5_IS9_EEE25__emplace_unique_key_argsIS7_JRKNS_21piecewise_construct_tENS_5tupleIJOS7_EEENSK_IJEEEEEENS_4pairINS_15__tree_iteratorIS9_PNS_11__tree_nodeIS9_PvEEiEEbEERKT_DpOT0_
OKd:__ZNSt3__29to_stringEj
UKd:__ZNSt3__29to_stringEm
Job:_gaudio_ChannelIsPaused
Woa:__ZNSt3__212__deque_baseINS_4pairIjjEENS_9allocatorIS2_EEE5beginEv
ldc:_INT123_init_layer3
hLd:__ZNSt3__29to_stringEe
eLd:__ZNSt3__29to_stringEd
_Ta:__ZN5Pixel8setWidthEf
S2:__ZNSt3__214__split_bufferIN6TTFont8FontFaceERNS_9allocatorIS2_EEED2Ev
XKd:__ZNSt3__29to_stringEx
IYb:__ZL8txtTokenP8LexStatei
nDc:_ft_gzip_get_uncompressed_size
Add:__ZNSt3__215basic_streambufIcNS_11char_traitsIcEEE5sgetcEv
Ihd:___cxx_global_var_init_2798
ypa:__ZNSt3__26__treeIPN12_GLOBAL__N_121GGStreamOpenALManager7ChannelENS_4lessIS4_EENS_9allocatorIS4_EEE16__insert_node_atEPNS_15__tree_end_nodeIPNS_16__tree_node_baseIPvEEEERSE_SE_
g$a:__ZN12Box2DBinder217getPulleyJointDefEP9lua_State
Usd:__ZNKSt3__215__codecvt_utf16IDsLb1EE13do_max_lengthEv
zcd:__ZNSt3__29basic_iosIcNS_11char_traitsIcEEE7copyfmtERKS3_
Avb:_gz_decomp
tBa:__Z16b2GetPointStatesP12b2PointStateS0_PK10b2ManifoldS3_
$k:__emval_call
rt:_emscripten_glVertexAttrib4f
rYd:b68
Hkb:__ZN6gevent12EventManager15scope_exit_freeD2Ev
hc:invoke_viiidddiiddi
ws:_emscripten_glPixelStorei
cgd:__ZNSt3__213basic_istreamIwNS_11char_traitsIwEEE8readsomeEPwi
WG:throwUnboundTypeError
kCb:_png_set_gray_to_rgb
Mna:__ZN14GGAudioManager30deleteBackgroundMusicInterfaceEv
yTb:_ftell_file_func
Zuc:_cf2_hint_initZero
Ima:__ZN6ginput12InputManager10callback_sEiPvS1_
wCb:_png_image_finish_read
rrc:_Ins_EVEN
R$c:_initstate
NSa:__ZN12ScreenBinder5clearEP9lua_State
vFd:__ZNKSt3__212basic_stringIcNS_11char_traitsIcEENS_9allocatorIcEEE4findEPKcj
jBb:_png_set_bKGD
Zmb:__ZNSt3__26__treeINS_12__value_typeImPN14GGSoundManager7ChannelEEENS_19__map_value_compareImS5_NS_4lessImEELb1EEENS_9allocatorIS5_EEE16__insert_node_atEPNS_15__tree_end_nodeIPNS_16__tree_node_baseIPvEEEERSH_SH_
Abd:__ZNSt3__213basic_istreamIcNS_11char_traitsIcEEED1Ev
h9b:__ZN6snappyL8EmitCopyEPcji
$eb:__ZN5Event5applyEP12EventVisitor
Yab:__ZNSt3__26__treeINS_12__value_typeIiNS_6vectorIP12CppLuaBridgeNS_9allocatorIS4_EEEEEENS_19__map_value_compareIiS8_NS_4lessIiEELb1EEENS5_IS8_EEE25__emplace_unique_key_argsIiJRKNS_21piecewise_construct_tENS_5tupleIJRKiEEENSJ_IJEEEEEENS_4pairINS_15__tree_iteratorIS8_PNS_11__tree_nodeIS8_PvEEiEEbEERKT_DpOT0_
d7:__ZNSt3__214__split_bufferIP5TimerRNS_9allocatorIS2_EEED2Ev
Fgd:__ZNSt3__213basic_ostreamIcNS_11char_traitsIcEEElsEPKv
sec:_INT123_synth_2to1_mono
LFa:__ZN16b2ParticleSystem21UserOverridableBufferI6b2Vec2EC2Ev
RWa:__ZNK17GGTextInputDialog7getTextEv
jzd:__ZNSt3__26locale5__imp7installINS_14collate_bynameIwEEEEvPT_
Xg:_XSendEvent
VF:_waitpid
bEa:__ZN16b2ParticleSystem25FreeUserOverridableBufferI15b2ParticleColorEEvPNS_21UserOverridableBufferIT_EE
jJ:__ZN9Particles11addParticleEffffi
pea:__ZN12ShaderEngine8getColorERfS0_S0_S0_
tVa:__ZN12_GLOBAL__N_114GGSoundChannel4stopEv
Xab:__ZNSt3__23mapIiNS_6vectorIP12CppLuaBridgeNS_9allocatorIS3_EEEENS_4lessIiEENS4_INS_4pairIKiS6_EEEEEixERSA_
W4:__ZL18createSolidPolygonffffRKNSt3__26vectorINS0_I6Point2IfENS_9allocatorIS2_EEEENS3_IS5_EEEEbR12GraphicsBase
o_c:___inet_aton
J6b:__ZL9os_getenvP9lua_State
aJ:__GLOBAL__sub_I_particles_cpp
ukb:__ZNSt3__26__treeIPN9g_private14TextureManager18TempTextureElementENS_4lessIS4_EENS_9allocatorIS4_EEE25__emplace_unique_key_argsIS4_JRKS4_EEENS_4pairINS_15__tree_iteratorIS4_PNS_11__tree_nodeIS4_PvEEiEEbEERKT_DpOT0_
uZb:__ZL4addkP9FuncStateP10lua_TValueS2_
up:_emscripten_autodebug_i8
r7a:__ZN12SpriteBinder9getParentEP9lua_State
Osd:__ZNKSt3__215__codecvt_utf16IDsLb1EE6do_outER11__mbstate_tPKDsS5_RS5_PcS7_RS7_
u2a:__ZN12Box2DBinder230b2RevoluteJoint_getMotorTorqueEP9lua_State
iNd:__ZNSt3__218__hidden_allocatorINS_4pairIPNS_18condition_variableEPNS_5mutexEEEE10deallocateEPS6_j
f6a:__ZNSt3__214__split_bufferIN8FontBase8FontSpecERNS_9allocatorIS2_EEED2Ev
jAc:_ft_cubic_is_small_enough
cE:_pthread_mutexattr_destroy
lJa:__ZN16b2ParticleSystem16ConnectionFilterC2Ev
$b:invoke_viidiiii
Wja:__ZN14NetworkManagerD2Ev
JBb:_png_read_start_row
rGd:__ZNKSt3__212basic_stringIwNS_11char_traitsIwEENS_9allocatorIwEEE7__allocEv
ZKb:_write_marker_header
mha:__ZN16ogl2ShaderEngine11bindTextureEiP13ShaderTexture
H8b:__ZN8pystring2os4path10join_posixERKNSt3__26vectorINS2_12basic_stringIcNS2_11char_traitsIcEENS2_9allocatorIcEEEENS7_IS9_EEEE
rac:_INT123_compat_open
gTc:___DOUBLE_BITS_264
Eyd:__ZNSt3__26locale5__imp7installINS_9money_putIwNS_19ostreambuf_iteratorIwNS_11char_traitsIwEEEEEEEEvPT_
oEb:_png_write_sCAL_s
TTd:_i64Add
WUc:_lrint
lOa:__ZNK15b2ParticleColor6IsZeroEv
ria:__ZL13add_fill_quadP4pathffffffff
tub:_z_zcfree
mic:_Bezier_Down
Fma:__ZN6ginput12InputManager7keyDownEPKcS2_
gNa:__ZN15b2FrictionJoint12SetMaxTorqueEf
jgd:__ZNSt3__213basic_ostreamIcNS_11char_traitsIcEEEC2EPNS_15basic_streambufIcS2_EE
zjb:__ZNSt3__26__treeIPN9g_private14TextureElementENS_4lessIS3_EENS_9allocatorIS3_EEEC2ERKS5_
mmb:__ZNSt3__26__treeINS_12__value_typeINS_12basic_stringIcNS_11char_traitsIcEENS_9allocatorIcEEEE13GGAudioLoaderEENS_19__map_value_compareIS7_S9_NS_4lessIS7_EELb1EEENS5_IS9_EEED2Ev
BCd:__ZNSt11logic_errorC2ERKNSt3__212basic_stringIcNS0_11char_traitsIcEENS0_9allocatorIcEEEE
cNd:__ZNSt3__221__thread_specific_ptrINS_15__thread_structEE16__at_thread_exitEPv
fEc:_read16l
ATc:___DOUBLE_BITS_269
SW:__ZNK11Application19getLogicalScaleModeEv
oma:__ZNSt3__26vectorIP15ginput_KeyEventNS_9allocatorIS2_EEE26__swap_out_circular_bufferERNS_14__split_bufferIS2_RS4_EE
flb:__ZN6gevent12EventManager9equal_gidINS0_17EventQueueElementEEC2Em
naa:__ZNSt3__212__deque_baseIPK6SpriteNS_9allocatorIS3_EEE5clearEv
cob:__ZN14GGAudioManager21ChannelRemoveCallbackEmPFviPvS0_ES0_
NEb:_png_image_size
kla:__ZNSt3__26vectorINS_12basic_stringIcNS_11char_traitsIcEENS_9allocatorIcEEEENS4_IS6_EEE21__push_back_slow_pathIS6_EEvOT_
U5:__ZN5TimerD0Ev
Vda:__ZN7Matrix47rotateZEf
nRd:__ZNSt3__212basic_stringIcNS_11char_traitsIcEEN10__cxxabiv112_GLOBAL__N_112malloc_allocIcEEE6insertIPKcEENS_9enable_ifIXaasr21__is_forward_iteratorIT_EE5valuesr38__libcpp_string_gets_noexcept_iteratorISC_EE5valueENS_11__wrap_iterIPcEEE4typeENSD_ISA_EESC_SC_
$1b:__ZL8load_auxP9lua_Statei
Sea:__ZNSt3__214__split_bufferIPN12ShaderEngine12DepthStencilENS_9allocatorIS3_EEE9push_backEOS3_
W1:__ZNK11TTTextField11extraBoundsEPfS0_S0_S0_
G9c:__ZNSt3__28__c_node5__addEPNS_8__i_nodeE
bzb:_png_get_sRGB
fpd:__ZNKSt3__28messagesIcE6do_getEiiiRKNS_12basic_stringIcNS_11char_traitsIcEENS_9allocatorIcEEEE
wka:__ZNSt3__214__split_bufferINS_4pairINS_12basic_stringIcNS_11char_traitsIcEENS_9allocatorIcEEEEfEERNS5_IS8_EEED2Ev
DZc:_ether_ntoa
exa:__ZN25b2PolygonAndCircleContactD0Ev
lca:__ZN14ColorTransform18setAlphaMultiplierEf
Vsc:_tt_face_load_cvt
rSa:__ZNSt3__23mapIP7ClosureP11ProfileInfoNS_4lessIS2_EENS_9allocatorINS_4pairIKS2_S4_EEEEEixERS9_
Tda:__ZN7Matrix47rotateXEf
Bib:__ZNSt3__26__treeINS_12__value_typeImPN9g_private14TextureElementEEENS_19__map_value_compareImS5_NS_4lessImEELb1EEENS_9allocatorIS5_EEE7destroyEPNS_11__tree_nodeIS5_PvEE
bnd:__ZNSt3__210moneypunctIcLb1EED2Ev
O_c:___res_mkquery
l0b:_lua_yield
wba:__ZNSt3__25dequeI7Matrix4NS_9allocatorIS1_EEE19__add_back_capacityEj
D5c:_mkdtemp
mxd:__ZNSt3__211__money_putIwEC2Ev
vSc:_wctrans_l
Vn:_ceilf
qJc:__ZN10emscripten8internal11LightTypeIDIfE3getEv
ENb:__ZN6snappy6SourceD0Ev
wY:__ZN5Pixel10setTextureEP11TextureBaseiPK7Matrix4
zYa:__ZNSt3__26vectorI12ghttp_HeaderNS_9allocatorIS1_EEE18__construct_at_endEj
Wn:_ceill
Yvb:_z_gzoffset
Jba:__ZNSt3__25dequeI7Matrix4NS_9allocatorIS1_EEE19__add_back_capacityEv
v5:__ZN10Tesselator14VertexCallbackEPv
e6:__ZNSt3__24pairIKiNS_6vectorIP8SlotBaseNS_9allocatorIS4_EEEEED2Ev
u7a:__ZN12SpriteBinder16removeFromParentEP9lua_State
pgc:_mpg123_clip
Osa:__ZN10emscripten8internal11LightTypeIDIRmE3getEv
pd:_Mix_LoadMUS_RW
U2:__ZNSt3__26vectorIN8FontBase8FontSpecENS_9allocatorIS2_EEE18__construct_at_endIPS2_EENS_9enable_ifIXsr21__is_forward_iteratorIT_EE5valueEvE4typeES9_S9_j
w8:__ZN14TextureManager20createTextureFromDibERK3DibRK17TextureParameters
Jza:__ZNK15b2DistanceJoint10GetAnchorAEv
Wo:_emscripten_alcDeviceResumeSOFT
zH:FUNCTION_TABLE_iiiiiiiiii
wNc:___lctrans
GCa:__ZN9b2Fixture7GetBodyEv
jVa:__ZN12_GLOBAL__N_114GGSoundChannel8isPausedEv
Bsa:__ZN10emscripten8internal9SignatureIiJNS_3valES2_RS2_S2_S2_S2_iiiEE18init_method_callerEv
Lac:_mpg123_fmt_none
oba:__ZNSt3__214__split_bufferIP9_cliprectRNS_9allocatorIS2_EEED2Ev
aDa:__ZNK13b2DynamicTree11GetUserDataEi
wPa:__ZZN16b2ParticleSystem33CreateParticlesWithShapesForGroupEPKPK7b2ShapeiRK18b2ParticleGroupDefRK11b2TransformENK14CompositeShape11ComputeAABBEP6b2AABBSA_i
URc:_vstrfmon_l
Fgc:_mpg123_set_filesize
hob:__ZN14GGAudioManager24BackgroundMusicGetLengthEm
CGd:__ZNSt3__212basic_stringIwNS_11char_traitsIwEENS_9allocatorIwEEEC2EPKwRKS4_
XMc:_processblock_63
pO:__ZN13TextFieldBaseD2Ev
kAd:__ZNSt3__26locale5__imp12install_fromINS_8time_putIwNS_19ostreambuf_iteratorIwNS_11char_traitsIwEEEEEEEEvRKS1_
ecd:__ZNKSt3__29basic_iosIcNS_11char_traitsIcEEEcvbEv
Fkb:__ZNSt3__25dequeIN6gevent12EventManager17EventQueueElementENS_9allocatorIS3_EEE9pop_frontEv
xrb:_g_pushInstance
g3a:__ZN12Box2DBinder218b2Body_ApplyTorqueEP9lua_State
N7a:__ZN12SpriteBinder4setXEP9lua_State
Eac:_mpg123_encsize
$va:__Z7b2CrossRK6b2Vec2S1_
Psb:_g_setVfs
Wra:__ZNSt3__26__treeINS_12__value_typeINS_12basic_stringIcNS_11char_traitsIcEENS_9allocatorIcEEEES7_EENS_19__map_value_compareIS7_S8_NS_4lessIS7_EELb1EEENS5_IS8_EEE25__emplace_unique_key_argsIS7_JRKNS_21piecewise_construct_tENS_5tupleIJRKS7_EEENSJ_IJEEEEEENS_4pairINS_15__tree_iteratorIS8_PNS_11__tree_nodeIS8_PvEEiEEbEERKT_DpOT0_
d2:__ZNK11TTTextField13letterSpacingEv
Dmd:__ZNSt3__28time_putIcNS_19ostreambuf_iteratorIcNS_11char_traitsIcEEEEED0Ev
Odc:_INT123_synth_2to1_8bit
yva:__ZN11b2EdgeShapeaSERKS_
r1:__ZNSt3__26__treeINS_12__value_typeIiNS_6vectorIPN9MovieClip5FrameENS_9allocatorIS5_EEEEEENS_19__map_value_compareIiS9_NS_4lessIiEELb1EEENS6_IS9_EEE12__find_equalIiEERPNS_16__tree_node_baseIPvEERPNS_15__tree_end_nodeISK_EERKT_
YS:__ZN8FontBase16layoutHorizontalEPNS_10TextLayoutEiffffifbi
LUc:_log10l
fwd:__ZNKSt3__210moneypunctIcLb1EE11curr_symbolEv
WO:__ZNSt3__214__split_bufferIN11TexturePack4RectERNS_9allocatorIS2_EEED2Ev
Ddd:__ZNSt3__215basic_streambufIcNS_11char_traitsIcEEE7sungetcEv
h3:__ZN13KeyboardEvent5applyEP12EventVisitor
Ycc:_INT123_fi_add
jGc:_update_volume
q2a:__ZN12Box2DBinder227b2RevoluteJoint_enableMotorEP9lua_State
uqc:_Ins_SMD
Kma:__ZNSt3__26__treeINS_12__value_typeINS_12basic_stringIcNS_11char_traitsIcEENS_9allocatorIcEEEEiEENS_19__map_value_compareIS7_S8_NS_4lessIS7_EELb1EEENS5_IS8_EEE4findIS7_EENS_15__tree_iteratorIS8_PNS_11__tree_nodeIS8_PvEEiEERKT_
B0a:__ZN11b2DebugDraw15DrawSolidCircleERK6b2Vec2fS2_RK7b2Color
AJa:__ZL25b2ParticleContactIsZombieRK17b2ParticleContact
Qbb:__ZNK15EnterFrameEvent9deltaTimeEv
qgc:_mpg123_getformat
c7:__ZNSt3__26vectorIP5TimerNS_9allocatorIS2_EEE26__swap_out_circular_bufferERNS_14__split_bufferIS2_RS4_EE
Oqa:__ZNSt3__26__treeINS_12__value_typeImPN21GGSampleOpenALManager7ChannelEEENS_19__map_value_compareImS5_NS_4lessImEELb1EEENS_9allocatorIS5_EEE13__lower_boundImEENS_15__tree_iteratorIS5_PNS_11__tree_nodeIS5_PvEEiEERKT_SI_PNS_15__tree_end_nodeIPNS_16__tree_node_baseISG_EEEE
qoc:_FT_Get_Next_Char
Zta:_ggeolocation_isAvailable
dm:_alEnable
v$a:__ZL7toJointRK6BinderiPKc
rKa:__ZNSt3__26__sortIRPFbRK21b2ParticleBodyContactS3_EPS1_EEvT0_S8_T_
cxb:_png_muldiv
QOa:__ZN16b2ParticleSystem13RequestBufferIP16b2ParticleHandleEEPT_S4_
J_c:_labelof
zod:__ZNSt3__29money_getIcNS_19istreambuf_iteratorIcNS_11char_traitsIcEEEEED0Ev
e5:__ZN10TesselatorD2Ev
k4:__ZNSt3__26__treeINS_12__value_typeIiN8TTBMFont12TextureGlyphEEENS_19__map_value_compareIiS4_NS_4lessIiEELb1EEENS_9allocatorIS4_EEEC2ERKS8_
thc:_ft_outline_glyph_copy
UR:__ZN13CompleteEvent5applyEP12EventVisitor
mA:_glfwDestroyThread
bxc:_cff_vstore_load
tta:_gui_cleanup
arb:_luaL_getdata
jA:_glfwCreateThread
cA:_glewGetString
J_a:__ZN9DibBinder8destructEP9lua_State
rH:FUNCTION_TABLE_iiii
yrb:_g_isInstanceOf
q9c:__ZNSt3__224__libcpp_debug_exceptionC2ERKNS_19__libcpp_debug_infoE
add:__ZNSt3__29basic_iosIwNS_11char_traitsIwEEE4initEPNS_15basic_streambufIwS2_EE
HEd:__ZNSt3__212basic_stringIcNS_11char_traitsIcEENS_9allocatorIcEEE4backEv
pq:_emscripten_glBindVertexArray
fk:___syscall9
uma:_ginput_cleanup
Cj:___syscall324
ci:___syscall1
ekd:__ZNKSt3__27num_putIcNS_19ostreambuf_iteratorIcNS_11char_traitsIcEEEEE6do_putES4_RNS_8ios_baseEcPKv
Bj:___syscall320
Xj:___syscall6
Tj:___syscall5
Pj:___syscall4
Rsc:_tt_done_blend
KVa:__ZN12_GLOBAL__N_17GGSoundD2Ev
VQc:_dngettext
A3b:__ZL3LeqP9lua_State
m8b:__ZN8pystring5countERKNSt3__212basic_stringIcNS0_11char_traitsIcEENS0_9allocatorIcEEEES8_ii
FOc:_iswlower
VFc:_smix_stereo_8bit_spline
TJ:__ZNSt3__26vectorIfNS_9allocatorIfEEE18__construct_at_endEj
rh:___block_all_sigs
Pbd:__ZNSt3__213basic_ostreamIwNS_11char_traitsIwEEED1Ev
VXd:b53
tkb:__ZNSt3__26__treeIPN9g_private14TextureManager18TempTextureElementENS_4lessIS4_EENS_9allocatorIS4_EEEC2ERKS6_
L3c:_tempnam
Dv:_emscripten_webgl_commit_frame
aoa:__ZN12_GLOBAL__N_121GGStreamOpenALManagerC2Ev
Nod:__ZNSt3__29money_getIwNS_19istreambuf_iteratorIwNS_11char_traitsIwEEEEE8__do_getERS4_S4_bRKNS_6localeEjRjRbRKNS_5ctypeIwEERNS_10unique_ptrIwPFvPvEEERPwSM_
mP:__ZNSt3__213__vector_baseI3DibNS_9allocatorIS1_EEED2Ev
Lra:___cxx_global_var_init_586
hoa:__ZN12_GLOBAL__N_121GGStreamOpenALManager14SoundGetLengthEm
Pab:__ZN21EventDispatcherBinderC2EP9lua_State
vwa:__ZNK13b2CircleShape7RayCastEP15b2RayCastOutputRK14b2RayCastInputRK11b2Transformi
Kac:_mpg123_format_none
XCc:_FT_Stream_ReadULongLE
$9c:__ZNSt13exception_ptraSERKS_
Es:_emscripten_glShaderBinary
xOb:__ZN6Server4tickEP12NetworkEvent
cnb:__ZNKSt3__26__treeIPN14GGSoundManager7ChannelENS_4lessIS3_EENS_9allocatorIS3_EEE10__root_ptrEv
zwb:_png_create_png_struct
Go:_eglQueryAPI
MPb:__ZN11CPVRTString6assignEjc
nEa:__ZN15b2SlabAllocatorI16b2ParticleHandleE12FreeAllSlabsEv
$m:_alSourceRewind
SEa:__ZN16b2ParticleSystem16ReallocateBufferI15b2ParticleColorEEPT_S3_ii
JGd:__ZNKSt3__212basic_stringIwNS_11char_traitsIwEENS_9allocatorIwEEE4sizeEv
I8c:__ZNSt3__27__sort4IRNS_6__lessIeeEEPeEEjT0_S5_S5_S5_T_
mc:ftCall_viiididi
fGb:_access_virt_sarray
gGd:__ZNSt3__212basic_stringIcNS_11char_traitsIcEENS_9allocatorIcEEE6__initEPKcjj
Dm:_alGetSource3f
Krc:_Ins_DELTAC
dFc:_get_sample
wzc:_FT_Glyph_Transform
Y5b:__ZL6gmatchP9lua_State
v1a:__ZNK12b2WheelJoint17GetMaxMotorTorqueEv
LZc:___rtnetlink_enumerate
IS:__ZNK15MaxRectsBinPack37FindPositionForNewNodeBestLongSideFitEiiRiS0_
o4b:__ZL10Lutf8_gsubP9lua_State
eMd:__ZTv0_n12_NSt3__29strstreamD1Ev
spc:_FT_Hypot
SFc:_smix_stereo_16bit_nearest
xdc:_INT123_getbits_139
Czc:_FT_Outline_GetOutsideBorder
ZGb:_process_data_simple_main
Lma:__ZNSt3__26__treeINS_12__value_typeINS_12basic_stringIcNS_11char_traitsIcEENS_9allocatorIcEEEEiEENS_19__map_value_compareIS7_S8_NS_4lessIS7_EELb1EEENS5_IS8_EEE13__lower_boundIS7_EENS_15__tree_iteratorIS8_PNS_11__tree_nodeIS8_PvEEiEERKT_SK_PNS_15__tree_end_nodeIPNS_16__tree_node_baseISI_EEEE
OKa:__ZNK12_GLOBAL__N_122TypedFixedSetAllocatorINS_15LightweightPairIP9b2FixtureiEEE9GetBufferEv
wmb:__ZNSt3__26__treeINS_12__value_typeImPN14GGSoundManager7ChannelEEENS_19__map_value_compareImS5_NS_4lessImEELb1EEENS_9allocatorIS5_EEE14__erase_uniqueImEEjRKT_
sta:_gui_init
sRa:__ZL13lzlib_adler32P9lua_State
fBd:__ZNSt3__25mutexD2Ev
Ze:_SDL_HasSSE
N8:__ZNK6Sprite8getStageEv
BZ:__ZNSt3__26vectorIdNS_9allocatorIdEEEC2ERKS3_
TId:__ZNSt3__211char_traitsIwE7compareEPKwS3_j
oIb:_post_process_1pass
ZMc:_vsprintf
Nl:_abort
sP:__ZNSt3__214__split_bufferI3DibRNS_9allocatorIS1_EEED2Ev
sO:__ZN13TextFieldBase13getDimensionsERfS0_
q8b:__ZN8pystring2os4path13splitdrive_ntERNSt3__212basic_stringIcNS2_11char_traitsIcEENS2_9allocatorIcEEEES9_RKS8_
ZG:validateThis
lz:_glTexImage2D
oHc:_xmp_release_module
mJ:__ZNSt3__26vectorIN9Particles5ColorENS_9allocatorIS2_EEE6resizeEj
df:_SDL_JoystickGetAxis
NX:__ZNKSt3__26vectorIPNS0_IP11GReferencedNS_9allocatorIS2_EEEENS3_IS6_EEE8max_sizeEv
iXb:_lua_type
XOc:___iswpunct_l
eq:_emscripten_get_visibility_status
Bna:__ZN6ginput12InputManager8touchEndEiiii
Khd:__ZNSt3__28ios_base4InitD2Ev
Kqc:_Ins_CALL
Exc:_ps_check_extra_glyph_name
Gwb:_png_data_freer
dHb:_jround_up
HFd:__ZNKSt3__212basic_stringIcNS_11char_traitsIcEENS_9allocatorIcEEE13find_first_ofEcj
WQc:_dgettext
w_c:_inet_ntop
iyd:__ZNSt3__26locale5__imp7installINS_7num_getIcNS_19istreambuf_iteratorIcNS_11char_traitsIcEEEEEEEEvPT_
tTa:__ZN15ParticlesBinder8isPausedEP9lua_State
wwc:_cff_make_private_dict
eha:__ZN16ogl2ShaderEngine14setFramebufferEP12ShaderBuffer
Cdb:__ZN6Binder18enableTypeCheckingEv
oVa:__ZN12_GLOBAL__N_114GGSoundChannel8setPitchEf
ytd:__ZNKSt3__220__codecvt_utf8_utf16IDiE5do_inER11__mbstate_tPKcS5_RS5_PDiS7_RS7_
XI:__ZNSt3__213__vector_baseIN9Particles5ColorENS_9allocatorIS2_EEED2Ev
kXb:_lua_iscfunction
vKa:__ZNK9b2Fixture9TestPointERK6b2Vec2
a5b:__ZL13add_valueUTF8P14MatchStateUTF8P11luaL_BufferPKcS4_i
bva:__ZNK11b2EdgeShape7RayCastEP15b2RayCastOutputRK14b2RayCastInputRK11b2Transformi
o9:__ZN9TransformC2Ev
Xta:_ggeolocation_cleanup
i$b:__ZL5errorP9LoadStatePKc
vqd:__ZNKSt3__25ctypeIcE10do_toupperEc
Wvd:__ZNKSt3__210moneypunctIcLb0EE8groupingEv
mZb:__ZL7exp2regP9FuncStateP7expdesci
NIa:__ZN16b2ParticleSystem16ReallocateBufferINS_5TriadEEEPT_S3_ii
Jf:_SDL_PushEvent
t2c:_mwrite
CGa:__ZN9b2Contact10SetEnabledEb
S4:__ZN5Shape7endPathEv
OPc:_pntz
aX:__ZNSt3__27__sort4IRNS_6__lessIN11Application10ImageScaleES3_EEPS3_EEjT0_S7_S7_S7_T_
r0c:___tre_mem_new_impl
Cjc:_tt_cmap14_get_info
Zs:_emscripten_glUniform2iv
v9b:__ZN6snappy18SnappyDecompressorC2EPNS_6SourceE
dwd:__ZNKSt3__210moneypunctIcLb1EE13thousands_sepEv
tMb:_start_pass_downsample
bjd:__ZNSt3__215__num_get_floatIeEET_PKcS3_Rj
BGa:__ZN6b2Body7AdvanceEf
tZa:__ZN17ApplicationBinder7openUrlEP9lua_State
CSd:__ZSt15get_new_handlerv
BOd:__ZNSt13runtime_errorD0Ev
Cnc:_af_glyph_hints_done
KY:__ZN6ScreenD0Ev
yna:_ginputp_touchMove
sld:__ZNKSt3__220__time_get_c_storageIwE8__monthsEv
FP:__ZNK8Matrix2D3m12Ev
as:_emscripten_glGetTexParameterfv
R0a:__ZN12Box2DBinder224b2RopeJoint_setMaxLengthEP9lua_State
ZRc:_strncasecmp
O0c:_tre_ast_new_node
nG:floatReadValueFromPointer
mK:__ZN9Particles10setTextureEP11TextureBase
uFc:_player_set_fadeout
q7a:__ZN12SpriteBinder10getChildAtEP9lua_State
sSb:_RemoveDegenerateFaces
ckc:_FT_Stream_ReadUShort
ydd:__ZNSt3__215basic_streambufIcNS_11char_traitsIcEEE6snextcEv
zVb:_luaH_new
Mv:_emscripten_wget_data
txb:_is_ICC_signature
wBa:__ZN6b2Vec2clEi
syc:_psh_blues_scale_zones
yid:__ZNKSt3__27collateIwE12do_transformEPKwS3_
pSd:__ZN10__cxxabiv112_GLOBAL__N_111short_allocINSt3__26vectorINS3_INS0_11string_pairENS1_IS4_Lj4096EEEEENS1_IS6_Lj4096EEEEELj4096EEC2ERNS0_5arenaILj4096EEE
CL:__ZNK9EventTypeI10TouchEventE4typeEv
F4:__ZN5Shape9beginPathENS_11WindingRuleE
Usb:_g_fprintf
RG:shallowCopyInternalPointer
LB:_glutReshapeWindow
xHd:__ZNKSt3__212basic_stringIwNS_11char_traitsIwEENS_9allocatorIwEEE8max_sizeEv
LSc:_cbrtf
hWc:_basename
zrd:__ZNKSt3__25ctypeIwE8do_widenEPKcS3_Pw
L1b:__ZL9luaB_loadP9lua_State
EQa:__ZN14LuaApplicationD2Ev
phd:__ZNSt3__213basic_ostreamIwNS_11char_traitsIwEEEC2Ev
rnc:_ft_glyphslot_clear
PJd:__ZNSt3__24stoiERKNS_12basic_stringIcNS_11char_traitsIcEENS_9allocatorIcEEEEPji
pWa:__ZN10MeshBinder20getTextureCoordinateEP9lua_State
rza:__ZNK13b2PulleyJoint10GetAnchorBEv
ELb:_start_pass_huff
gVa:__ZN12_GLOBAL__N_114GGSoundChannel16setWorldPositionEffffff
cta:__ZN10emscripten8internal11BindingTypeINS_11memory_viewIhEEE10toWireTypeERKS3_
Hqb:__ZN8StringId8instanceEv
EIc:__ZN12_GLOBAL__N_1L20register_memory_viewIsEEvPKc
jqc:_Ins_ISECT
old:__ZNKSt3__28time_getIwNS_19istreambuf_iteratorIwNS_11char_traitsIwEEEEE16do_get_monthnameES4_S4_RNS_8ios_baseERjP2tm
VVb:_luaC_link
usa:__ZN10emscripten8internal24GenericWireTypeConverterIiE4fromEd
G2c:_ftell
pia:__ZN6Path2D10fillBoundsEP12VertexBufferIfEPfP11TextureDataN12ShaderEngine12DepthStencilEP13ShaderProgramPK7Matrix4
kna:_ginputp_mouseUp
v6a:__ZN11StageBinder14setOrientationEP9lua_State
qlb:__ZNK6gevent12EventManager10equal_typeINS0_17EventQueueElementEEclERKS2_
MCb:_png_create_colormap_entry
mrd:__ZNSt3__215numpunct_bynameIcED0Ev
ML:__ZNK9EventTypeI13KeyboardEventE4typeEv
WXc:_strstr
_U:__ZNK16GiderosException6statusEv
ev:_emscripten_set_webglcontextrestored_callback
z:tempValue
dZc:_mbrtoc32
wJd:__ZNKSt3__212basic_stringIwNS_11char_traitsIwEENS_9allocatorIwEEE16find_last_not_ofEwj
SJc:_memalign
GPc:_rewinddir
Apd:__ZNSt3__215messages_bynameIwED2Ev
psb:_g_fgets
cmc:_gray_record_cell
ZKa:__ZNSt3__227__insertion_sort_incompleteIRPFbRKN12_GLOBAL__N_115LightweightPairIP9b2FixtureiEES7_EPS5_EEbT0_SC_T_
lsa:__ZN10emscripten3valC2IbEEOT_
vza:__ZN13b2PulleyJoint11ShiftOriginERK6b2Vec2
Knb:__ZN14GGAudioManager19SoundCreateFromFileEPKcbP12gaudio_Error
bWb:_luaO_rawequalObj
Pv:_emscripten_yield
PSa:__ZN12ScreenBinder7setSizeEP9lua_State
_lc:_gray_convert_glyph_inner
Dsb:_g_fgetc
nfa:__ZN16ogl2ShaderBuffer11prepareDrawEv
f6c:_fchownat
fha:__ZN16ogl2ShaderEngine19createShaderProgramEPKcS1_iPKN13ShaderProgram12ConstantDescEPKNS2_8DataDescE
Bfd:__ZNSt3__213basic_istreamIwNS_11char_traitsIwEEErsEPFRS3_S4_E
g_a:__ZN17ApplicationBinder3getEP9lua_State
hld:__ZNSt3__220__get_up_to_n_digitsIcNS_19istreambuf_iteratorIcNS_11char_traitsIcEEEEEEiRT0_S5_RjRKNS_5ctypeIT_EEi
OTb:_unz64local_SearchCentralDir
Ikb:__ZNSt3__26vectorIN19gevent_CallbackList8CallbackENS_9allocatorIS2_EEE21__push_back_slow_pathIRKS2_EEvOT_
B5:__GLOBAL__sub_I_blendfunc_cpp
FNb:__ZN6snappy15ByteArraySourceD0Ev
eAb:_png_do_gray_to_rgb
l9c:__ZNSt3__224__libcpp_debug_exception28__libcpp_debug_exception_impD2Ev
GXc:_fscanf
Afb:_SubBytes
yKd:__ZNSt3__212_GLOBAL__N_115as_float_helperIfNS_12basic_stringIwNS_11char_traitsIwEENS_9allocatorIwEEEEPFfPKwPPwEEET_RKNS2_IcNS3_IcEENS5_IcEEEERKT0_PjT1_
qTb:_call_zopen64
WH:FUNCTION_TABLE_viidd
SH:FUNCTION_TABLE_vidid
z4b:__ZL17push_capturesUTF8P14MatchStateUTF8PKcS2_
axc:_cff_subfont_load
_H:FUNCTION_TABLE_viidi
IUb:_luaD_throw
Nra:_ghttp_onload
uAb:_png_do_read_swap_alpha
jWd:_sched_yield__wrapper
aS:__ZN15MyTexturePackerD2Ev
Ha:invoke_iiiii
YJa:__ZNSt3__218__insertion_sort_3IRPFbRKN12_GLOBAL__N_115LightweightPairIiiEES5_EPS3_EEvT0_SA_T_
Fza:__ZN11b2RopeJointD0Ev
pub:_z__tr_flush_bits
PVd:mftCall_viiiii
poa:__ZN12_GLOBAL__N_121GGStreamOpenALManager16ChannelIsPlayingEm
bc:invoke_viii
gda:__ZNK9Transform1yEv
Jgb:__ZN9g_private12TimerManagerC2Ev
re:_SDL_GL_ExtensionSupported
BZa:__ZN17ApplicationBinder11getLanguageEP9lua_State
Hsd:__ZNKSt3__215__codecvt_utf16IDsLb0EE16do_always_noconvEv
WN:__ZNSt3__26vectorI6Point2IfENS_9allocatorIS2_EEE8__appendEj
jEb:_png_write_tRNS
Lb:invoke_viid
G8c:__ZNSt3__26__sortIRNS_6__lessIeeEEPeEEvT0_S5_T_
uLa:__ZN16b2ParticleSystem16SetParticleFlagsEij
KFd:__ZNKSt3__212basic_stringIcNS_11char_traitsIcEENS_9allocatorIcEEE12find_last_ofEPKcjj
lya:__ZN6b2Vec3C2Efff
kSc:_towupper_l
pVa:__ZN12_GLOBAL__N_114GGSoundChannel9getVolumeEv
NNa:__ZNK13b2PulleyJoint17GetCurrentLengthAEv
ma:ftCall_diiddi
jG:ensureOverloadTable
Npa:__ZNSt3__26__treeINS_12__value_typeImPN12_GLOBAL__N_121GGStreamOpenALManager7ChannelEEENS_19__map_value_compareImS6_NS_4lessImEELb1EEENS_9allocatorIS6_EEE7destroyEPNS_11__tree_nodeIS6_PvEE
Imc:_af_latin_hints_apply
NTa:__ZN11PixelBinder18getTexturePositionEP9lua_State
LTb:_unz64local_getLong
MKd:__ZNKSt3__212_GLOBAL__N_114initial_stringINS_12basic_stringIcNS_11char_traitsIcEENS_9allocatorIcEEEEiLb0EEclEv
aHb:_set_wraparound_pointers
dvd:__ZNSt3__218__time_get_storageIcE9__analyzeEcRKNS_5ctypeIcEE
jZb:_luaK_storevar
Bza:__ZNK11b2RopeJoint10GetAnchorBEv
HNc:_sha256_sum
Uh:___libc_current_sigrtmax
uSd:___cxa_guard_abort
sN:__ZN12GraphicsBaseC2Ev
V$a:__ZN12Box2DBinder220b2Contact_isTouchingEP9lua_State
uad:__ZNSt3__217__assoc_sub_state4copyEv
z4:__ZNSt3__26vectorIP11TextureBaseNS_9allocatorIS2_EEE21__push_back_slow_pathIRKS2_EEvOT_
xSa:__ZNSt3__26__treeINS_12__value_typeIP7ClosureP11ProfileInfoEENS_19__map_value_compareIS3_S6_NS_4lessIS3_EELb1EEENS_9allocatorIS6_EEE16__insert_node_atEPNS_15__tree_end_nodeIPNS_16__tree_node_baseIPvEEEERSI_SI_
Ho:_eglQueryContext
eub:_build_bl_tree
dB:_glfwSignalCond
Ppd:__ZNKSt3__27codecvtIwc11__mbstate_tE10do_unshiftERS1_PcS4_RS4_
Vqc:_Ins_ALIGNRP
Ohc:_Set_High_Precision
Hed:__ZNSt3__213basic_istreamIcNS_11char_traitsIcEEErsEPFRS3_S4_E
Kb:ftCall_vii
Zhd:__ZNSt3__211__stdoutbufIcE4syncEv
h2b:__ZL14db_getregistryP9lua_State
Yzc:_FT_Vector_Unit
kLd:__ZNSt3__210to_wstringEi
nLd:__ZNSt3__210to_wstringEj
EKc:_strtoll
Ukb:__ZN6gevent12EventManager12enqueueEventEmPFviPvS1_EiS1_iS1_
tLd:__ZNSt3__210to_wstringEm
Bhc:_FT_MulFix
tR:__ZNK5GMesh17getIndexArraySizeEv
gG:emscriptenWebGLGetUniform
AH:FUNCTION_TABLE_iiiiiiiiiii
CLd:__ZNSt3__210to_wstringEf
wLd:__ZNSt3__210to_wstringEx
sxc:_cff_set_mm_blend
T8:__ZNSt3__26__treeIP6SpriteNS_4lessIS2_EENS_9allocatorIS2_EEE5eraseENS_21__tree_const_iteratorIS2_PNS_11__tree_nodeIS2_PvEEiEE
mga:__GLOBAL__sub_I_gl2ShaderProgram_cpp
td:_Mix_Pause
w7c:__ZNSt3__27__sort4IRNS_6__lessIhhEEPhEEjT0_S5_S5_S5_T_
H3a:__ZN12Box2DBinder225b2Body_setSleepingAllowedEP9lua_State
la:invoke_diiddi
LMb:_prepare_for_pass
Lmd:__ZNKSt3__210__time_put8__do_putEPwRS1_PK2tmcc
Lv:_emscripten_wget
u_b:__ZL13inclinenumberP8LexState
WSd:runPostSets17
dR:__ZNSt3__26vectorIfNS_9allocatorIfEEE18__construct_at_endIPKfEENS_9enable_ifIXsr21__is_forward_iteratorIT_EE5valueEvE4typeES8_S8_j
Ked:__ZNSt3__213basic_istreamIcNS_11char_traitsIcEEErsEPNS_15basic_streambufIcS2_EE
Di:___syscall178
u_:__ZL15easeInOutBounced
vya:__ZN15b2FrictionJoint4DumpEv
jid:__ZNSt3__210__stdinbufIcE5imbueERKNS_6localeE
nDa:__ZN22b2EdgeAndCircleContact7DestroyEP9b2ContactP16b2BlockAllocator
S3b:__ZL5LnindP9lua_State
EHb:_arith_decode
KHd:__ZNKSt3__212basic_stringIwNS_11char_traitsIwEENS_9allocatorIwEEE5emptyEv
fcb:__ZN14EventBinderMapD2Ev
du:_emscripten_request_pointerlock
VGb:_start_pass_main
Rtd:__ZNKSt3__27collateIwE7compareEPKwS3_S3_S3_
BFa:__ZN13b2PulleyJointC2EPK16b2PulleyJointDef
HHd:__ZNSt3__212basic_stringIwNS_11char_traitsIwEENS_9allocatorIwEEE26__invalidate_all_iteratorsEv
eua:_ggeolocation_startUpdatingHeading
gba:__ZNSt3__212__deque_baseI9_cliprectNS_9allocatorIS1_EEED2Ev
UBc:_FT_Reference_Face
jhd:__ZNSt3__213basic_ostreamIwNS_11char_traitsIwEEElsEPNS_15basic_streambufIwS2_EE
bD:_localtime
tsb:___sfvwrite
FU:__ZNSt3__215basic_stringbufIcNS_11char_traitsIcEENS_9allocatorIcEEE7seekoffExNS_8ios_base7seekdirEj
ODa:__ZNSt3__27__sort5IRPFbRK6b2PairS3_EPS1_EEjT0_S8_S8_S8_S8_T_
lzd:__ZNSt3__26locale5__imp7installINS_12ctype_bynameIwEEEEvPT_
Pvd:__ZNSt3__215time_put_bynameIcNS_19ostreambuf_iteratorIcNS_11char_traitsIcEEEEEC2EPKcj
rha:__ZN16ogl2ShaderEngine13getPropertiesERNSt3__23mapINS0_12basic_stringIcNS0_11char_traitsIcEENS0_9allocatorIcEEEES7_NS0_4lessIS7_EENS5_INS0_4pairIKS7_S7_EEEEEE
Htb:__Z13pathForFileExPKcS0_
Kwa:__ZN17b2ContactListener12BeginContactEP16b2ParticleSystemP21b2ParticleBodyContact
Usa:__ZNSt3__26__treeINS_12__value_typeIm12GHttpContextEENS_19__map_value_compareImS3_NS_4lessImEELb1EEENS_9allocatorIS3_EEE16__construct_nodeIJRKNS_21piecewise_construct_tENS_5tupleIJRKmEEENSF_IJEEEEEENS_10unique_ptrINS_11__tree_nodeIS3_PvEENS_22__tree_node_destructorINS8_ISN_EEEEEEDpOT_
MXd:_glDeleteRenderbuffers__wrapper
nvd:__ZNSt3__215__time_get_tempIcEC2ERKNS_12basic_stringIcNS_11char_traitsIcEENS_9allocatorIcEEEE
G1b:__ZL10luaB_errorP9lua_State
bsd:__ZNKSt3__214__codecvt_utf8IDiE10do_unshiftER11__mbstate_tPcS4_RS4_
iGc:_read_event
F_a:__ZN13TileMapBinder10setTextureEP9lua_State
qyb:_png_safe_warning
nzc:_BBox_Conic_Check
Zca:__ZNK9Transform4refYEv
Fvb:_z_gzungetc
k4c:_labs
Tta:_gui_isSecureInput
MP:__ZN8Matrix2DC2Effffff
Mac:_mpg123_format_all
OAd:__ZNKSt3__219__shared_weak_count13__get_deleterERKSt9type_info
Ca:ftCall_iiddi
wic:_ft_raster1_render
yWd:b15
mY:__ZN5PixelD2Ev
SLd:__ZNSt3__210istrstreamD1Ev
j9b:__ZN6snappyL17GetUint32AtOffsetEPKci
unb:__ZN14GGSoundManager16ChannelIsLoopingEm
Ezc:_ft_stroke_border_init
Ora:__ZNSt3__26__treeINS_12__value_typeIm12GHttpContextEENS_19__map_value_compareImS3_NS_4lessImEELb1EEENS_9allocatorIS3_EEE4findImEENS_15__tree_iteratorIS3_PNS_11__tree_nodeIS3_PvEEiEERKT_
PCd:__ZNKSt3__221__basic_string_commonILb1EE20__throw_length_errorEv
dDd:__ZNSt3__212basic_stringIcNS_11char_traitsIcEENS_9allocatorIcEEEC2EPKc
Ckd:__ZNKSt3__28time_getIcNS_19istreambuf_iteratorIcNS_11char_traitsIcEEEEE13do_date_orderEv
Pg:_TTF_SizeText
p:fb
e6b:__ZL9str_upperP9lua_State
izc:_BBox_Line_To
$qb:_luaL_setdata
CFd:__ZNKSt3__212basic_stringIcNS_11char_traitsIcEENS_9allocatorIcEEE13find_first_ofERKS5_j
Ird:__ZNKSt3__214__codecvt_utf8IwE6do_outER11__mbstate_tPKwS5_RS5_PcS7_RS7_
kWd:b12
rL:__ZN5Stage10mouseHoverEiiiiffff
dpd:__ZNSt3__28messagesIcED0Ev
_cc:_INT123_do_layer1
mya:__ZN6b2Vec3pLERKS_
Pvb:_z_gzopen64
dt:_emscripten_glUniform4fv
ZX:__ZNK9TextField4textEv
Qub:_z_inflateBackInit_
tvb:_z_adler32_combine
Ed:_Mix_Quit
PD:_pthread_condattr_getpshared
ALc:___ldexp_cexp
d7b:__ZL4set2P9lua_Stateii
Ge:_SDL_GetKeyState
TNd:__ZNK10__cxxabiv117__class_type_info27has_unambiguous_public_baseEPNS_19__dynamic_cast_infoEPvi
GCc:_FT_Library_Version
GFa:__ZN7b2World20CreateParticleSystemEPK19b2ParticleSystemDef
pAb:_png_do_check_palette_indexes
kta:_ghttp_IgnoreSSLErrors
hYa:__ZNSt3__26vectorI12ghttp_HeaderNS_9allocatorIS1_EEE6resizeEj
VHd:__ZNSt3__212basic_stringIwNS_11char_traitsIwEENS_9allocatorIwEEE6appendEPKw
wmc:_af_dummy_hints_init
IGd:__ZNSt3__212basic_stringIwNS_11char_traitsIwEENS_9allocatorIwEEEC2ERKS5_jjRKS4_
pwd:__ZNKSt3__210moneypunctIwLb0EE11curr_symbolEv
Ll:__softFullscreenResizeWebGLRenderTarget
aOc:_encrypt
b0b:_lua_getinfo
Utd:__ZNSt3__27num_getIcNS_19istreambuf_iteratorIcNS_11char_traitsIcEEEEEC2Ej
ZId:__ZNSt3__210__find_endIPFbwwEPKwS4_EET0_S5_S5_T1_S6_T_NS_26random_access_iterator_tagES8_
Pka:__ZNSt3__26__treeINS_12__value_typeINS_12basic_stringIcNS_11char_traitsIcEENS_9allocatorIcEEEENS_6vectorIhNS5_IhEEEEEENS_19__map_value_compareIS7_SB_NS_4lessIS7_EELb1EEENS5_ISB_EEE25__emplace_unique_key_argsIS7_JRKNS_21piecewise_construct_tENS_5tupleIJOS7_EEENSM_IJEEEEEENS_4pairINS_15__tree_iteratorISB_PNS_11__tree_nodeISB_PvEEiEEbEERKT_DpOT0_
JRd:__ZN10__cxxabiv112_GLOBAL__N_119parse_discriminatorEPKcS2_
n$:__ZL14easeOutElasticddd
t2:__ZNK6TTFont7getTypeEv
koa:__ZN12_GLOBAL__N_121GGStreamOpenALManager11ChannelStopEm
MBa:__ZNK10b2TreeNode6IsLeafEv
Yra:__ZNSt3__26__treeINS_12__value_typeIm12GHttpContextEENS_19__map_value_compareImS3_NS_4lessImEELb1EEENS_9allocatorIS3_EEE13__lower_boundImEENS_15__tree_iteratorIS3_PNS_11__tree_nodeIS3_PvEEiEERKT_SG_PNS_15__tree_end_nodeIPNS_16__tree_node_baseISE_EEEE
yib:__ZNSt3__26__treeINS_12__value_typeImPN9g_private14TextureManager18TempTextureElementEEENS_19__map_value_compareImS6_NS_4lessImEELb1EEENS_9allocatorIS6_EEED2Ev
BWb:_luaF_getlocalname
zPc:_fstat
Vdd:__ZNSt3__215basic_streambufIwNS_11char_traitsIwEEE9pubsetbufEPwi
IVb:__ZL9lessequalP9lua_StatePK10lua_TValueS3_
CNb:__ZN6snappy4Sink15GetAppendBufferEjPc
hVd:mftCall_vdddddi
hHd:__ZNSt3__212basic_stringIwNS_11char_traitsIwEENS_9allocatorIwEEE5beginEv
rMb:_pre_process_data
pWb:_luaG_ordererror
bHc:_check_delay
A9:__ZN10GridInsetsC2Effff
PW:__ZN11Application14getDefaultFontEv
iWd:b11
fA:_glfwBroadcastCond
Pic:_tt_cmap4_get_info
JC:_llvm_mono_store_i16_p0i16
iob:__ZN14GGAudioManager19BackgroundMusicPlayEmb
yab:__ZNK5Timer11repeatCountEv
Fwd:__ZNSt3__217moneypunct_bynameIcLb0EEC2EPKcj
mn:_alcCaptureOpenDevice
xy:_glGetShaderPrecisionFormat
Zfc:_INT123_set_synth_functions
ZB:_killpg
qsc:_SetSuperRound
hva:__Z5b2MulRK11b2TransformRK6b2Vec2
jda:__ZN7Matrix214getDeterminantEv
AWc:_write
B1c:___statfs
$$b:__ZL9findlocalP9lua_StateP8CallInfoi
Iba:__ZNSt3__25dequeI7Matrix4NS_9allocatorIS1_EEE9push_backERKS1_
cfd:__ZNSt3__213basic_istreamIcNS_11char_traitsIcEEE3getERNS_15basic_streambufIcS2_EE
E0c:_tre_stack_push_voidptr
oL:__ZN9EventTypeI5EventEC2EPKc
xzd:__ZNSt3__26locale5__imp7installINS_17moneypunct_bynameIwLb1EEEEEvPT_
IA:_glfwLoadTexture2D
aId:__ZNSt3__212basic_stringIwNS_11char_traitsIwEENS_9allocatorIwEEE8pop_backEv
EUd:_llvm_nearbyint_f32
nzb:_png_get_sBIT
Rdd:__ZNKSt3__215basic_streambufIcNS_11char_traitsIcEEE5epptrEv
Ls:_emscripten_glStencilOpSeparate
B5b:__ZL10math_frexpP9lua_State
ooa:__ZN12_GLOBAL__N_121GGStreamOpenALManager15ChannelIsPausedEm
y3b:__ZL4LaddP9lua_State
goa:__ZN12_GLOBAL__N_121GGStreamOpenALManager11SoundDeleteEm
doc:_af_loader_init
O3a:__ZN6b2Body9SetBulletEb
sHd:__ZNKSt3__212basic_stringIwNS_11char_traitsIwEENS_9allocatorIwEEE4cendEv
IKa:__ZN16b2ParticleSystem21RequestGrowableBufferI21b2ParticleBodyContactEEPT_S3_iPi
p0:__ZN4SlotI9MovieClip15EnterFrameEventEeqERKS2_
RNa:__ZN18b2DistanceJointDef10InitializeEP6b2BodyS1_RK6b2Vec2S4_
ggc:_frame_buffercheck
l8:__ZNK3Dib18baseOriginalHeightEv
OD:_pthread_condattr_getclock
tSb:___gl_pqSortDeletePriorityQ
_yb:_png_get_cHRM_fixed
gwd:__ZNKSt3__210moneypunctIcLb1EE13positive_signEv
Dwb:_png_destroy_info_struct
iIb:_jpeg_idct_4x4
NWc:_flockfile
tra:__Z18getSafeDisplayAreaRiS_S_S_
m9c:__ZNSt3__28__c_nodeD2Ev
vqa:__ZN21GGSampleOpenALManager8postTickEv
U7c:__ZNSt3__27__sort4IRNS_6__lessIjjEEPjEEjT0_S5_S5_S5_T_
wrc:_Ins_DELTAP
kz:_glStencilOpSeparate
o2b:__ZL12db_settypemtP9lua_State
ZBb:_png_set_read_status_fn
pVb:__ZL13traversetableP12global_StateP5Table
Lr:_emscripten_glGetError
vW:__ZN11Application7keyCharEPKc
b4:__ZL4readP13FT_StreamRec_mPhm_234
GTb:_unzStringFileNameCompare
vaa:__ZNSt3__214__split_bufferIPPK6SpriteNS_9allocatorIS4_EEE9push_backEOS4_
N5c:_cfsetispeed
hQa:__GLOBAL__sub_I_applicationbinder_cpp
I5c:_mktemp
CU:__ZNSt3__26__treeINS_12__value_typeIiN4Font12TextureGlyphEEENS_19__map_value_compareIiS4_NS_4lessIiEELb1EEENS_9allocatorIS4_EEE16__insert_node_atEPNS_15__tree_end_nodeIPNS_16__tree_node_baseIPvEEEERSG_SG_
mbb:__ZNK9EventTypeI8LuaEventE2idEv
ib:ftCall_vid
EX:__ZN11Application18getBackgroundColorEPfS0_S0_
J3b:__ZL5LbandP9lua_State
eG:emscriptenWebGLGet
rYa:__ZN11GGUrlLoader8callbackEiPv
mwb:_png_zalloc
Zwc:_cff_index_get_string
exc:_cff_encoding_load
nwd:__ZNKSt3__210moneypunctIwLb0EE13thousands_sepEv
JEd:__ZNSt3__212basic_stringIcNS_11char_traitsIcEENS_9allocatorIcEEE6assignENS_17basic_string_viewIcS2_EE
Sb:ftCall_viidddddd
Tn:_boxRGBA
Gtd:__ZNKSt3__220__codecvt_utf8_utf16IDsE5do_inER11__mbstate_tPKcS5_RS5_PDsS7_RS7_
cIb:_jpeg_idct_11x11
ncc:_INT123_ntom_frame_outsamples
Bga:__ZN13ShaderProgram8DataDescC2ERKS0_
drc:_Ins_SCFS
yK:__ZN5Stage30dispatchToSpritesWithListenersEP5Event
bTc:_exp2f
rAa:__ZN10b2FreeList4FreeEP19b2IntrusiveListNode
SO:__ZNSt3__26vectorIN11TexturePack4RectENS_9allocatorIS2_EEE21__push_back_slow_pathIRKS2_EEvOT_
dxa:__ZN25b2PolygonAndCircleContact8EvaluateEP10b2ManifoldRK11b2TransformS4_
OHa:__ZNK16b2ParticleSystem17ForceCanBeAppliedEj
Tzc:_ft_stroker_outside
nw:_ftime
Hxd:__ZNSt3__214codecvt_bynameIDsc11__mbstate_tEC2ERKNS_12basic_stringIcNS_11char_traitsIcEENS_9allocatorIcEEEEj
CDa:__ZN23b2EdgeAndPolygonContactC2EP9b2FixtureS1_
FKa:__ZNK6b2Body10GetInertiaEv
zMd:__ZNKSt3__214error_category10equivalentERKNS_10error_codeEi
EDb:_png_set_check_for_invalid_index
iMd:__ZNSt3__212strstreambufC2EPFPvjEPFvS1_E
s7a:__ZN12SpriteBinder8containsEP9lua_State
Jvd:__ZNSt3__210__time_putC2ERKNS_12basic_stringIcNS_11char_traitsIcEENS_9allocatorIcEEEE
IFc:_read_row
aQ:__ZNSt3__214__split_bufferIN7TileMap6TileIdERNS_9allocatorIS2_EEEC2EjjS5_
Tub:_z_inflate_fast
yPa:__ZN6b2AABB7CombineERKS_
ov:_emscripten_vr_display_presenting
iw:_floor
Is:_emscripten_glStencilMask
If:_SDL_PumpEvents
TWd:b19
fgd:__ZNSt3__213basic_istreamIwNS_11char_traitsIwEEE4syncEv
K1:__ZN13GRenderTargetC2EP11Applicationii6Filter4Wrapb
dCc:_FT_Face_GetCharVariantIndex
esa:__ZNSt3__23mapIm12GHttpContextNS_4lessImEENS_9allocatorINS_4pairIKmS1_EEEEEixERS6_
mJd:__ZNKSt3__212basic_stringIwNS_11char_traitsIwEENS_9allocatorIwEEE12find_last_ofEwj
Gra:__Z13g_setPropertyPKcS0_
aWa:__ZN10MeshBinder17resizeVertexArrayEP9lua_State
LM:__ZNK7Vector3ngEv
Gvc:_cf2_getStdVW
Q8c:__ZNSt3__223mersenne_twister_engineIjLj32ELj624ELj397ELj31ELj2567483615ELj11ELj4294967295ELj7ELj2636928640ELj15ELj4022730752ELj18ELj1812433253EE4seedEj
fVa:__ZN12_GLOBAL__N_114GGSoundChannel11getStreamIdEv
IPd:__ZN10__cxxabiv112_GLOBAL__N_111short_allocINSt3__26vectorINS3_INS0_11string_pairENS1_IS4_Lj4096EEEEENS1_IS6_Lj4096EEEEELj4096EE10deallocateEPS8_j
KAc:_hash_num_compare
L0a:__ZThn508_N11b2DebugDraw13DrawParticlesEPK6b2Vec2fPK15b2ParticleColori
uRc:_isupper_l
$Ma:__ZN16b2PrismaticJoint13SetMotorSpeedEf
XMa:__ZNK16b2PrismaticJoint13GetUpperLimitEv
J8:__ZNK15EventDispatcher16hasEventListenerI11LayoutEventEEbRK9EventTypeIT_E
I6c:_do_setxid
fw:_filledEllipseColor
Jsd:__ZNKSt3__215__codecvt_utf16IDsLb0EE13do_max_lengthEv
JSd:runPostSets4
GB:_glutMouseFunc
QSa:__ZN12ScreenBinder7getSizeEP9lua_State
Nta:_gui_isVisible
Mb:ftCall_viid
jpb:_gaudio_BackgroundChannelAddCallback
nrc:_Ins_GTEQ
cc:ftCall_viii
Zqd:__ZNSt3__25ctypeIcE13classic_tableEv
$$c:_fnmatch
gEa:__ZN16b2ParticleSystem10FreeBufferINS_5ProxyEEEvPPT_i
vBa:__Z5b2AbsRK6b2Vec2
zia:__ZNSt3__26vectorI8vector4fNS_9allocatorIS1_EEE10deallocateEv
es:_emscripten_glGetUniformiv
Lj:___syscall345
wZc:_dn_skipname
TI:__ZN12VertexBufferIfED2Ev
Syd:__ZNSt3__26vectorIPNS_6locale5facetENS_15__sso_allocatorIS3_Lj28EEEE6resizeEj
bfa:__ZNSt3__212__deque_baseIN12ShaderEngine12DepthStencilENS_9allocatorIS2_EEE5clearEv
QMa:__ZNK6b2Body8GetAngleEv
AQb:__ZNK11CPVRTString8max_sizeEv
fNb:_jpeg_simple_progression
dRc:___pthread_self_139
HQc:___pthread_self_132
GBb:_png_read_sig
TQd:__ZN10__cxxabiv112_GLOBAL__N_117parse_typeid_exprINS0_2DbEEEPKcS4_S4_RT_
Z2c:_getchar
tSa:__ZNSt3__26__treeINS_12__value_typeINS_12basic_stringIcNS_11char_traitsIcEENS_9allocatorIcEEEEdEENS_19__map_value_compareIS7_S8_NS_4lessIS7_EELb1EEENS5_IS8_EEEC2ERKSC_
OMc:_strncmp
HUd:mftCall_dd
RM:__ZN10BitmapDataC2EP11TextureBase
KTb:_unz64local_SearchCentralDir64
YWa:__ZN17GGTextInputDialogD2Ev
L7:__ZNSt3__214__split_bufferIPNS_4pairIP5TimeriEENS_9allocatorIS5_EEE9push_backEOS5_
jOd:__ZNSt9bad_allocD0Ev
i3:__ZN10TouchEventD0Ev
h1:__ZNSt3__26__treeIP15EventDispatcherNS_4lessIS2_EENS_9allocatorIS2_EEE12__find_equalIS2_EERPNS_16__tree_node_baseIPvEERPNS_15__tree_end_nodeISC_EERKT_
Rxa:__Z5b2LogPKcz
hVc:_nextafterf
Tbc:_INT123_frame_buffers_reset
c6:__ZNSt3__26__treeINS_12__value_typeIiNS_6vectorIP8SlotBaseNS_9allocatorIS4_EEEEEENS_19__map_value_compareIiS8_NS_4lessIiEELb1EEENS5_IS8_EEED2Ev
y5a:__ZN19AccelerometerBinder6createEP9lua_State
ESc:_asinh
Tr:_emscripten_glGetQueryObjectui64vEXT
Kn:_asinl
vTa:__ZN15ParticlesBinder10setTextureEP9lua_State
YHd:__ZNSt3__212basic_stringIwNS_11char_traitsIwEENS_9allocatorIwEEEpLESt16initializer_listIwE
K7b:__ZN8pystring5rfindERKNSt3__212basic_stringIcNS0_11char_traitsIcEENS0_9allocatorIcEEEES8_ii
uGc:_get_lfo_st3
LY:__ZN6Screen10setVisibleEb
Wc:RegisteredPointer_getPointee
alb:__ZNSt3__214__split_bufferIPN6gevent12EventManager17EventQueueElementENS_9allocatorIS4_EEE10push_frontEOS4_
aBa:__Z14b2SetNumAllocsi
q0a:__ZN12Box2DBinder220b2DebugDraw_setFlagsEP9lua_State
Zrb:_g_flockfile
zHa:__ZltRKN16b2ParticleSystem5ProxyEj
YCd:__ZNKSt3__212basic_stringIcNS_11char_traitsIcEENS_9allocatorIcEEE18__get_long_pointerEv
UDd:__ZNKSt3__212basic_stringIcNS_11char_traitsIcEENS_9allocatorIcEEE4rendEv
V8c:__ZNSt12experimental15fundamentals_v112bad_any_castD0Ev
yRa:__ZL12lzstream_newP9lua_Statei
LZa:__ZN17ApplicationBinder13getDeviceInfoEP9lua_State
Pd:_SDL_AllocRW
Dja:_hasNumber
dua:_ggeolocation_startUpdatingLocation
kL:__ZNSt3__214__split_bufferIPP6SpriteNS_9allocatorIS3_EEED2Ev
b6:__ZNSt3__23mapIiNS_6vectorIP8SlotBaseNS_9allocatorIS3_EEEENS_4lessIiEENS4_INS_4pairIKiS6_EEEEED2Ev
E2:__ZNSt3__26__treeINS_12__value_typeIiN6TTFont9GlyphDataEEENS_19__map_value_compareIiS4_NS_4lessIiEELb1EEENS_9allocatorIS4_EEEC2ERKS8_
E4:__ZN5Shape12setLineStyleEfjf
Q1b:__ZL11luaB_rawgetP9lua_State
mVc:___FLOAT_BITS_336
$ka:__ZNK14LuaApplication14getApplicationEv
nsc:_Normalize
iVc:___FLOAT_BITS_335
MPd:__ZN10__cxxabiv112_GLOBAL__N_111short_allocINS0_11string_pairELj4096EE10deallocateEPS2_j
bSd:__ZNSt3__212basic_stringIcNS_11char_traitsIcEEN10__cxxabiv112_GLOBAL__N_112malloc_allocIcEEE5eraseEjj
ugc:_mpg123_tell
dK:__ZN9Particles6getTtlEi
Zud:__ZNKSt3__28time_getIwNS_19istreambuf_iteratorIwNS_11char_traitsIwEEEEE3getES4_S4_RNS_8ios_baseERjP2tmcc
Tcb:__ZN14FontBaseBinder12getDescenderEP9lua_State
aNc:_printf_core
SAa:__ZN16b2BlockAllocator4FreeEPvi
ehb:__ZNSt3__26__treeINS_12__value_typeIiN9g_private12TimerManager12TimerElementEEENS_19__map_value_compareIiS5_NS_4lessIiEELb1EEENS_9allocatorIS5_EEE16__construct_nodeIJRKNS_21piecewise_construct_tENS_5tupleIJRKiEEENSH_IJEEEEEENS_10unique_ptrINS_11__tree_nodeIS5_PvEENS_22__tree_node_destructorINSA_ISP_EEEEEEDpOT_
a2:__ZN11TTTextField12setTextColorEj
Zyc:_ps_mask_test_bit
T4c:_rindex
sg:_SDL_WM_ToggleFullScreen
Wqc:_Ins_RTDG
Cka:__ZN18ApplicationManager14setProjectNameEPKc
gcd:__ZNKSt3__29basic_iosIcNS_11char_traitsIcEEEntEv
WMa:__ZNK16b2PrismaticJoint13GetLowerLimitEv
fNa:__ZNK15b2FrictionJoint11GetMaxForceEv
A6b:__ZL10scanformatP9lua_StatePKcPc
eB:_glfwSleep
w$b:_luaU_dump
s2a:__ZN12Box2DBinder229b2RevoluteJoint_getMotorSpeedEP9lua_State
_c:_IMG_Quit
Pdd:__ZNKSt3__215basic_streambufIcNS_11char_traitsIcEEE5pbaseEv
Wkb:__ZNSt3__25dequeIN6gevent12EventManager17EventQueueElementENS_9allocatorIS3_EEE19__add_back_capacityEv
fz:_glStencilFunc
Ebb:__ZN16PushEventVisitor5visitEP10ErrorEvent
tJd:__ZNKSt3__212basic_stringIwNS_11char_traitsIwEENS_9allocatorIwEEE16find_last_not_ofENS_17basic_string_viewIwS2_EEj
kga:__ZN17ShaderBufferCacheD0Ev
u1c:_lchmod
b8a:__ZN12SpriteBinder14getAnchorPointEP9lua_State
Oxa:__ZNK6b2Body7GetMassEv
_ia:__ZL7arc_todP12reduced_pathdddddiidd
Y6a:__ZNSt3__214__split_bufferIPKcRNS_9allocatorIS2_EEEC2EjjS5_
ox:_glDeleteProgram
EDc:_load_instruments
ygc:_mpg123_seek
sxa:__ZN13b2TempPolygonC2Ev
sUa:__ZN12Path2DBinder7setPathEP9lua_State
nk:__addDays
Ee:_SDL_GetError
vvd:__ZNSt3__214__scan_keywordIPwPNS_12basic_stringIwNS_11char_traitsIwEENS_9allocatorIwEEEENS_5ctypeIwEEEET0_RT_SC_SB_SB_RKT1_Rjb
y$b:__ZL12DumpFunctionPK5ProtoPK7TStringP9DumpState
lpa:__ZNSt3__26__treeINS_12__value_typeImPN12_GLOBAL__N_121GGStreamOpenALManager7ChannelEEENS_19__map_value_compareImS6_NS_4lessImEELb1EEENS_9allocatorIS6_EEE4findImEENS_15__tree_iteratorIS6_PNS_11__tree_nodeIS6_PvEEiEERKT_
r5c:_wcsdup
kx:_glCreateShader
h$a:__ZN12Box2DBinder216getMouseJointDefEP9lua_State
g1:__ZNSt3__26__treeIP15EventDispatcherNS_4lessIS2_EENS_9allocatorIS2_EEE25__emplace_unique_key_argsIS2_JRKS2_EEENS_4pairINS_15__tree_iteratorIS2_PNS_11__tree_nodeIS2_PvEEiEEbEERKT_DpOT0_
Qy:_glIsShader
s_b:__ZL6yindexP8LexStateP7expdesc
Ub:ftCall_viiddi
LEd:__ZNSt3__212basic_stringIcNS_11char_traitsIcEENS_9allocatorIcEEE6assignEOS5_
Euc:_cf2_glyphpath_curveTo
lEd:__ZNSt3__212basic_stringIcNS_11char_traitsIcEENS_9allocatorIcEEE5clearEv
dla:__ZN18ApplicationManager14surfaceCreatedEv
G0c:_tre_stack_pop_int
lEa:__ZN16b2ParticleSystem10FreeBufferIiEEvPPT_i
gOa:__ZNK6b2Rope4DrawEP6b2Draw
CX:__ZNSt3__26__treeIP6TickerNS_4lessIS2_EENS_9allocatorIS2_EEE13__lower_boundIS2_EENS_15__tree_iteratorIS2_PNS_11__tree_nodeIS2_PvEEiEERKT_SD_PNS_15__tree_end_nodeIPNS_16__tree_node_baseISB_EEEE
yS:__ZN13TexturePackerD0Ev
Lhd:__ZNSt3__210__stdinbufIcEC2EP8_IO_FILEP11__mbstate_t
fZa:__ZN12MovieClipLua8setFieldEi9Parameterf
anc:_af_axis_hints_new_edge
VKa:__ZNSt3__27__sort3IRPFbRKN12_GLOBAL__N_115LightweightPairIP9b2FixtureiEES7_EPS5_EEjT0_SC_SC_T_
pjc:_tt_cmap13_get_info
Bya:__ZNK15b2RevoluteJoint10GetAnchorBEv
Bzc:_FT_Outline_GetInsideBorder
O9a:__ZN12MatrixBinder12getRotationXEP9lua_State
wTb:_fread_file_func
I9a:__ZN12MatrixBinder6invertEP9lua_State
GCb:_png_image_read_background
mQb:__ZNK11CPVRTStringixEj
vSb:_DeleteRegion
_8c:__ZNSt3__26chrono12steady_clock3nowEv
usd:__ZNKSt3__215__codecvt_utf16IwLb1EE10do_unshiftER11__mbstate_tPcS4_RS4_
NHc:_get_size
ypd:__ZNSt3__215messages_bynameIcED2Ev
VEb:_png_set_filter_heuristics
jPd:__ZN10__cxxabiv129__pointer_to_member_type_infoD0Ev
clb:__ZNSt3__214__split_bufferIPN6gevent12EventManager17EventQueueElementERNS_9allocatorIS4_EEE10push_frontERKS4_
f8c:__ZNSt3__27__sort5IRNS_6__lessImmEEPmEEjT0_S5_S5_S5_S5_T_
yya:__ZN15b2FrictionJoint24SolveVelocityConstraintsERK12b2SolverData
kFb:_png_image_write_init
Pac:_mpg123_format
Kj:___syscall340
tG:getLiveInheritedInstances
nd:_Mix_Linked_Version
aQc:_feholdexcept
rR:__ZN5GMesh15clearColorArrayEv
PJ:__ZNSt3__214__split_bufferIhRNS_9allocatorIhEEE18__construct_at_endEj
AW:__ZN11Application13touchesCancelEP17ginput_TouchEvent
N2:__ZNSt3__26vectorIN6TTFont8FontFaceENS_9allocatorIS2_EEE18__construct_at_endEj
C5a:__ZN19AccelerometerBinder4stopEP9lua_State
Jka:__ZNSt3__26__treeINS_12__value_typeINS_12basic_stringIcNS_11char_traitsIcEENS_9allocatorIcEEEENS_6vectorIhNS5_IhEEEEEENS_19__map_value_compareIS7_SB_NS_4lessIS7_EELb1EEENS5_ISB_EEE12__find_equalIS7_EERPNS_16__tree_node_baseIPvEERPNS_15__tree_end_nodeISM_EERKT_
I0a:__ZThn508_N11b2DebugDraw16DrawSolidPolygonEPK6b2Vec2iRK7b2Color
fp:_emscripten_async_wget
iFb:_png_write_png
fDa:__ZN15b2CircleContact6CreateEP9b2FixtureiS1_iP16b2BlockAllocator
dsc:_Ins_GETDATA
GJc:__ZN10emscripten8internal11LightTypeIDIaE3getEv
Lhb:__ZL11term_sourceP22jpeg_decompress_struct
R1a:__ZN12Box2DBinder231b2DistanceJoint_getDampingRatioEP9lua_State
gqa:__ZN21GGSampleOpenALManager16ChannelSetPausedEmb
oDc:_ft_gzip_file_io
WRa:__ZN3Rnd7MT1993710ExtractU32Ev
Kkd:__ZNKSt3__220__time_get_c_storageIcE8__monthsEv
jDd:__ZNSt3__212basic_stringIcNS_11char_traitsIcEENS_9allocatorIcEEEC2EjcRKS4_
M4:__ZNSt3__26vectorINS0_I6Point2IfENS_9allocatorIS2_EEEENS3_IS5_EEE26__swap_out_circular_bufferERNS_14__split_bufferIS5_RS6_EE
T6a:__ZN17TexturePackBinder8destructEP9lua_State
itb:_gpath_addDrivePrefix
Ig:_TTF_Init
Ebd:__ZNSt3__213basic_istreamIcNS_11char_traitsIcEEED2Ev
KC:_llvm_mono_store_i32_p0i32
r2c:_fmemopen
Kgd:__ZNSt3__213basic_ostreamIcNS_11char_traitsIcEEE5seekpENS_4fposI11__mbstate_tEE
kEc:_mseek
jxd:__ZNKSt3__29money_putIcNS_19ostreambuf_iteratorIcNS_11char_traitsIcEEEEE3putES4_bRNS_8ios_baseEce
_Pd:__ZNSt3__26vectorIN10__cxxabiv112_GLOBAL__N_111string_pairENS2_11short_allocIS3_Lj4096EEEEC2EjRKS3_RKS5_
GDb:_png_get_user_transform_ptr
fGc:_smix_stereo_8bit_linear_filter
Qx:_glEnable
FA:_glfwIconifyWindow
bDb:_png_set_gamma
lHd:__ZNSt3__212basic_stringIwNS_11char_traitsIwEENS_9allocatorIwEEE3endEv
x1b:__ZL11luaB_ipairsP9lua_State
Ay:_glGetString
$4:__ZL18createGraphicsBaseRKNSt3__26vectorINS0_I6Point2IfENS_9allocatorIS2_EEEENS3_IS5_EEEER12GraphicsBasebbffPK7Matrix4
kPa:__ZN16b2ParticleSystem32CreateParticlesFillShapeForGroupEPK7b2ShapeRK18b2ParticleGroupDefRK11b2Transform
HMa:__ZN12b2MouseJoint11SetMaxForceEf
Oda:__ZN7Matrix49translateEfff
sGc:_get_lfo
Gha:__Z16ogl2SetupShadersb
J2a:__ZNSt3__214__split_bufferI6b2Vec2RNS_9allocatorIS1_EEEC2EjjS4_
LS:__ZN15MaxRectsBinPack13SplitFreeNodeE4RectRKS0_
MJd:__ZNSt3__212basic_stringIwNS_11char_traitsIwEENS_9allocatorIwEEE19__move_assign_allocERS5_
Pna:__ZN14GGSoundManager14interfacesInitEv
fG:emscriptenWebGLGetTexPixelData
bZa:__ZNSt3__26vectorI9ParameterNS_9allocatorIS1_EEE26__swap_out_circular_bufferERNS_14__split_bufferIS1_RS3_EE
e2a:__ZN12Box2DBinder230b2PrismaticJoint_setMotorSpeedEP9lua_State
VGa:__ZN16b2ParticleSystem11SolvePowderERK10b2TimeStep
v5c:_wcspbrk
Gw:_gettimeofday
Kpa:__ZNSt3__26__treeINS_12__value_typeImPN12_GLOBAL__N_121GGStreamOpenALManager5SoundEEENS_19__map_value_compareImS6_NS_4lessImEELb1EEENS_9allocatorIS6_EEED2Ev
GN:__ZNSt3__26vectorIhNS_9allocatorIhEEE6assignIPhEENS_9enable_ifIXaasr21__is_forward_iteratorIT_EE5valuesr16is_constructibleIhNS_15iterator_traitsIS7_E9referenceEEE5valueEvE4typeES7_S7_
iHc:_readmem24l
$gc:_mpg123_spf
_yd:__ZNSt3__214__split_bufferIPNS_6locale5facetERNS_15__sso_allocatorIS3_Lj28EEEED2Ev
tGd:__ZNSt3__212basic_stringIwNS_11char_traitsIwEENS_9allocatorIwEEE6__initEPKwj
ktb:__ZNSt3__26__treeINS_12basic_stringIcNS_11char_traitsIcEENS_9allocatorIcEEEENS_4lessIS6_EENS4_IS6_EEE12__find_equalIS6_EERPNS_16__tree_node_baseIPvEERPNS_15__tree_end_nodeISF_EERKT_
PAd:__ZNSt3__214__shared_count12__add_sharedEv
_0a:__ZN12Box2DBinder227b2WeldJoint_setDampingRatioEP9lua_State
zhd:__ZNSt3__28ios_base5iwordEi
YCb:_png_set_background
Mva:__ZN14b2TrackedBlockC2Ev
Kvd:__ZNSt3__28time_putIwNS_19ostreambuf_iteratorIwNS_11char_traitsIwEEEEEC2Ej
e5c:_strtok_r
icc:_INT123_ntom_ins2outs
KHb:_jpeg_idct_2x4
DXa:__ZN17GeolocationBinder11getAccuracyEP9lua_State
RHb:_jpeg_idct_2x1
Okb:__ZNK19gevent_CallbackList9equal_gidclERKNS_8CallbackE
Vbb:__ZN16EventTypeVisitor5visitEP10TouchEvent
UK:__ZNSt3__26vectorIP6SpriteNS_9allocatorIS2_EEE26__swap_out_circular_bufferERNS_14__split_bufferIS2_RS4_EE
Nzc:_ft_stroker_subpath_start
IH:FUNCTION_TABLE_viddd
xta:__ZNSt3__23mapIm8UiDialogNS_4lessImEENS_9allocatorINS_4pairIKmS1_EEEEEixERS6_
a4c:_atol
sXb:_lua_tointeger
kic:_New_Profile
k1a:__ZN12Box2DBinder230b2WheelJoint_setMaxMotorTorqueEP9lua_State
Y3c:_atof
lpc:_TT_Hint_Glyph
KWb:__ZL9tryfuncTMP9lua_StateP10lua_TValue
eZ:__ZNKSt3__26__treeIP6ScreenNS_4lessIS2_EENS_9allocatorIS2_EEE10__root_ptrEv
B9c:__ZNSt3__212_GLOBAL__N_13mutEv
bTd:runPostSets24
LGb:_jinit_2pass_quantizer
NKd:__ZNSt3__212_GLOBAL__N_19as_stringINS_12basic_stringIcNS_11char_traitsIcEENS_9allocatorIcEEEEPFiPcjPKczEiEET_T0_SD_PKNSD_10value_typeET1_
$5b:__ZL9str_lowerP9lua_State
rlc:_sfnt_open_font
cg:_SDL_StopTextInput
MLb:_encode_mcu_huff
V4c:_strcasestr
Aeb:_tlsf_ffs
LRa:__ZL17lzstream_readlineP9lua_State
$Yb:__ZL9breakstatP8LexState
kXa:__ZN15GyroscopeBinderC2EP9lua_State
rw:_getenv
eja:__ZL16subdivide_cubic4PKdPd
p6c:_getppid
E6b:__ZL8os_clockP9lua_State
aeb:_block_set_free
Au:_emscripten_set_gamepaddisconnected_callback
bta:__ZNK10emscripten8internal12WireTypePackIJNS_3valES2_RS2_NS_11memory_viewIhEES2_S2_iiiEEcvPKvEv
ZPb:__ZNK11CPVRTString7compareEjjPKc
dAc:_FT_Vector_Rotate
uGd:__ZNKSt3__212basic_stringIwNS_11char_traitsIwEENS_9allocatorIwEEE18__get_long_pointerEv
TQc:_dummy
I5b:__ZL8math_powP9lua_State
cbd:__ZNSt3__215basic_streambufIcNS_11char_traitsIcEEE6xsgetnEPci
Tzb:_png_push_fill_buffer
QBd:__ZdaPvSt11align_val_t
Ksd:__ZNSt3__2L22utf16be_to_ucs2_lengthEPKhS1_jmNS_12codecvt_modeE
G4c:_wcstoimax
mVd:mftCall_vidddd
Gda:__ZNK7Matrix2mlERKS_
KVc:_sincosf
zEd:__ZNSt3__212basic_stringIcNS_11char_traitsIcEENS_9allocatorIcEEE9push_backEc
I6b:__ZL7os_exitP9lua_State
uY:___cxx_global_var_init_151
LCc:_FT_Outline_Reverse
vda:__ZN7Matrix412invertAffineEv
MVc:_sincosl
xxd:__ZNSt3__215messages_bynameIcEC2EPKcj
sja:__ZN6Path2D7setPathEiPKhiPKf
GSa:__ZNSt3__214__split_bufferIPN14LuaApplication12AsyncLuaTaskERNS_9allocatorIS3_EEE9push_backEOS3_
OY:__ZN6Screen11setPositionEii
qeb:_adjust_request_size
URb:_internal_gluGetTessProperty
eJ:__ZN12VertexBufferIhEC2Ev
IKd:__ZNSt3__25stoldERKNS_12basic_stringIwNS_11char_traitsIwEENS_9allocatorIwEEEEPj
yGa:__ZNK6b2Body8IsBulletEv
Njc:_sfnt_get_charset_id
wxc:_cff_get_var_design
RQc:_skipspace
BKa:__ZNSt3__227__insertion_sort_incompleteIRPFbRK21b2ParticleBodyContactS3_EPS1_EEbT0_S8_T_
Igb:_gtimer_init
c7a:__ZN17TextureBaseBinderC2EP9lua_State
tRc:_isspace_l
_Ec:_mixer_setpan
uNa:__ZN15b2RevoluteJoint9SetLimitsEff
nFa:__ZN7b2World11CreateJointEPK10b2JointDef
Z9c:__ZNSt13exception_ptrD2Ev
ZQd:__ZN10__cxxabiv112_GLOBAL__N_121parse_unresolved_typeINS0_2DbEEEPKcS4_S4_RT_
JUb:_luaD_call
VVc:_tgammal
pA:_glfwExtensionSupported
XFc:_smix_mono_8bit_spline_filter
Hvd:__ZNSt3__210__time_putC2EPKc
hFa:__ZN7b2World11DestroyBodyEP6b2Body
KOd:__ZNSt8bad_castD2Ev
UVc:_tgammaf
L4b:__ZL14min_expandUTF8P14MatchStateUTF8PKcS2_S2_
UVa:__ZN10MeshBinder10setIndicesEP9lua_State
$rd:__ZNKSt3__214__codecvt_utf8IDiE6do_outER11__mbstate_tPKDiS5_RS5_PcS7_RS7_
EUb:_luaG_runerror
Iqb:__ZN8StringId2idEPKc
yFb:_start_input_pass_10
XG:unregisterInheritedInstance
yKc:___intscan
yL:__ZNSt3__26vectorIP6SpriteNS_9allocatorIS2_EEE18__construct_at_endEj
u2:__ZN6TTFont17checkLogicalScaleEv
$K:__ZNSt3__25dequeIP6SpriteNS_9allocatorIS2_EEE19__add_back_capacityEv
Vkd:__ZNKSt3__28time_getIcNS_19istreambuf_iteratorIcNS_11char_traitsIcEEEEE3getES4_S4_RNS_8ios_baseERjP2tmPKcSC_
pyc:_psh_dimension_quantize_len
UQc:_dcgettext
v4b:__ZL12lmemfindUTF8PKcjS0_j
s2:__ZN6TTFont13getLineHeightEv
Akd:__ZNSt3__28time_getIcNS_19istreambuf_iteratorIcNS_11char_traitsIcEEEEED2Ev
bGa:__ZN8b2Island3AddEP9b2Contact
$dd:__ZNSt3__215basic_streambufIwNS_11char_traitsIwEEE6sbumpcEv
lgb:__ZNSt3__214__split_bufferIPNS_12basic_stringIcNS_11char_traitsIcEENS_9allocatorIcEEEERNS4_IS7_EEE10push_frontERKS7_
ETb:_ftell64_file_func
W9:__ZNSt3__212__deque_baseINS_4pairIP6SpritebEENS_9allocatorIS4_EEE3endEv
U0a:__ZN12Box2DBinder227b2FrictionJoint_setMaxForceEP9lua_State
awb:_z_deflateSetDictionary
Jn:_asinf
YJd:__ZNSt3__212_GLOBAL__N_117as_integer_helperIlNS_12basic_stringIwNS_11char_traitsIwEENS_9allocatorIwEEEEPFlPKwPPwiEEET_RKNS2_IcNS3_IcEENS5_IcEEEERKT0_PjiT1_
Uu:_emscripten_set_socket_close_callback
aZa:__ZNSt3__214__split_bufferI9ParameterRNS_9allocatorIS1_EEEC2EjjS4_
Web:__ZNSt3__26__treeINS_12__value_typeINS_12basic_stringIcNS_11char_traitsIcEENS_9allocatorIcEEEE8FileInfoEENS_19__map_value_compareIS7_S9_NS_4lessIS7_EELb1EEENS5_IS9_EEE7destroyEPNS_11__tree_nodeIS9_PvEE
fIb:_jpeg_idct_7x7
npa:__ZNSt3__26__treeINS_12__value_typeImPN12_GLOBAL__N_121GGStreamOpenALManager5SoundEEENS_19__map_value_compareImS6_NS_4lessImEELb1EEENS_9allocatorIS6_EEE4findImEENS_15__tree_iteratorIS6_PNS_11__tree_nodeIS6_PvEEiEERKT_
Vb:invoke_viidi
Xnc:_af_cjk_metrics_init_blues
sI:FUNCTION_TABLE_viiiiiiiiiiiii
qGa:__ZN24b2PositionSolverManifoldC2Ev
rXa:__ZN11GGGyroscope15getRotationRateEPdS0_S0_
u$:__ZL13easeOutInBackdd
Xva:__ZNK14b2PolygonShape11ComputeAABBEP6b2AABBRK11b2Transformi
jId:__ZNSt3__212basic_stringIwNS_11char_traitsIwEENS_9allocatorIwEEE6assignEjw
T2c:_getwc
Nb:invoke_viidd
UEc:_virt_reset
Kza:__ZNK15b2DistanceJoint10GetAnchorBEv
jN:__ZL13alphaFunctionf
OZb:__ZL9getbinopri
NW:__ZNSt3__26vectorIP15EventDispatcherNS_9allocatorIS2_EEE18__construct_at_endINS_21__tree_const_iteratorIS2_PNS_11__tree_nodeIS2_PvEEiEEEENS_9enable_ifIXsr21__is_forward_iteratorIT_EE5valueEvE4typeESE_SE_j
r4a:__ZN22b2ParticleSystemSpriteC2EP14LuaApplicationP16b2ParticleSystemP9b2WorldED
tdd:__ZNSt3__215basic_streambufIcNS_11char_traitsIcEEE9pubsetbufEPci
Ai:___syscall153
zi:___syscall152
yi:___syscall151
xi:___syscall150
u6b:__ZL11match_classii
Eua:__ZN8JSNativeD0Ev
DVc:_scalblnf
sJa:__ZNSt3__26__sortIRNS_6__lessIN16b2ParticleSystem5ProxyES3_EEPS3_EEvT0_S7_T_
N4a:__ZN15MyQueryCallbackD0Ev
eo:_cos
OVb:_luaF_newLclosure
Y6:__ZNSt3__26__treeIP5TimerNS_4lessIS2_EENS_9allocatorIS2_EEE25__emplace_unique_key_argsIS2_JRKS2_EEENS_4pairINS_15__tree_iteratorIS2_PNS_11__tree_nodeIS2_PvEEiEEbEERKT_DpOT0_
JU:__ZNSt3__215basic_stringbufIcNS_11char_traitsIcEENS_9allocatorIcEEE8overflowEi
oG:flushPendingDeletes
Dqc:_Ins_DEPTH
VJc:_valloc
etb:__ZN5DriveC2Ev
hic:_Conic_To
P_:__ZL11easeOutSined
Cyc:_ps_mask_table_set_bits
f0:__ZN9MovieClip9gotoFrameEi
$yb:_png_get_gAMA_fixed
oB:_gluPerspective
tHb:_decode_mcu_6
tq:_emscripten_glBlendEquationSeparate
mPb:__Z17PVRTDecompressETCPKvRKjS2_PvRKi
D9b:__ZN6snappy15ByteArraySourceC2EPKcj
oac:_snappy_validate_compressed_buffer
zCa:__ZN12b2ChainShape10CreateLoopEPK6b2Vec2i
PNc:_BF_decode
XNc:_to64
Q5:__Z14glPopBlendFuncv
DW:__ZNK11Application19hardwareOrientationEv
qXd:b34
JB:_glutPostRedisplay
wid:__ZNSt3__27collateIwED0Ev
rSd:___cxa_get_globals
Zcc:_INT123_fi_set
Tna:__ZNSt3__26__treeINS_12__value_typeINS_12basic_stringIcNS_11char_traitsIcEENS_9allocatorIcEEEE13GGAudioLoaderEENS_19__map_value_compareIS7_S9_NS_4lessIS7_EELb1EEENS5_IS9_EEE12__find_equalIS7_EERPNS_16__tree_node_baseIPvEERPNS_15__tree_end_nodeISK_EERKT_
h_:__ZNSt3__24pairIKiNS_6vectorIPN9MovieClip5FrameENS_9allocatorIS5_EEEEED2Ev
Dea:__ZNSt3__212__deque_baseIN12ShaderEngine7ScissorENS_9allocatorIS2_EEE3endEv
$Dd:__ZNKSt3__212basic_stringIcNS_11char_traitsIcEENS_9allocatorIcEEE8max_sizeEv
Woc:_tt_face_get_device_metrics
SKb:_jpeg_write_tables
AJb:_jpeg_finish_output
_ga:__ZN16ogl2ShaderEngineD0Ev
Hwd:__ZNSt3__2L30checked_string_to_char_convertERcPKcP15__locale_struct
jzc:_BBox_Conic_To
CDd:__ZNSt3__212basic_stringIcNS_11char_traitsIcEENS_9allocatorIcEEE13__move_assignERS5_NS_17integral_constantIbLb1EEE
Kca:__ZNK6Sprite6scaleXEv
D8a:__ZN6Sprite11ShaderParamC2Ev
wJc:__ZN10emscripten8internal11LightTypeIDIjE3getEv
iEd:__ZNSt3__212basic_stringIcNS_11char_traitsIcEENS_9allocatorIcEEE18__set_long_pointerEPc
Eic:_tt_cmap0_get_info
vBc:_raccess_guess_apple_double
MYc:_mlockall
dAb:_png_do_rgb_to_gray
l9:__ZN18SpriteProxyFactory11createProxyEP11ApplicationPvPFvS2_RK7Matrix4ffffEPFvS2_E
b3b:__ZL6tofileP9lua_State
MQb:__ZplRK11CPVRTStringS1_
IHb:_jpeg_idct_ifast
X$c:_rand_r
Oja:__ZL7printJSPKciPv
Gmd:__ZNSt3__212_GLOBAL__N_17countofIcEEjPKT_S4_
rod:__ZNKSt3__217moneypunct_bynameIwLb1EE11do_groupingEv
uL:__ZNSt3__26vectorIP6SpriteNS_9allocatorIS2_EEE6resizeEj
cv:_emscripten_set_visibilitychange_callback
Do:_eglGetProcAddress
O1:__ZN13GRenderTarget9getPixelsEiiiiPv
zUd:_llvm_ctpop_i64
aZc:_mblen
sdd:__ZNKSt3__215basic_streambufIcNS_11char_traitsIcEEE6getlocEv
$W:__ZNSt3__27__sort3IRNS_6__lessIN11Application10ImageScaleES3_EEPS3_EEjT0_S7_S7_T_
Cq:_emscripten_glClearDepthf
xia:__ZL19kh_destroy_vector4fP13kh_vector4f_t
Ak:__embind_register_emval
sca:__ZN9Transform9setScaleZEf
Hsc:_Direct_Move_X
Ynb:__ZN14GGAudioManager15ChannelSetPitchEmf
Bqb:__ZNSt3__26__treeINS_12__value_typeIPKciEENS_19__map_value_compareIS3_S4_N8StringId5ltstrELb1EEENS_9allocatorIS4_EEE12__find_equalIS3_EERPNS_16__tree_node_baseIPvEERPNS_15__tree_end_nodeISG_EERKT_
EPb:__ZNK17CPVRTResourceFile7DataPtrEv
bod:__ZNKSt3__217moneypunct_bynameIcLb1EE13do_neg_formatEv
XCd:__ZNSt3__212basic_stringIcNS_11char_traitsIcEENS_9allocatorIcEEE6__initEPKcj
Vma:__ZN6ginput12InputManager18setMouseTouchOrderEi
nId:__ZNSt3__212basic_stringIwNS_11char_traitsIwEENS_9allocatorIwEEE6insertEjNS_17basic_string_viewIwS2_EE
QKd:__ZNSt3__212_GLOBAL__N_19as_stringINS_12basic_stringIcNS_11char_traitsIcEENS_9allocatorIcEEEEPFiPcjPKczEjEET_T0_SD_PKNSD_10value_typeET1_
nAa:__ZN7b2TimerC2Ev
JJb:_jpeg_stdio_src
ISa:__ZN12ScreenBinderC2EP9lua_State
lvd:__ZNSt3__218__time_get_storageIcEC2ERKNS_12basic_stringIcNS_11char_traitsIcEENS_9allocatorIcEEEE
BWc:_read
nq:_emscripten_glBindRenderbuffer
Zwd:__ZNSt3__217moneypunct_bynameIwLb1EE4initEPKc
ewd:__ZNKSt3__210moneypunctIcLb1EE8groupingEv
Wdc:_INT123_synth_ntom_8bit
YIc:__ZN10emscripten8internal11LightTypeIDINS_11memory_viewIjEEE3getEv
blb:__ZNSt3__214__split_bufferIPN6gevent12EventManager17EventQueueElementERNS_9allocatorIS4_EEE9push_backEOS4_
Uxd:__ZNSt3__26locale5__imp7installINS_5ctypeIcEEEEvPT_
hHa:__ZN16b2ParticleSystem10SolveRigidERK10b2TimeStep
Hub:_z_inflateEnd
ru:_emscripten_set_dblclick_callback
XMd:__ZNSt3__26threadD2Ev
GYc:_reap
pfa:__ZN16ogl2ShaderBuffer7unboundEv
atb:__ZNSt3__26__treeINS_12__value_typeIi5DriveEENS_19__map_value_compareIiS3_NS_4lessIiEELb1EEENS_9allocatorIS3_EEE25__emplace_unique_key_argsIiJRKNS_21piecewise_construct_tENS_5tupleIJRKiEEENSF_IJEEEEEENS_4pairINS_15__tree_iteratorIS3_PNS_11__tree_nodeIS3_PvEEiEEbEERKT_DpOT0_
vD:_powl
KOb:__ZNSt3__26vectorIcNS_9allocatorIcEEE21__push_back_slow_pathIcEEvOT_
FFd:__ZNKSt3__212basic_stringIcNS_11char_traitsIcEENS_9allocatorIcEEE13find_first_ofEPKcjj
a$c:_ns_put32
uD:_powf
_Ea:__ZN15b2SlabAllocatorI16b2ParticleHandleE15SetItemsPerSlabEj
jUc:_jnf
uYc:___openlog
epb:_gaudio_BackgroundChannelIsPlaying
nmc:_gray_split_conic
mL:__ZNK9EventTypeI10MouseEventE4typeEv
Zed:__ZNKSt3__213basic_istreamIcNS_11char_traitsIcEEE6gcountEv
pua:__Z14mouse_callbackiPK20EmscriptenMouseEventPv
TPc:_versionsort
QCd:__ZNKSt3__221__basic_string_commonILb1EE20__throw_out_of_rangeEv
HO:__ZNSt3__26__treeINS_12__value_typeINS_12basic_stringIcNS_11char_traitsIcEENS_9allocatorIcEEEEiEENS_19__map_value_compareIS7_S8_NS_4lessIS7_EELb1EEENS5_IS8_EEED2Ev
mJa:__ZZN16b2ParticleSystem41UpdatePairsAndTriadsWithReactiveParticlesEvEN14ReactiveFilterD0Ev
xyc:_psh_hint_table_record
Y5c:_dup
S8a:__ZN9Transform9setSkewXYEff
p6:__GLOBAL__sub_I_timer_cpp
G4b:__ZL9utf8_prevPKcS0_
PKd:__ZNKSt3__212_GLOBAL__N_114initial_stringINS_12basic_stringIcNS_11char_traitsIcEENS_9allocatorIcEEEEjLb0EEclEv
KYc:_mincore
_Ya:__ZN12MovieClipLua8addFrameEiiP6SpriteiRKNSt3__26vectorI9ParameterNS2_9allocatorIS4_EEEEP7GStatus
Prc:_Ins_ROFF
fVb:_luaC_barrierf
nGd:__ZNSt3__212basic_stringIwNS_11char_traitsIwEENS_9allocatorIwEEEC2Ev
JBd:__ZnwjSt11align_val_t
jja:__ZL19init_path_renderingv
zVd:mftCall_viidd
_Wc:_getopt_long
oFd:__ZNKSt3__212basic_stringIcNS_11char_traitsIcEENS_9allocatorIcEEE6substrEjj
Iuc:_cf2_doFlex
XFb:_jpeg_mem_init
Vgd:__ZNSt3__213basic_ostreamIwNS_11char_traitsIwEEElsEPFRS3_S4_E
r0b:__ZL9f_luaopenP9lua_StatePv
$Aa:__Z23b2SetAllocFreeCallbacksPFPviS_EPFvS_S_ES_
Y8:__ZNKSt3__26__treeIP6SpriteNS_4lessIS2_EENS_9allocatorIS2_EEE10__root_ptrEv
BSb:_ConnectRightVertex
qNb:__ZN17CPVRTResourceFileD2Ev
eva:__ZplRK6b2Vec2S1_
LGd:__ZNSt3__212basic_stringIwNS_11char_traitsIwEENS_9allocatorIwEEEC2ERKS5_jRKS4_
EHc:_adjust_string
o_a:__ZNK14LuaApplication15getLogicalWidthEv
Oib:__ZNSt3__26__treeINS_12__value_typeImPN9g_private19RenderTargetElementEEENS_19__map_value_compareImS5_NS_4lessImEELb1EEENS_9allocatorIS5_EEE5eraseENS_21__tree_const_iteratorIS5_PNS_11__tree_nodeIS5_PvEEiEE
nkb:__ZNSt3__26__treeINS_12__value_typeImPN9g_private14TextureManager18TempTextureElementEEENS_19__map_value_compareImS6_NS_4lessImEELb1EEENS_9allocatorIS6_EEE5eraseENS_21__tree_const_iteratorIS6_PNS_11__tree_nodeIS6_PvEEiEE
T8a:__ZN6Sprite11setScaleXYZEfff
bnb:__ZNSt3__26__treeIPN14GGSoundManager7ChannelENS_4lessIS3_EENS_9allocatorIS3_EEE16__insert_node_atEPNS_15__tree_end_nodeIPNS_16__tree_node_baseIPvEEEERSD_SD_
Zib:__ZN9g_private14TextureManager19genAndUploadTextureEPNS_13CommonElementEPKv
zL:__ZNSt3__214__split_bufferIP6SpriteRNS_9allocatorIS2_EEE18__construct_at_endEj
bMc:___DOUBLE_BITS
Pgb:__ZNSt3__26__treeINS_12__value_typeIdNS_6vectorIiNS_9allocatorIiEEEEEENS_19__map_value_compareIdS6_NS_4lessIdEELb1EEENS3_IS6_EEE7destroyEPNS_11__tree_nodeIS6_PvEE
oLd:__ZNKSt3__212_GLOBAL__N_114initial_stringINS_12basic_stringIwNS_11char_traitsIwEENS_9allocatorIwEEEEjLb0EEclEv
tva:__ZN6b2Vec23SetEff
OVd:mftCall_viiiiddi
P9a:__ZN12MatrixBinder12getRotationYEP9lua_State
dIc:_xmp_smix_play_sample
Rja:__ZNSt3__26__treeINS_12__value_typeINS_12basic_stringIcNS_11char_traitsIcEENS_9allocatorIcEEEENS_6vectorIhNS5_IhEEEEEENS_19__map_value_compareIS7_SB_NS_4lessIS7_EELb1EEENS5_ISB_EEEC2ERKSF_
h5b:__ZL10utf8_widthji
T6c:_symlink
dUc:_common_303
_Tc:_common_302
Y3:__ZNSt3__26__treeINS_12__value_typeIiN8TTBMFont12TextureGlyphEEENS_19__map_value_compareIiS4_NS_4lessIiEELb1EEENS_9allocatorIS4_EEED2Ev
lcd:__ZNSt3__28ios_base7failureC2EPKcRKNS_10error_codeE
HZb:_luaK_nil
yhc:_FT_Outline_Transform
Rza:__ZN15b2DistanceJoint24SolvePositionConstraintsERK12b2SolverData
kEd:__ZNSt3__212basic_stringIcNS_11char_traitsIcEENS_9allocatorIcEEE13shrink_to_fitEv
mCb:_png_rtran_ok
Wpd:__ZNSt3__214codecvt_bynameIDsc11__mbstate_tED2Ev
Nbd:__ZTv0_n12_NSt3__213basic_ostreamIcNS_11char_traitsIcEEED0Ev
Eca:__ZNK6Sprite1xEv
mI:FUNCTION_TABLE_viiiiiii
yxc:_ps_unicode_value
Cta:__ZNSt3__26__treeINS_12__value_typeIm8UiDialogEENS_19__map_value_compareImS3_NS_4lessImEELb1EEENS_9allocatorIS3_EEE16__insert_node_atEPNS_15__tree_end_nodeIPNS_16__tree_node_baseIPvEEEERSF_SF_
H2c:___do_orphaned_stdio_locks
RId:__ZNSt3__218__search_substringIwNS_11char_traitsIwEEEEPKT_S5_S5_S5_S5_
Jzc:_ft_stroke_border_done
jP:__ZN11TexturePack4RectC2Eiiiiiiii
qna:__ZN6ginput12InputManager10touchBeginEiiii
XA:_glfwSetMouseWheelCallback
rvd:__ZNSt3__215__time_get_tempIwEC2EPKc
S1a:__ZNK15b2DistanceJoint15GetDampingRatioEv
u:nan
ol:__emval_register
xbc:_mpg123_init_string
dyc:_psh_glyph_find_blue_points
wbc:_mpg123_free_string
lyd:__ZNSt3__212_GLOBAL__N_14makeINS_7num_putIcNS_19ostreambuf_iteratorIcNS_11char_traitsIcEEEEEEjEERT_T0_
kAa:__ZN24b2TypedIntrusiveListNodeI14b2TrackedBlockE23GetInstanceFromListNodeEP19b2IntrusiveListNode
bUb:_unzLocateFile
vvc:_cf2_glyphpath_computeOffset
umb:__ZN14GGSoundManager11SoundDeleteEm
eR:__ZNSt3__26vectorIfNS_9allocatorIfEEE10deallocateEv
p9a:__ZN12MatrixBinder5getTyEP9lua_State
oId:__ZNSt3__212basic_stringIwNS_11char_traitsIwEENS_9allocatorIwEEE6insertEjRKS5_jj
k3b:__ZL7f_writeP9lua_State
xZc:_sethostent
qCa:__Z5b2AbsIiET_S0_
_td:__ZNKSt3__27num_getIcNS_19istreambuf_iteratorIcNS_11char_traitsIcEEEEE3getES4_S4_RNS_8ios_baseERjRm
wCc:_ft_set_current_renderer
Dk:__embind_register_float
bya:__ZN6b2Vec3C2Ev
bed:__ZNSt3__215basic_streambufIwNS_11char_traitsIwEEE5sgetnEPwi
Cfd:__ZNSt3__213basic_istreamIwNS_11char_traitsIwEEErsEPFRNS_9basic_iosIwS2_EES6_E
G1:__ZNSt3__26__treeINS_12__value_typeIiiEENS_19__map_value_compareIiS2_NS_4lessIiEELb1EEENS_9allocatorIS2_EEE5eraseENS_21__tree_const_iteratorIS2_PNS_11__tree_nodeIS2_PvEEiEE
ima:__ZNSt3__26__treeINS_12__value_typeIjNS_6vectorIP17ginput_TouchEventNS_9allocatorIS4_EEEEEENS_19__map_value_compareIjS8_NS_4lessIjEELb1EEENS5_IS8_EEE12__find_equalIjEERPNS_16__tree_node_baseIPvEERPNS_15__tree_end_nodeISJ_EERKT_
AFa:__ZN7b2Joint8GetBodyBEv
tfc:_stream_lseek
$Za:__ZN17ApplicationBinder16getScreenDensityEP9lua_State
TPd:__ZNSt3__26vectorINS0_IN10__cxxabiv112_GLOBAL__N_111string_pairENS2_11short_allocIS3_Lj4096EEEEENS4_IS6_Lj4096EEEE24__emplace_back_slow_pathIJS5_EEEvDpOT_
Lpc:_tt_size_init_bytecode
m6a:__ZN14FontBaseBinder9getBoundsEP9lua_State
Sdc:_INT123_synth_4to1_8bit
Rmc:_af_iup_interp
wQc:_bind_textdomain_codeset
SUa:__ZN11AudioBinder21SoundChannel_destructEP9lua_State
yxb:_png_icc_check_header
Npd:__ZNKSt3__27codecvtIwc11__mbstate_tE6do_outERS1_PKwS5_RS5_PcS7_RS7_
Ubd:__ZNSt3__214basic_iostreamIcNS_11char_traitsIcEEED1Ev
l7c:__ZNSt3__27__sort5IRNS_6__lessIwwEEPwEEjT0_S5_S5_S5_S5_T_
iF:_sqrt
Jqd:__ZNKSt3__212ctype_bynameIcE10do_tolowerEc
aLa:__ZN16b2ParticleHandle8SetIndexEi
Hxa:__ZN12b2MouseJointD0Ev
qoa:__ZN12_GLOBAL__N_121GGStreamOpenALManager16ChannelSetVolumeEmf
Hyd:__ZNSt3__212_GLOBAL__N_14makeINS_8time_getIwNS_19istreambuf_iteratorIwNS_11char_traitsIwEEEEEEjEERT_T0_
H4b:__ZL21matchbracketclassUTF8jPKcS0_
vq:_emscripten_glBlendFuncSeparate
kod:__ZNKSt3__217moneypunct_bynameIwLb0EE14do_frac_digitsEv
DDa:__ZN22b2EdgeAndCircleContactC2EP9b2FixtureS1_
lP:__ZN3Dib8getPixelEiiPh
JFc:_inject_event
DQa:__ZN8MemCache7CleanupEv
Mfa:__Z16ogl2BuildProgramjjNSt3__212basic_stringIcNS_11char_traitsIcEENS_9allocatorIcEEEE
ty:_glGetQueryObjectuivEXT
Aaa:__ZN6Sprite8addChildEPS_P7GStatus
o:gb
HUa:__ZN18RenderTargetBinderC2EP9lua_State
fh:___assert_fail
pcb:__ZL20eventClosureWithDataP9lua_State
Wkc:_tt_face_load_sbix_image
Nu:_emscripten_set_mouseover_callback
DOb:__ZN10ByteBufferC2Ev
mBa:__ZNK15b2DistanceProxy9GetVertexEi
fdb:__ZN14LuaApplication4tickEP7GStatus
Kja:_close_807
gGa:__ZN9b2Fixture11SynchronizeEP12b2BroadPhaseRK11b2TransformS4_
CI:__ZN9ParticlesD2Ev
Cfa:__ZN17ogl2ShaderProgram11setConstantEiN13ShaderProgram12ConstantTypeEiPKv
aGa:__ZNK9b2Contact9IsEnabledEv
Dwd:__ZNKSt3__210moneypunctIwLb1EE10pos_formatEv
zId:__ZNSt3__212basic_stringIwNS_11char_traitsIwEENS_9allocatorIwEEE7replaceEjjPKwj
GJb:_init_mem_destination
pAa:__ZNK7b2Timer15GetMillisecondsEv
QWc:_putc
mVb:__ZL10cleartableP8GCObject
oec:_INT123_synth_1to1_mono
Lrc:_Ins_SROUND
GVd:mftCall_viidiiii
kSd:__ZN10__cxxabiv112_GLOBAL__N_110save_valueIbED2Ev
Xlc:_gray_raster_render
lIb:_jpeg_idct_1x1
s3c:_puts
t3c:_putw
VBa:__ZN13b2DynamicTree8FreeNodeEi
Yua:__ZN11b2EdgeShapeD0Ev
EAd:__ZNSt3__214collate_bynameIcEC2EPKcj
VMb:_jpeg_write_scanlines
$pa:__ZN21GGSampleOpenALManager11SoundDeleteEm
Bka:__ZNSt3__26__treeINS_12__value_typeINS_12basic_stringIcNS_11char_traitsIcEENS_9allocatorIcEEEENS_6vectorIhNS5_IhEEEEEENS_19__map_value_compareIS7_SB_NS_4lessIS7_EELb1EEENS5_ISB_EEE13__lower_boundIS7_EENS_15__tree_iteratorISB_PNS_11__tree_nodeISB_PvEEiEERKT_SN_PNS_15__tree_end_nodeIPNS_16__tree_node_baseISL_EEEE
Ura:__ZNSt3__26__treeINS_12__value_typeINS_12basic_stringIcNS_11char_traitsIcEENS_9allocatorIcEEEES7_EENS_19__map_value_compareIS7_S8_NS_4lessIS7_EELb1EEENS5_IS8_EEE7destroyEPNS_11__tree_nodeIS8_PvEE
w4a:__ZN9b2WorldED12SetDebugDrawEP11b2DebugDraw
r3a:__ZN12Box2DBinder224b2Body_getAngularDampingEP9lua_State
ELa:__ZNK7b2World7RayCastEP17b2RayCastCallbackRK6b2Vec2S4_
ked:__ZNSt3__215basic_streambufIwNS_11char_traitsIwEEE4swapERS3_
lKb:_jpeg_fdct_1x1
bi:___set_network_callback
oEc:_hio_read32b
JKb:_jpeg_fdct_1x2
hid:__ZNSt3__210__stdinbufIcED2Ev
kM:__ZN7GStatusC2ERKS_
z3a:__ZN12Box2DBinder220b2Body_getWorldPointEP9lua_State
T2b:__ZL8io_writeP9lua_State
b2:__ZNK11TTTextField9textColorEv
NCb:_png_set_packing
cd:_Mix_FadeInChannelTimed
Mja:___cxx_global_var_init_456
WKb:_write_scan_header
vk:__embind_register_class_class_property
OKc:_hypot
hW:__ZNK11Application16getLogicalScaleYEv
I3:__ZNKSt3__26vectorIP11TextureDataNS_9allocatorIS2_EEE8max_sizeEv
mqd:__ZNSt3__214collate_bynameIcED0Ev
w7a:__ZN12SpriteBinder7getClipEP9lua_State
yI:setThrew
B4c:_wcstox_776
EGd:__ZNSt3__212basic_stringIwNS_11char_traitsIwEENS_9allocatorIwEEEC2EPKwjRKS4_
c8:__ZN14TextureManagerD2Ev
C2b:__ZL9io_fcloseP9lua_State
UMa:__ZNK16b2PrismaticJoint14IsLimitEnabledEv
P_b:_luaK_self
FGa:__ZN7b2World4StepEfiii
Aua:_g_pluginMain_JSNative
El:__pthread_cleanup_pop
YFa:__ZNK6b2Body8IsActiveEv
xwb:_png_safecat
okc:_sfnt_load_face
MAb:_png_handle_sRGB
Awc:_cff_subfont_done
q3:__ZN8TTBMFont20getCharIndexAtOffsetEPKcffi
Boc:_tt_face_done
Edc:_INT123_frame_cpu_opt
lE:_pthread_rwlock_rdlock
M7c:__ZNSt3__26__sortIRNS_6__lessIiiEEPiEEvT0_S5_T_
UCa:__ZNK6b2Body12GetTransformEv
i6b:__ZL5matchP10MatchStatePKcS2_
SQc:___strchrnul
Uv:_execle
q8:__ZNSt3__26vectorIcNS_9allocatorIcEEE18__construct_at_endEj
L6c:_setpgid
MRc:_localeconv
QMc:_sprintf
PRc:_setlocale
Tfa:__ZN20gl2ShaderBufferCacheC2Ev
Esb:_g_getc
NRd:__ZNSt3__26vectorINS0_INS0_IN10__cxxabiv112_GLOBAL__N_111string_pairENS2_11short_allocIS3_Lj4096EEEEENS4_IS6_Lj4096EEEEENS4_IS8_Lj4096EEEE24__emplace_back_slow_pathIJS5_EEEvDpOT_
u4:__ZN7Matrix43setEv
Vv:_execlp
wSd:__ZNSt20bad_array_new_lengthC2Ev
Iw:_glAttachShader
Rsd:__ZNKSt3__215__codecvt_utf16IDsLb1EE11do_encodingEv
pHb:_decode_mcu_DC_first_4
i1:__ZNSt3__26__treeIP15EventDispatcherNS_4lessIS2_EENS_9allocatorIS2_EEE16__construct_nodeIJRKS2_EEENS_10unique_ptrINS_11__tree_nodeIS2_PvEENS_22__tree_node_destructorINS5_ISE_EEEEEEDpOT_
Gn:_asctime
Akc:_tt_face_load_pclt
qta:__ZNSt3__24pairIKm8UiDialogED2Ev
Fcb:__ZNK9EventTypeI10ErrorEventE4typeEv
igb:__ZNSt3__214__split_bufferIPNS_12basic_stringIcNS_11char_traitsIcEENS_9allocatorIcEEEENS4_IS7_EEE9push_backEOS7_
kBc:_FT_Done_Face
kAb:_png_do_quantize
WPb:__ZNK11CPVRTString7compareEjjRKS_
xz:_glUniform2i
vz:_glUniform2f
qwa:__ZN13b2CircleShapeD0Ev
pha:__ZN16ogl2ShaderEngine7setClipEiiii
ndc:_INT123_dct36
uib:__ZNSt3__23mapINS_6vectorIcNS_9allocatorIcEEEEPN9g_private14TextureElementENS_4lessIS4_EENS2_INS_4pairIKS4_S7_EEEEED2Ev
Mgc:_mpg123_enc_from_id3
nSc:___wcscoll_l
Iwd:__ZNSt3__2L10__init_patIcEEvRNS_10money_base7patternERNS_12basic_stringIT_NS_11char_traitsIS5_EENS_9allocatorIS5_EEEEbcccS5_
dKc:_malloc_set_footprint_limit
Vpa:__ZN21GGSampleOpenALManagerC2Ev
NUd:mftCall_diidi
Qod:__ZNSt3__211__money_getIwE13__gather_infoEbRKNS_6localeERNS_10money_base7patternERwS8_RNS_12basic_stringIcNS_11char_traitsIcEENS_9allocatorIcEEEERNS9_IwNSA_IwEENSC_IwEEEESJ_SJ_Ri
cIc:_xmp_smix_play_instrument
oDb:_png_set_gAMA
LHb:_jpeg_idct_3x6
gya:__ZNK6b2Vec3ngEv
So:_ellipseRGBA
yW:__ZN11Application11touchesMoveEP17ginput_TouchEvent
P_a:__ZN12Box2DBinder215b2Body_destructEP9lua_State
Qhd:__ZNSt3__211__stdoutbufIwED0Ev
NVb:_luaC_barrierback
Tnb:__ZN14GGAudioManager15ChannelIsPausedEm
aYa:__ZN15UrlLoaderBinder15ignoreSslErrorsEP9lua_State
GO:__ZNSt3__213__vector_baseIN11TexturePack4RectENS_9allocatorIS2_EEED2Ev
zEa:__ZN16b2ParticleSystem10FreeBufferIP16b2ParticleHandleEEvPPT_i
aAa:__ZN14b2TrackedBlock4FreeEPS_
WU:__ZN8FontBaseC2EP11Application
vTb:_fopen_file_func
uqa:__ZN21GGSampleOpenALManager7preTickEv
LSd:runPostSets6
yg:_SDL_malloc
Dld:__ZNKSt3__28time_getIwNS_19istreambuf_iteratorIwNS_11char_traitsIwEEEEE15__get_monthnameERiRS4_S4_RjRKNS_5ctypeIwEE
PQa:__ZL7l_allocPvS_jj
mWc:_ffsl
MBb:_png_gamma_threshold
F1b:__ZL11luaB_dofileP9lua_State
t4b:__ZL10utf8_indexPKcS0_i
rcd:__ZNSt3__29basic_iosIcNS_11char_traitsIcEEE10exceptionsEj
t0c:_tre_parse
rCc:_FT_Set_Renderer
Tcd:__ZNKSt3__29basic_iosIwNS_11char_traitsIwEEE7rdstateEv
Eeb:_tlsf_free
tL:__ZN5Stage10enterFrameEid
tZ:__ZNSt3__26vectorIdNS_9allocatorIdEEE18__construct_at_endEj
UCc:_FT_Stream_GetULongLE
iR:__ZNSt3__26vectorItNS_9allocatorItEEE18__construct_at_endIPKtEENS_9enable_ifIXsr21__is_forward_iteratorIT_EE5valueEvE4typeES8_S8_j
WNd:__ZNK10__cxxabiv117__class_type_info29process_static_type_below_dstEPNS_19__dynamic_cast_infoEPKvi
QXc:_addmntent
ERb:___gl_memInit
LN:__ZNSt3__26vectorI6Point2IfENS_9allocatorIS2_EEE18__construct_at_endIPS2_EENS_9enable_ifIXsr21__is_forward_iteratorIT_EE5valueEvE4typeES9_S9_j
V$b:_lua_sethook
IR:__GLOBAL__sub_I_bitmap_cpp
Utb:_z__tr_stored_block
Zbc:_frame_free_buffers
taa:__ZNSt3__214__split_bufferIPPK6SpriteRNS_9allocatorIS4_EEE18__construct_at_endINS_13move_iteratorIPS4_EEEENS_9enable_ifIXsr21__is_forward_iteratorIT_EE5valueEvE4typeESE_SE_
jwc:_cff_get_var_blend
LD:_pthread_cond_timedwait
Lnc:_af_cjk_hint_edges
Qw:_glBindVertexArray
Ota:_gui_setText
oSd:__ZNSt3__26vectorINS0_IN10__cxxabiv112_GLOBAL__N_111string_pairENS2_11short_allocIS3_Lj4096EEEEENS4_IS6_Lj4096EEEEC2EjRKS6_RKS7_
nVb:__ZL9isclearedPK10lua_TValuei
ayc:_psh_glyph_compute_extrema
qja:__ZN6Path2D9setConvexEb
$ea:__ZNSt3__212__deque_baseIN12ShaderEngine7ScissorENS_9allocatorIS2_EEE5beginEv
lG:exposePublicSymbol
odc:_INT123_do_layer3
nQ:___cxx_global_var_init_51
JR:___cxx_global_var_init_56
jxc:_cff_get_ros
RFa:__ZN16b2ParticleSystem19SetDestructionByAgeEb
kac:_snappy_compress
Zbd:__ZTv0_n12_NSt3__214basic_iostreamIcNS_11char_traitsIcEEED0Ev
emd:__ZThn8_NKSt3__215time_get_bynameIcNS_19istreambuf_iteratorIcNS_11char_traitsIcEEEEE3__cEv
N5a:__ZN15TextFieldBinder7setFontEP9lua_State
RDd:__ZNSt3__212basic_stringIcNS_11char_traitsIcEENS_9allocatorIcEEE6rbeginEv
udd:__ZNSt3__215basic_streambufIcNS_11char_traitsIcEEE10pubseekoffExNS_8ios_base7seekdirEj
oxb:_png_colorspace_set_endpoints
q5b:__ZL9math_acosP9lua_State
ywb:_png_get_header_ver
d4b:__ZL10Lutf8_charP9lua_State
sXa:__ZN11GGGyroscope4stopEv
qB:_gluUnProject
Qwc:_cff_cmap_encoding_char_index
jJd:__ZNKSt3__212basic_stringIwNS_11char_traitsIwEENS_9allocatorIwEEE12find_last_ofENS_17basic_string_viewIwS2_EEj
q5a:__ZN20EventContactListener8PreSolveEP9b2ContactPK10b2Manifold
Xxd:__ZNSt3__212_GLOBAL__N_14makeINS_7codecvtIcc11__mbstate_tEEjEERT_T0_
Hqd:__ZNKSt3__212ctype_bynameIcE10do_toupperEc
Hk:__embind_register_smart_ptr
AZa:__ZN17ApplicationBinder9getLocaleEP9lua_State
_1c:___freadahead
n6:__ZNSt3__26__treeIP15EventDispatcherNS_4lessIS2_EENS_9allocatorIS2_EEE5clearEv
yxa:__ZN23b2ChainAndCircleContact8EvaluateEP10b2ManifoldRK11b2TransformS4_
Hgb:__ZNK9g_private9StopWatch8isPausedEv
Zgb:__ZNSt3__26__treeINS_12__value_typeIdNS_6vectorIiNS_9allocatorIiEEEEEENS_19__map_value_compareIdS6_NS_4lessIdEELb1EEENS3_IS6_EEE25__emplace_unique_key_argsIdJRKNS_21piecewise_construct_tENS_5tupleIJOdEEENSH_IJEEEEEENS_4pairINS_15__tree_iteratorIS6_PNS_11__tree_nodeIS6_PvEEiEEbEERKT_DpOT0_
wfd:__ZNSt3__213basic_istreamIwNS_11char_traitsIwEEE6sentryC2ERS3_b
VNa:__ZNK12b2WheelJoint14IsMotorEnabledEv
l1b:__ZL5panicP9lua_State
mZ:__ZNSt3__26vectorIiNS_9allocatorIiEEEC2Ej
dTb:___gl_dictListNewDict
MSb:_GetIntersectData
sjb:_gtexture_getUserData
Sf:_SDL_SetClipRect
wma:_ginput_isAccelerometerAvailable
TSb:___gl_transSign
Vh:___libc_current_sigrtmin
MS:__Z13IsContainedInRK4RectS1_
da:invoke_di
q4:__ZNSt3__210__list_impI12GraphicsBaseNS_9allocatorIS1_EEED2Ev
NR:__ZN6Bitmap14setAnchorPointEff
x:tempBigInt
ksb:_lflush
Poa:__ZNSt3__214__split_bufferIPNS_4pairIjjEERNS_9allocatorIS3_EEE18__construct_at_endINS_13move_iteratorIPS3_EEEENS_9enable_ifIXsr21__is_forward_iteratorIT_EE5valueEvE4typeESD_SD_
mt:_emscripten_glVertexAttrib1fv
$rb:___srefill
KOa:__ZNSt3__214__rotate_rightIPP16b2ParticleHandleEET_S4_S4_
gia:__ZL17arc_length_helperdddd
rI:FUNCTION_TABLE_viiiiiiiiiii
GVc:_significandf
kKa:__ZNK16b2ParticleSystem16GetParticleCountEv
c5c:_strsignal
GZa:__ZN17ApplicationBinder20getLogicalTranslateXEP9lua_State
Olb:__ZNSt3__26vectorIN19gevent_CallbackList15CallbackCommandENS_9allocatorIS2_EEE26__swap_out_circular_bufferERNS_14__split_bufferIS2_RS4_EE
xX:__ZNSt3__26__treeIP6TickerNS_4lessIS2_EENS_9allocatorIS2_EEE14__erase_uniqueIS2_EEjRKT_
cPa:__ZZN16b2ParticleSystem23DestroyParticlesInShapeERK7b2ShapeRK11b2TransformbEN31DestroyParticlesInShapeCallback9DestroyedEv
_Jd:__ZNSt3__212_GLOBAL__N_110as_integerIlNS_12basic_stringIcNS_11char_traitsIcEENS_9allocatorIcEEEEEET_RKS7_RKT0_Pji
evd:__ZNSt3__214__scan_keywordIPcPNS_12basic_stringIcNS_11char_traitsIcEENS_9allocatorIcEEEENS_5ctypeIcEEEET0_RT_SC_SB_SB_RKT1_Rjb
_9b:__ZN6snappyL25InternalUncompressAllTagsINS_28SnappyDecompressionValidatorEEEbPNS_18SnappyDecompressorEPT_jj
ucb:__ZN4SlotI12CppLuaBridge8LuaEventEC2ERKS2_
te:_SDL_GL_GetProcAddress
ABd:__ZnwjRKSt9nothrow_t
eXd:_glfwCloseWindow__wrapper
uO:__ZN8FontBase20TextLayoutParametersC2ERKS0_
KQd:__ZN10__cxxabiv112_GLOBAL__N_125parse_noexcept_expressionINS0_2DbEEEPKcS4_S4_RT_
lPc:___towctrans_l
xgb:__Z15refreshLocalIPsv
H_b:__ZL11trydecpointP8LexStateP7SemInfo
Dpb:_gaudio_XmpSeek
Koc:_FT_Select_Metrics
JRb:_noError
Tjc:_FT_Stream_EnterFrame
c1b:__ZL11adjuststackP11luaL_Buffer
ona:_ginputp_touchBegin
jkb:__ZNKSt3__26__treeINS_12__value_typeImPN9g_private14TextureManager18TempTextureElementEEENS_19__map_value_compareImS6_NS_4lessImEELb1EEENS_9allocatorIS6_EEE10__root_ptrEv
pPb:__ZN11CPVRTString6assignEPKc
l_c:_if_nameindex
WBd:__ZNSt19bad_optional_accessD2Ev
o0a:__ZL5getb2P9lua_State
qYc:_do_setrlimit
kNb:_transencode_master_selection
c5b:__ZL11utf8_encodePcj
Ijc:_tt_cmap14_char_map_def_binary
I4:__ZNSt3__26vectorINS0_I6Point2IfENS_9allocatorIS2_EEEENS3_IS5_EEE21__push_back_slow_pathIS5_EEvOT_
iXc:_getsubopt
lod:__ZNKSt3__217moneypunct_bynameIwLb0EE13do_pos_formatEv
Mpc:_TT_Done_Context
Fkc:_tt_face_load_font_dir
Yzd:__ZNSt3__26locale5__imp12install_fromINS_10moneypunctIwLb1EEEEEvRKS1_
t0:__ZNSt3__26__treeINS_12__value_typeIiNS_6vectorIP8SlotBaseNS_9allocatorIS4_EEEEEENS_19__map_value_compareIiS8_NS_4lessIiEELb1EEENS5_IS8_EEE16__insert_node_atEPNS_15__tree_end_nodeIPNS_16__tree_node_baseIPvEEEERSJ_SJ_
s9:___cxx_global_var_init_1_318
WHd:__ZNSt3__212basic_stringIwNS_11char_traitsIwEENS_9allocatorIwEEEpLEw
T0a:__ZN11b2RopeJoint12SetMaxLengthEf
wEb:_png_write_end
yga:__ZN13ShaderProgram12ConstantDescC2Ev
MSc:_cbrtl
lVd:mftCall_viddd
n8:__ZNSt3__213__vector_baseIcNS_9allocatorIcEEED2Ev
Dvc:_cf2_getNormalizedVector
tZc:_match
nD:_pixelRGBA
Ubb:__ZN16EventTypeVisitor5visitEP10MouseEvent
rbd:__ZNSt3__215basic_streambufIwNS_11char_traitsIwEEE9underflowEv
hoc:_af_face_globals_get_metrics
vQc:___libc_get_version
mhc:_ft_mem_qalloc
YEd:__ZNSt3__212basic_stringIcNS_11char_traitsIcEENS_9allocatorIcEEE6insertIPKcEENS_9enable_ifIXaasr21__is_forward_iteratorIT_EE5valuesr38__libcpp_string_gets_noexcept_iteratorISA_EE5valueENS_11__wrap_iterIPcEEE4typeENSB_IS8_EESA_SA_
DX:__ZN11Application18setBackgroundColorEfff
n5c:_wcsncasecmp
Iwc:_FT_Vector_Transform_Scaled
X7:__ZN14TimerContainer7suspendEv
RU:__ZThn8_NSt3__218basic_stringstreamIcNS_11char_traitsIcEENS_9allocatorIcEEED0Ev
v8c:__ZNSt3__27__sort3IRNS_6__lessIffEEPfEEjT0_S5_S5_T_
w2b:__ZL8settabssP9lua_StatePKcS2_
xJb:_jpeg_read_scanlines
zdc:_INT123_prepare_decode_tables
cFb:_png_set_text_compression_mem_level
xr:_emscripten_glGenBuffers
Sqa:__ZNSt3__23mapImPN21GGSampleOpenALManager7ChannelENS_4lessImEENS_9allocatorINS_4pairIKmS3_EEEEEixERS8_
OPb:__ZN11CPVRTString6appendERKS_
FUb:_luaO_pushvfstring
h1b:__ZL7errfileP9lua_StatePKci
c4:__ZL5closeP13FT_StreamRec__235
q4c:_strtof_l
xZ:__ZNSt3__26vectorIdNS_9allocatorIdEEE26__swap_out_circular_bufferERNS_14__split_bufferIdRS2_EE
I0:__ZNSt3__26vectorIPN9MovieClip5FrameENS_9allocatorIS3_EEE21__push_back_slow_pathIRKS3_EEvOT_
QPd:__ZN10__cxxabiv112_GLOBAL__N_118parse_block_invokeINS0_2DbEEEPKcS4_S4_RT_
OPa:__ZN16b2ParticleSystem14SetColorBufferEP15b2ParticleColori
OBc:_ft_raccess_sort_ref_by_id
p8:__ZNSt3__26vectorIcNS_9allocatorIcEEE8__appendEj
Dac:_mpg123_encodings
ata:__ZN10emscripten8internal12WireTypePackIJNS_3valES2_RS2_NS_11memory_viewIhEES2_S2_iiiEEC2EOS2_S7_S3_OS5_S7_S7_OiS9_S9_
JO:__ZNSt3__24pairIKNS_12basic_stringIcNS_11char_traitsIcEENS_9allocatorIcEEEEiED2Ev
_ud:__ZNSt3__215time_get_bynameIcNS_19istreambuf_iteratorIcNS_11char_traitsIcEEEEEC2EPKcj
jR:__ZN5GMesh13setColorArrayEPKjPKfj
XHc:_hio_read24l
oCa:__ZNK13b2DynamicTree8ValidateEv
Wyd:__ZNKSt3__26vectorIPNS_6locale5facetENS_15__sso_allocatorIS3_Lj28EEEE8max_sizeEv
iBc:_load_mac_face
Wa:ftCall_iiiiiiiiii
vYd:b71
_Ib:_find_nearby_colors
QYb:__ZL8testnextP8LexStatei
NV:__ZN11Application30calculateLogicalTransformationEv
z1:__ZNSt3__26__treeINS_12__value_typeIiiEENS_19__map_value_compareIiS2_NS_4lessIiEELb1EEENS_9allocatorIS2_EEE16__construct_nodeIJRKNS_21piecewise_construct_tENS_5tupleIJRKiEEENSE_IJEEEEEENS_10unique_ptrINS_11__tree_nodeIS2_PvEENS_22__tree_node_destructorINS7_ISM_EEEEEEDpOT_
btd:__ZNKSt3__215__codecvt_utf16IDiLb0EE16do_always_noconvEv
On:_atan2l
Me:_SDL_GetRGBA
n1c:_chmod
$ab:__ZNSt3__26__treeINS_12__value_typeIiNS_6vectorIP12CppLuaBridgeNS_9allocatorIS4_EEEEEENS_19__map_value_compareIiS8_NS_4lessIiEELb1EEENS5_IS8_EEE16__insert_node_atEPNS_15__tree_end_nodeIPNS_16__tree_node_baseIPvEEEERSJ_SJ_
jjd:__ZNSt3__29__num_getIcE17__stage2_int_prepERNS_8ios_baseEPcRc
Nn:_atan2f
HBc:_FT_Raccess_Get_HeaderInfo
OJb:_term_source
aTa:__ZN15ParticlesBinder12addParticlesEP9lua_State
vDd:__ZNSt3__212basic_stringIcNS_11char_traitsIcEENS_9allocatorIcEEEaSERKS5_
cSc:___pthread_self_217
XRc:___pthread_self_216
dec:_INT123_synth_2to1_8bit_m2s
Nab:__ZN4SlotI13TimerListener10TimerEventEeqERKS2_
tPc:___pthread_self_212
ai:___setErrNo
cVc:_nanf
dVd:mftCall_iiiiiiiiiii
_db:_align_down
nt:_emscripten_glVertexAttrib2f
O3b:__ZL4LshrP9lua_State
atc:_TT_Access_Glyph_Frame
R4b:__ZL12utf8_isgraphj
Q6:__ZNSt3__213__vector_baseIP5TimerNS_9allocatorIS2_EEED2Ev
Etb:__Z21setDocumentsDirectoryPKc
Bnd:__ZNKSt3__210moneypunctIwLb1EE11do_groupingEv
Gvd:__ZNSt3__28time_putIcNS_19ostreambuf_iteratorIcNS_11char_traitsIcEEEEEC2EPKcj
R5b:__ZL15createmetatableP9lua_State
Gac:_cap_fit
yAc:_FT_Glyph_StrokeBorder
vPa:__ZZN16b2ParticleSystem33CreateParticlesWithShapesForGroupEPKPK7b2ShapeiRK18b2ParticleGroupDefRK11b2TransformENK14CompositeShape7RayCastEP15b2RayCastOutputRK14b2RayCastInputSA_i
vPc:_closedir
Tga:__ZN13ShaderTextureD2Ev
kA:_glfwDestroyCond
r5a:__ZN20EventContactListener9PostSolveEP9b2ContactPK16b2ContactImpulse
ko:_dladdr
to:_eglCreateWindowSurface
Mga:__ZN13ShaderProgram12ConstantDescC2EOS0_
uwb:_png_reset_crc
G2b:__ZL9io_pcloseP9lua_State
Svb:_z_gzrewind
uid:__ZNSt3__26locale5facetD2Ev
eFa:__ZN7b2World12SetDebugDrawEP6b2Draw
uVa:__ZN11AudioBinder10Sound_playEP9lua_State
sBc:_FT_Raccess_Guess
usb:___swsetup
kmc:_gray_render_scanline
Wzd:__ZNSt3__26locale5__imp12install_fromINS_10moneypunctIcLb1EEEEEvRKS1_
_Na:__ZN6b2RopeC2Ev
Wgd:__ZNSt3__213basic_ostreamIwNS_11char_traitsIwEEElsEPFRNS_9basic_iosIwS2_EES6_E
u8b:__ZN8pystring2os4path11isabs_posixERKNSt3__212basic_stringIcNS2_11char_traitsIcEENS2_9allocatorIcEEEE
Eka:__ZN14NetworkManager14setMd5FileNameEPKc
T0b:_luaL_register
rKb:_jpeg_fdct_14x14
Y8a:__ZN6Sprite6setXYZEfff
l2:__ZN6TTFontD2Ev
lPb:__Z20ETCTextureDecompressPKvRKiS2_S0_S2_
AI:__ZN11LayoutEventD0Ev
abb:__ZNKSt3__26__treeINS_12__value_typeIiNS_6vectorIP12CppLuaBridgeNS_9allocatorIS4_EEEEEENS_19__map_value_compareIiS8_NS_4lessIiEELb1EEENS5_IS8_EEE10__root_ptrEv
Kra:__GLOBAL__sub_I_ghttp_js_cpp
bBb:_png_inflate_claim
bP:__ZN16GiderosExceptionD0Ev
hkb:__ZNSt3__26__treeINS_12__value_typeImPN9g_private14TextureManager18TempTextureElementEEENS_19__map_value_compareImS6_NS_4lessImEELb1EEENS_9allocatorIS6_EEE16__construct_nodeIJRKNS_21piecewise_construct_tENS_5tupleIJRKmEEENSI_IJEEEEEENS_10unique_ptrINS_11__tree_nodeIS6_PvEENS_22__tree_node_destructorINSB_ISQ_EEEEEEDpOT_
p$:__ZL16easeInOutElasticddd
xAa:__ZN16b2StackAllocator8AllocateEi
zDd:__ZNSt3__212basic_stringIcNS_11char_traitsIcEENS_9allocatorIcEEE19__copy_assign_allocERKS5_
aUb:_unzGoToNextFile
pBd:__ZNSt3__211timed_mutexD2Ev
_hc:_Init_Linked
Yta:_ggeolocation_stopUpdatingLocation
INa:__ZNK11b2GearJoint8GetRatioEv
TEa:__ZN16b2ParticleSystem16ReallocateBufferIfEEPT_S2_ii
yV:__ZN3Dib15intelligentFillEv
Wxb:_png_build_16bit_table
Gnd:__ZNKSt3__210moneypunctIwLb1EE13do_pos_formatEv
w3c:_remove
irb:__ZNSt3__214__split_bufferI8GGPluginRNS_9allocatorIS1_EEEC2EjjS4_
Pzc:_ft_stroke_border_lineto
wla:__ZN20GGApplicationManagerC2Ev
Pw:_glBindTexture
VRc:_snprintf
Ftc:_cff_glyph_load
Sud:__ZNSt3__220__time_get_c_storageIwEC2Ev
Nia:__ZL9gen_pathsi
C9b:__ZN6snappy13RawUncompressEPKcjPc
grb:__ZNSt3__26vectorI8GGPluginNS_9allocatorIS1_EEE21__push_back_slow_pathIRKS1_EEvOT_
xAb:_png_read_filter_row_sub
r2b:__ZL9getthreadP9lua_StatePi_1905
yXb:_lua_tothread
Mid:__ZNKSt3__27num_getIcNS_19istreambuf_iteratorIcNS_11char_traitsIcEEEEE6do_getES4_S4_RNS_8ios_baseERjRe
Kid:__ZNKSt3__27num_getIcNS_19istreambuf_iteratorIcNS_11char_traitsIcEEEEE6do_getES4_S4_RNS_8ios_baseERjRf
hs:_emscripten_glGetVertexAttribiv
x7c:__ZNSt3__27__sort5IRNS_6__lessIhhEEPhEEjT0_S5_S5_S5_S5_T_
Ssb:_g_vfprintf
Eid:__ZNKSt3__27num_getIcNS_19istreambuf_iteratorIcNS_11char_traitsIcEEEEE6do_getES4_S4_RNS_8ios_baseERjRl
Iid:__ZNKSt3__27num_getIcNS_19istreambuf_iteratorIcNS_11char_traitsIcEEEEE6do_getES4_S4_RNS_8ios_baseERjRm
IAb:_png_push_have_info
wT:__ZNK4Font7getTypeEv
rGa:__ZN24b2PositionSolverManifold10InitializeEP27b2ContactPositionConstraintRK11b2TransformS4_i
U1a:__ZNK15b2DistanceJoint12GetFrequencyEv
hPb:__ZL18InterpolateColoursPKiS0_S0_S0_iiiPi
j4c:_imaxdiv
Jma:__ZN6ginput12InputManager14deleteKeyEventEP15ginput_KeyEvent
Jid:__ZNKSt3__27num_getIcNS_19istreambuf_iteratorIcNS_11char_traitsIcEEEEE6do_getES4_S4_RNS_8ios_baseERjRy
$9b:__ZN6snappy28SnappyDecompressionValidator17SetExpectedLengthEj
gdc:_II_select_table
NZc:_recv
WSa:__ZN12ScreenBinder5getIdEP9lua_State
YYa:__ZN9ParameterC2EOS_
DVd:mftCall_viidi
LFc:_mixer_softmixer
wuc:_cf2_hintmask_isValid
Dc:invoke_viiiiiiiiii
GNd:__ZNSt3__26gslice6__initEj
Yfc:_INT123_synth_ntom_set_step
_bc:_INT123_fi_exit
aCb:_png_set_strip_16
RK:__ZNK6Sprite5childEi
Np:_emscripten_get_canvas_element_size
QAa:__ZNK19b2IntrusiveListNode9GetLengthEv
LNa:__ZNK13b2PulleyJoint10GetLengthBEv
rOc:___ispunct_l
nf:_SDL_JoystickNumHats
A0a:__ZN11b2DebugDraw10DrawCircleERK6b2Vec2fRK7b2Color
Ita:__ZL14gui_eventInputmiPKcS0_
x0a:__ZN11b2DebugDraw6doDrawERK7Matrix4ffff
vmc:_ft_smooth_render_lcd_v
l9a:__ZN12MatrixBinder6getM12EP9lua_State
A5a:__ZN19AccelerometerBinder11isAvailableEP9lua_State
_fa:__ZNSt3__26__treeIP20gl2ShaderBufferCacheNS_4lessIS2_EENS_9allocatorIS2_EEE16__construct_nodeIJS2_EEENS_10unique_ptrINS_11__tree_nodeIS2_PvEENS_22__tree_node_destructorINS5_ISC_EEEEEEDpOT_
U2a:__ZN12Box2DBinder223b2Fixture_GetFilterDataEP9lua_State
MVa:__ZN10MeshBinderC2EP9lua_State
pGc:_get_instrument
Dza:__ZNK11b2RopeJoint17GetReactionTorqueEf
pFc:_virt_setbend
h7c:__ZNSt3__227__insertion_sort_incompleteIRNS_6__lessIccEEPcEEbT0_S5_T_
E1b:__ZL19luaB_collectgarbageP9lua_State
e2c:_ungetc
G$:__ZN9ParameterC2EPKcffS1_
HMd:__ZNSt3__215system_categoryEv
hp:_emscripten_async_wget2_abort
rJa:__ZNK16b2ParticleSystem16ConnectionFilter11IsNecessaryEi
fQb:__ZNK11CPVRTString5emptyEv
tA:_glfwGetKey
A9c:__ZNKSt3__211__libcpp_db15__find_c_from_iEPv
uwa:__ZNK13b2CircleShape15ComputeDistanceERK11b2TransformRK6b2Vec2PfPS3_i
baa:__ZNSt3__214__split_bufferIPNS_4pairIP6SpritebEERNS_9allocatorIS5_EEE10push_frontERKS5_
gwb:_z_deflateCopy
i1b:__ZL4getFP9lua_StatePvPj
Tp:_emscripten_get_element_css_size
$Ba:__Z5b2MinIiET_S0_S0_
A6:__ZN10ErrorEvent5applyEP12EventVisitor
rlb:_gevent_Init
SVd:mftCall_viiiiiiid
KJ:__ZNSt3__214__split_bufferIN9Particles5ColorERNS_9allocatorIS2_EEED2Ev
Xld:__ZNKSt3__215time_get_bynameIcNS_19istreambuf_iteratorIcNS_11char_traitsIcEEEEE8__monthsEv
wab:__ZN5Timer14setRepeatCountEi
lAa:__ZN24b2TypedIntrusiveListNodeI14b2TrackedBlockE13GetNodeOffsetEP19b2IntrusiveListNode
Zqb:_luaL_rawgetptr
Lba:__ZNK6Sprite9getBoundsEPKS_PfS2_S2_S2_
TVd:mftCall_viiiiiiii
FNa:__ZN12b2MotorJoint16SetAngularOffsetEf
zm:_alGetListenerfv
nMd:__ZNSt3__212strstreambufC2EPKai
ZBd:__ZNSt3__213random_deviceC2ERKNS_12basic_stringIcNS_11char_traitsIcEENS_9allocatorIcEEEE
oQ:___cxx_global_var_init_1_52
L7b:__ZNSt3__210__find_endIPFbccEPKcS4_EET0_S5_S5_T1_S6_T_NS_26random_access_iterator_tagES8_
Uz:_glVertexAttribDivisor
Wec:_stream_skip_bytes
lNa:__ZNK15b2RevoluteJoint14IsMotorEnabledEv
B6b:__ZL9addintlenPc
nYb:_luaF_newupval
g3c:_ms_close
KCa:__ZN6b2Body8SetAwakeEb
Ipc:_tt_size_run_prep
vIa:__ZNSt3__216__insertion_sortIRPFbRKN16b2ParticleSystem5TriadES4_EPS2_EEvT0_S9_T_
Atd:__ZNKSt3__220__codecvt_utf8_utf16IDiE11do_encodingEv
Gz:_glUniform4iv
xea:__ZNK7Matrix44dataEv
elc:_tt_sbit_decoder_alloc_bitmap
BXc:___fflush_unlocked
qBc:_IsMacResource
JMa:__ZN12b2MouseJoint12SetFrequencyEf
Cn:_alcOpenDevice
lR:__ZN5GMesh17resizeVertexArrayEj
eC:_llvm_copysign_f32
s0:__ZNSt3__26__treeINS_12__value_typeIiNS_6vectorIP8SlotBaseNS_9allocatorIS4_EEEEEENS_19__map_value_compareIiS8_NS_4lessIiEELb1EEENS5_IS8_EEE16__construct_nodeIJRKNS_21piecewise_construct_tENS_5tupleIJOiEEENSJ_IJEEEEEENS_10unique_ptrINS_11__tree_nodeIS8_PvEENS_22__tree_node_destructorINS5_ISQ_EEEEEEDpOT_
Kxc:_ps_hints_done
aFa:__ZN16b2ParticleSystem16ReallocateBufferIP16b2ParticleHandleEEPT_S4_ii
jNc:_strerror
TP:__ZN7TileMapD0Ev
I2b:__ZL7newfileP9lua_State
ivc:_cf2_arrstack_push
Ara:__Z9getLocalev
egb:__ZNSt3__25dequeINS_12basic_stringIcNS_11char_traitsIcEENS_9allocatorIcEEEENS4_IS6_EEE19__add_back_capacityEv
uMa:__ZN6b2Body13ResetMassDataEv
Wpb:__ZNSt3__26__treeINS_12__value_typeIi8FileInfoEENS_19__map_value_compareIiS3_NS_4lessIiEELb1EEENS_9allocatorIS3_EEE25__emplace_unique_key_argsIiJRKNS_21piecewise_construct_tENS_5tupleIJRKiEEENSF_IJEEEEEENS_4pairINS_15__tree_iteratorIS3_PNS_11__tree_nodeIS3_PvEEiEEbEERKT_DpOT0_
u3c:_putwc
vra:__Z21setKeyboardVisibilityb
_$a:__ZN12Box2DBinder221b2Contact_getFixtureBEP9lua_State
Tlb:_gevent_RemoveCallbackWithGid
eyc:_psh_glyph_interpolate_strong_points
hw:_flock
oFc:_free_voice
eld:__ZNKSt3__28time_getIcNS_19istreambuf_iteratorIcNS_11char_traitsIcEEEEE10__get_yearERiRS4_S4_RjRKNS_5ctypeIcEE
E9a:__ZN12MatrixBinder5scaleEP9lua_State
QT:__ZNSt3__214__split_bufferI12GraphicsBaseRNS_9allocatorIS1_EEED2Ev
Hdb:_block_size
lBd:__ZNSt3__215recursive_mutex4lockEv
p_:__ZL15easeCosineCurved
TJa:__ZN12_GLOBAL__N_117FixedSetAllocator8SetCountEi
YGc:_set_lfo_depth
c_c:_herror
$Xd:_emscripten_set_main_loop__wrapper
BNd:__ZNSt3__215__thread_struct25notify_all_at_thread_exitEPNS_18condition_variableEPNS_5mutexE
K8b:__ZN8pystring2os4path4joinERKNSt3__26vectorINS2_12basic_stringIcNS2_11char_traitsIcEENS2_9allocatorIcEEEENS7_IS9_EEEE
dz:_glShaderBinary
w8c:__ZNSt3__27__sort4IRNS_6__lessIffEEPfEEjT0_S5_S5_S5_T_
P4:__ZN5Shape13ensureSubpathEff
Xp:_emscripten_get_mouse_status
wnd:__ZNKSt3__210moneypunctIwLb0EE13do_neg_formatEv
Arb:_g_setInstance
wcb:__ZNKSt3__26vectorIP12CppLuaBridgeNS_9allocatorIS2_EEE8max_sizeEv
wTc:___DOUBLE_BITS_334
Pjb:__ZNSt3__23mapImPN9g_private19RenderTargetElementENS_4lessImEENS_9allocatorINS_4pairIKmS3_EEEEEixERS8_
Toa:__ZNSt3__214__split_bufferIPNS_4pairIjjEERNS_9allocatorIS3_EEE9push_backEOS3_
b$a:__ZN12Box2DBinder210b2GetScaleEP9lua_State
NPb:__ZN11CPVRTStringC2Ec
kJb:_create_colorindex
WFd:__ZNKSt3__212basic_stringIcNS_11char_traitsIcEENS_9allocatorIcEEE16find_last_not_ofEcj
mxa:__Z23b2CollideEdgeAndPolygonP10b2ManifoldPK11b2EdgeShapeRK11b2TransformPK14b2PolygonShapeS6_
w0b:_lua_getprintfunc
s9b:__ZN6snappy17UNALIGNED_STORE32EPvj
K2b:__ZL8io_flushP9lua_State
HAb:_png_handle_PLTE
jNd:__ZNSt3__219__thread_struct_imp25notify_all_at_thread_exitEPNS_18condition_variableEPNS_5mutexE
wE:_pthread_setcancelstate
H6a:__ZN12BitmapBinder14setAnchorPointEP9lua_State
l$c:_res_querydomain
djd:__ZNKSt3__27num_getIcNS_19istreambuf_iteratorIcNS_11char_traitsIcEEEEE23__do_get_floating_pointIdEES4_S4_S4_RNS_8ios_baseERjRT_
oPc:___pthread_self
Txd:__ZNSt3__212_GLOBAL__N_14makeINS_5ctypeIcEEDnbjEERT_T0_T1_T2_
Z6b:__ZL7tinsertP9lua_State
PYa:__ZN15MovieClipBinder13setStopActionEP9lua_State
GMb:_rgb_convert_158
xzc:_FT_Glyph_Get_CBox
kha:__ZN16ogl2ShaderEngine8setModelE7Matrix4
xjd:__ZNSt3__27num_getIwNS_19istreambuf_iteratorIwNS_11char_traitsIwEEEEED0Ev
gRa:__ZN14LuaApplication18Core_profilerResetEP9lua_State
eqa:__ZN21GGSampleOpenALManager18ChannelSetPositionEmj
hDa:__ZN9b2Contact7AddTypeEPFPS_P9b2FixtureiS2_iP16b2BlockAllocatorEPFvS0_S4_EN7b2Shape4TypeESA_
H8:__ZN6Sprite6doDrawERK7Matrix4ffff
CAd:__ZNKSt3__26locale9has_facetERNS0_2idE
Xz:_glVertexAttribDivisorEXT
f$:__ZL8easeNoned
Yg:_XSetWMHints
p5:__ZNKSt3__26vectorIPdNS_9allocatorIS1_EEE8max_sizeEv
N3a:__ZN6b2Body18SetSleepingAllowedEb
_z:_glVertexPointer
TXb:_lua_getfenv
NDc:_pattern_alloc
v1c:_mkdir
jc:invoke_viiiddi
yWa:__ZNSt3__214__split_bufferIjRNS_9allocatorIjEEEC2EjjS3_
wja:_parse
PUb:__ZL13propagatemarkP12global_State
UQd:__ZN10__cxxabiv112_GLOBAL__N_111string_pairC2ILj6EEERAT__Kc
jLc:_cargl
Lpb:__ZL7s_closei
U5c:_acct
$jb:_gtexture_RestoreRenderTargets
DKa:__ZZN16b2ParticleSystem18UpdateBodyContactsEvEN26UpdateBodyContactsCallback13ReportFixtureEP9b2Fixture
EIa:__ZNSt3__212__rotate_gcdIPN16b2ParticleSystem5TriadEEET_S4_S4_S4_
Wfa:__ZNSt3__26__treeIP20gl2ShaderBufferCacheNS_4lessIS2_EENS_9allocatorIS2_EEEC2ERKS4_
QZa:__ZN17ApplicationBinder14setOrientationEP9lua_State
tD:_pow
$Zc:_getservbyport_r
WWa:__ZN17GGTextInputDialog10callback_sEiPvS0_
NYa:__ZN15MovieClipBinder11gotoAndPlayEP9lua_State
HHb:_jpeg_idct_float
l5:__ZN10Tesselator14EdgeCallback_sEhPv
hhb:_gtimer_stop
fxd:__ZNKSt3__29money_getIwNS_19istreambuf_iteratorIwNS_11char_traitsIwEEEEE3getES4_S4_bRNS_8ios_baseERjRe
dq:_emscripten_get_preloaded_image_data_from_FILE
bXc:_permute
ue:_SDL_GL_GetSwapInterval
jbd:__ZNSt3__215basic_streambufIwNS_11char_traitsIwEEED0Ev
JD:_pthread_cond_init
cba:__ZNSt3__25dequeI9_cliprectNS_9allocatorIS1_EEE9push_backERKS1_
k0:__ZN4SlotI9MovieClip15EnterFrameEventEC2EPS0_MS0_FvPS1_E
xf:_SDL_LockSurface
voc:_af_property_get
Jqb:__ZNSt3__26__treeINS_12__value_typeIPKciEENS_19__map_value_compareIS3_S4_N8StringId5ltstrELb1EEENS_9allocatorIS4_EEE4findIS3_EENS_15__tree_iteratorIS4_PNS_11__tree_nodeIS4_PvEEiEERKT_
YOc:___iswspace_l
K$:__ZNSt3__26__treeINS_12__value_typeIP6SpriteiEENS_19__map_value_compareIS3_S4_NS_4lessIS3_EELb1EEENS_9allocatorIS4_EEEC2ERKS8_
k9c:__ZNKSt3__224__libcpp_debug_exception4whatEv
avd:__ZNSt3__210__time_getC2EPKc
ija:__ZN6Path2DC2EP11Application
MFd:__ZNKSt3__212basic_stringIcNS_11char_traitsIcEENS_9allocatorIcEEE12find_last_ofEcj
FLd:__ZNSt3__210to_wstringEd
uhc:_ft_outline_glyph_transform
U$c:_loadstate
khd:__ZNSt3__213basic_ostreamIwNS_11char_traitsIwEEE3putEw
Mzc:_FT_Vector_From_Polar
iud:__ZNKSt3__27num_getIwNS_19istreambuf_iteratorIwNS_11char_traitsIwEEEEE3getES4_S4_RNS_8ios_baseERjRt
Ykb:__ZNSt3__214__split_bufferIPN6gevent12EventManager17EventQueueElementERNS_9allocatorIS4_EEEC2EjjS7_
CJc:__ZN10emscripten8internal11LightTypeIDIsE3getEv
gSc:_tolower_l
ezb:_png_get_hIST
lId:__ZNSt3__212basic_stringIwNS_11char_traitsIwEENS_9allocatorIwEEE6insertEjRKS5_
Wia:__ZL7line_toP12reduced_pathffff
yoa:__ZN12_GLOBAL__N_121GGStreamOpenALManager21ChannelRemoveCallbackEmPFviPvS1_ES1_
DRb:_internal_gluNewTess
V4:__ZNSt3__24listI12GraphicsBaseNS_9allocatorIS1_EEE9push_backEOS1_
Qva:__ZN19b2IntrusiveListNode10InitializeEv
HYb:_luaX_lexerror
aQb:__ZNK11CPVRTStringeqEPKc
$Mc:_vfprintf
D0:__ZNSt3__26__treeINS_12__value_typeIiiEENS_19__map_value_compareIiS2_NS_4lessIiEELb1EEENS_9allocatorIS2_EEE4findIiEENS_15__tree_iteratorIS2_PNS_11__tree_nodeIS2_PvEEiEERKT_
sGa:__ZN9b2Contact11GetManifoldEv
L6a:__ZN6BitmapC2EP11ApplicationP10BitmapData
Qsc:_tt_face_free_hdmx
Tec:_plain_fullread
BPd:__ZN10__cxxabiv112_GLOBAL__N_15arenaILj4096EED2Ev
yJd:__ZNKSt3__212basic_stringIwNS_11char_traitsIwEENS_9allocatorIwEEE7compareENS_17basic_string_viewIwS2_EE
Sid:__ZNSt3__217__libcpp_sscanf_lEPKcP15__locale_structS1_z
FK:__ZNSt3__26removeINS_11__wrap_iterIPP8SlotBaseEES3_EET_S6_S6_RKT0_
VDc:_hio_read8s
Tea:__ZNSt3__214__split_bufferIPN12ShaderEngine12DepthStencilENS_9allocatorIS3_EEE10push_frontEOS3_
apb:_gaudio_BackgroundChannelSetPosition
kOa:__ZN16b2ParticleSystem21DestroyOldestParticleEib
Ooc:_TT_Get_VMetrics
zV:__ZN3Dib16premultiplyAlphaEv
sp:_emscripten_autodebug_i32
x5a:__ZN19AccelerometerBinderC2EP9lua_State
Bt:_emscripten_gluLookAt
Yea:__ZNSt3__212__deque_baseIN12ShaderEngine7ScissorENS_9allocatorIS2_EEED2Ev
Skd:__ZNSt3__2L10init_weeksEv
nza:__ZN11b2GearJoint23InitVelocityConstraintsERK12b2SolverData
x0:__ZN4SlotI9MovieClip15EnterFrameEventE4callEP5Event
bCd:__ZNSt3__211regex_errorD2Ev
E2a:__ZN12Box2DBinder223b2ChainShape_createLoopEP9lua_State
rDd:__ZNSt3__212basic_stringIcNS_11char_traitsIcEENS_9allocatorIcEEEC2ESt16initializer_listIcERKS4_
YPa:__ZN15b2ParticleGroup13SetGroupFlagsEi
ocb:__ZL12eventClosureP9lua_State
$Tb:_unzGetCurrentFileInfo
Y8c:__ZNSt3__26chrono12system_clock9to_time_tERKNS0_10time_pointIS1_NS0_8durationIxNS_5ratioILx1ELx1000000EEEEEEE
P5a:__ZN15TextFieldBinder7setTextEP9lua_State
hRb:___gl_meshZapFace
YNc:_pad
j5b:__ZL11push_offsetP9lua_StatePKcS2_S2_i
wed:__ZNSt3__213basic_istreamIcNS_11char_traitsIcEEEC1EPNS_15basic_streambufIcS2_EE
Hd:_Mix_ResumeMusic
uDa:__ZN24b2ChainAndPolygonContactC2EP9b2FixtureiS1_i
ilc:_tt_face_done_kern
MMc:_sha512crypt
GW:__ZN11Application13setResolutionEii
ZVa:__ZN10MeshBinder13setColorArrayEP9lua_State
f0c:___pthread_self_535
zac:_INT123_dither_table_init
Ey:_glGetUniformfv
ja:invoke_diid
uWa:__ZNSt3__213__vector_baseIjNS_9allocatorIjEEED2Ev
lhd:__ZNSt3__213basic_ostreamIwNS_11char_traitsIwEEE5writeEPKwi
Qac:_mpg123_fmt
oud:__ZNKSt3__27num_getIwNS_19istreambuf_iteratorIwNS_11char_traitsIwEEEEE3getES4_S4_RNS_8ios_baseERjRe
J_:__ZL13easeOutInExpod
Kyb:_png_get_pixels_per_inch
pa:invoke_diii
hba:__ZNSt3__212__deque_baseI9_cliprectNS_9allocatorIS1_EEE5clearEv
M8c:__ZNSt3__212__rs_defaultC2Ev
AGb:_jpeg_finish_decompress
xga:__ZNSt3__214__split_bufferIP17ogl2ShaderProgramRNS_9allocatorIS2_EEED2Ev
wna:__ZNSt3__26__treeINS_12__value_typeIj7PointerEENS_19__map_value_compareIjS3_NS_4lessIjEELb1EEENS_9allocatorIS3_EEE16__insert_node_atEPNS_15__tree_end_nodeIPNS_16__tree_node_baseIPvEEEERSF_SF_
Tya:__Z7b2Mul22RK7b2Mat33RK6b2Vec2
d9c:__ZNSt3__218condition_variable15__do_timed_waitERNS_11unique_lockINS_5mutexEEENS_6chrono10time_pointINS5_12system_clockENS5_8durationIxNS_5ratioILx1ELx1000000000EEEEEEE
OPd:__ZN10__cxxabiv112_GLOBAL__N_114parse_encodingINS0_2DbEEEPKcS4_S4_RT_
mQd:__ZN10__cxxabiv112_GLOBAL__N_111string_pairC2EOS1_
SWb:__ZL11getluaprotoP8CallInfo
Qmc:_af_glyph_hints_align_weak_points
Hoc:_tt_get_advances
fud:__ZNKSt3__27num_getIwNS_19istreambuf_iteratorIwNS_11char_traitsIwEEEEE3getES4_S4_RNS_8ios_baseERjRb
se:_SDL_GL_GetAttribute
dwc:_cff_parse_maxstack
N9b:__ZN6snappy12LittleEndian6Load32EPKv
j4a:__ZN12Box2DBinder215b2World_rayCastEP9lua_State
KHa:__ZN14b2RayCastInputC2Ev
ifa:__ZN13ShaderProgramC2Ev
gjc:_tt_cmap12_char_next
exd:__ZNSt3__211__money_getIwEC2Ev
Jv:_emscripten_webgl_init_context_attributes
VSb:___gl_pqHeapDelete
P0b:_luaL_checkinteger
iBa:__ZN9b2Simplex9ReadCacheEPK14b2SimplexCachePK15b2DistanceProxyRK11b2TransformS5_S8_
ZUb:_luaF_freeclosure
rG:getInheritedInstance
bnc:_af_axis_hints_new_segment
jVd:mftCall_vid
M6a:__ZN16BitmapDataBinderC2EP9lua_State
zHd:__ZNSt3__212basic_stringIwNS_11char_traitsIwEENS_9allocatorIwEEE6resizeEjw
aR:__ZN5GMesh15setGenericArrayEiPKvN13ShaderProgram8DataTypeEii
Yac:_postprocess_buffer
u3b:_luaopen_int64
rsb:_g_ftrylockfile
d1a:__ZN11b2WeldJoint12SetFrequencyEf
xVd:mftCall_vii
jSa:__ZL12profilerHookP9lua_Statei
c1a:__ZNK11b2WeldJoint12GetFrequencyEv
V1b:__ZL13luaB_tonumberP9lua_State
bz:_glSampleCoverage
Uqd:__ZNKSt3__212ctype_bynameIwE10do_tolowerEPwPKw
FIb:_build_ycc_rgb_table
Sxa:__ZNK6b2Body13GetWorldPointERK6b2Vec2
_Uc:_lroundf
cwc:_cff_parse_cid_ros
mdc:_INT123_init_layer3_stuff
eQb:__ZNK11CPVRTString4dataEv
iha:__ZN16ogl2ShaderEngine13setProjectionE7Matrix4
vQb:__ZNK11CPVRTString12find_last_ofEcj
it:_emscripten_glUniformMatrix4fv
d$b:__ZL4exp1P8LexState
moa:__ZN12_GLOBAL__N_121GGStreamOpenALManager18ChannelGetPositionEm
LUd:mftCall_diid
ujb:_gtexture_tick
Tyb:_png_get_pHYs_dpi
Ptd:__ZNKSt3__27collateIcE4hashEPKcS3_
gec:_INT123_synth_4to1_m2s
HR:__ZN6Bitmap6doDrawERK7Matrix4ffff
qFb:_png_image_write_to_file
Cm:_alGetProcAddress
Iyc:_ps_hints_stem
HXa:__ZN17GeolocationBinder4stopEP9lua_State
hBd:__ZNSt3__25mutex8try_lockEv
yvb:_gz_fetch
_Sb:___gl_dictListSearch
tNd:__ZNKSt3__26vectorIPNS_17__assoc_sub_stateENS_18__hidden_allocatorIS2_EEE8max_sizeEv
Awb:_png_set_mem_fn
Rdc:_INT123_synth_4to1
D5b:__ZL10math_log10P9lua_State
Vxd:__ZNSt3__212_GLOBAL__N_14makeINS_5ctypeIwEEjEERT_T0_
GEc:_decode_protracker_event
T9:__ZNSt3__26vectorIPNS_5stackINS_4pairIP6SpritebEENS_5dequeIS5_NS_9allocatorIS5_EEEEEENS7_ISB_EEE26__swap_out_circular_bufferERNS_14__split_bufferISB_RSC_EE
YTb:_unzGetGlobalInfo64
sSc:_wmemcpy
lqa:__ZN21GGSampleOpenALManager15ChannelSetPitchEmf
hta:__ZN10emscripten8internal14ArgArrayGetterINS0_8TypeListIJiNS_3valES3_RS3_NS_11memory_viewIhEES3_S3_iiiEEEE3getEv
fSb:___gl_meshNewMesh
Cld:__ZNKSt3__28time_getIwNS_19istreambuf_iteratorIwNS_11char_traitsIwEEEEE17__get_weekdaynameERiRS4_S4_RjRKNS_5ctypeIwEE
glc:_tt_face_load_generic_header
tc:invoke_viiiiii
WYb:__ZL10repeatstatP8LexStatei
j1c:_tre_neg_char_classes_match
qKb:_jpeg_fdct_13x13
kmb:__ZNSt3__23mapImPN14GGSoundManager5SoundENS_4lessImEENS_9allocatorINS_4pairIKmS3_EEEEED2Ev
VDd:__ZNKSt3__212basic_stringIcNS_11char_traitsIcEENS_9allocatorIcEEE6cbeginEv
Brb:_g_error
aKd:__ZNSt3__212_GLOBAL__N_110as_integerIlNS_12basic_stringIwNS_11char_traitsIwEENS_9allocatorIwEEEEEET_RKNS2_IcNS3_IcEENS5_IcEEEERKT0_Pji
pk:__embind_create_inheriting_constructor
yVb:_luaO_fb2int
orc:_Ins_EQ
i3a:__ZN12Box2DBinder226b2Body_ApplyAngularImpulseEP9lua_State
Uua:_serverDataSent
bkb:__ZNSt3__26vectorIcNS_9allocatorIcEEE4swapERS3_
d0a:__ZN12Box2DBinder224b2Contact_setRestitutionEP9lua_State
wqa:__ZN21GGSampleOpenALManager21SoundCreateFromBufferEPKviiii
Zm:_alSourcePlayv
GHb:_start_pass_1
Gt:_emscripten_has_threading_support
DWc:_ioctl
D_a:__ZN13TileMapBinder5shiftEP9lua_State
TD:_pthread_create
cMa:__ZNK7b2World14GetTreeBalanceEv
Ybb:__ZN16EventTypeVisitor5visitEP21StageOrientationEvent
uId:__ZNSt3__212basic_stringIwNS_11char_traitsIwEENS_9allocatorIwEEE6insertIPKwEENS_9enable_ifIXaasr21__is_forward_iteratorIT_EE5valuesr38__libcpp_string_gets_noexcept_iteratorISA_EE5valueENS_11__wrap_iterIPwEEE4typeENSB_IS8_EESA_SA_
x4b:__ZL9utf8_nextPKcS0_
Y$c:_temper
Lfa:__Z14ogl2LoadShaderjPKcRNSt3__212basic_stringIcNS1_11char_traitsIcEENS1_9allocatorIcEEEE
Aw:_getprotobyname
xYa:__ZNSt3__214__split_bufferI12ghttp_HeaderRNS_9allocatorIS1_EEED2Ev
S2b:__ZL7io_typeP9lua_State
nld:__ZNKSt3__28time_getIwNS_19istreambuf_iteratorIwNS_11char_traitsIwEEEEE14do_get_weekdayES4_S4_RNS_8ios_baseERjP2tm
jGb:_jpeg_free_small
wp:_emscripten_cancel_main_loop
ZTd:___muldi3
HLb:_encode_mcu_DC_first_160
Y9a:__ZN12MatrixBinder12setRotationYEP9lua_State
rub:_z_deflateInit2_
l_:__ZNSt3__26__treeINS_12__value_typeIP6SpriteiEENS_19__map_value_compareIS3_S4_NS_4lessIS3_EELb1EEENS_9allocatorIS4_EEED2Ev
dma:__ZNKSt3__26vectorIP17ginput_TouchEventNS_9allocatorIS2_EEE8max_sizeEv
WIa:__ZN16b2VoronoiDiagramC2EP16b2StackAllocatori
hS:__ZN15MyTexturePacker11packHelper2Eii
bp:_emscripten_asm_const_iiiiiiiiii
SG:simpleReadValueFromPointer
g$:__Z4qCosd
Y1b:__ZL11luaB_unpackP9lua_State
_3a:__ZL5setb2P9lua_State
Pta:_gui_getText
OOa:__ZN16b2ParticleSystem16ReallocateBufferINS_5ProxyEEEPT_S3_ii
Fed:__ZNSt3__28ios_base33__set_badbit_and_consider_rethrowEv
fZb:__ZL10errorlimitP9FuncStateiPKc
Q6c:_setreuid
Xib:__ZN9g_private14TextureManager6createEiiiiiiPKvS2_j
yJb:_jpeg_read_raw_data
gU:__ZNSt3__26vectorIiNS_9allocatorIiEEE18__construct_at_endEj
aZ:__ZNSt3__26__treeIP6ScreenNS_4lessIS2_EENS_9allocatorIS2_EEE25__emplace_unique_key_argsIS2_JS2_EEENS_4pairINS_15__tree_iteratorIS2_PNS_11__tree_nodeIS2_PvEEiEEbEERKT_DpOT0_
S0c:_tre_add_tag_left
Rcb:__ZN14LuaApplication8callbackEiPv
g:HEAPF32
vnd:__ZNKSt3__210moneypunctIwLb0EE13do_pos_formatEv
SBa:__ZN12b2BroadPhase12UnBufferMoveEi
$oc:_tt_get_metrics_incr_overrides
Aya:__ZNK15b2RevoluteJoint10GetAnchorAEv
Dyd:__ZNSt3__212_GLOBAL__N_14makeINS_9money_putIwNS_19ostreambuf_iteratorIwNS_11char_traitsIwEEEEEEjEERT_T0_
Wv:_execv
Dzb:_png_malloc_array_checked
jRb:_KillEdge
wea:__ZN12ShaderEngine13getPropertiesERNSt3__23mapINS0_12basic_stringIcNS0_11char_traitsIcEENS0_9allocatorIcEEEES7_NS0_4lessIS7_EENS5_INS0_4pairIKS7_S7_EEEEEE
TOd:__ZNK10__cxxabiv123__fundamental_type_info9can_catchEPKNS_16__shim_type_infoERPv
Sga:__ZN17ogl2ShaderTexture10updateDataEN13ShaderTexture6FormatENS0_7PackingEiiPKvNS0_4WrapENS0_9FilteringE
W:enlargeMemory
tKc:_isupper
LIc:__ZN12_GLOBAL__N_1L20register_memory_viewIdEEvPKc
jUd:_memcpy
_E:_sigfillset
yh:___cxa_begin_catch
X0c:_marksub
Jdc:_INT123_synth_1to1_8bit_wrap_m2s
EBb:_png_create_read_struct_2
bHa:__ZN16b2ParticleSystem17SolveExtraDampingEv
Ead:__ZSt18make_exception_ptrINSt3__212future_errorEESt13exception_ptrT_
xbd:__ZNSt3__211char_traitsIwE11to_int_typeEw
Tv:_execl
Ik:__embind_register_std_string
iaa:__ZNK6Sprite8containsEPS_
RVd:mftCall_viiiiiii
fnc:_af_latin_metrics_init_blues
L8a:__ZNSt3__26__treeINS_12__value_typeINS_12basic_stringIcNS_11char_traitsIcEENS_9allocatorIcEEEEN6Sprite11ShaderParamEEENS_19__map_value_compareIS7_SA_NS_4lessIS7_EELb1EEENS5_ISA_EEE16__insert_node_atEPNS_15__tree_end_nodeIPNS_16__tree_node_baseIPvEEEERSL_SL_
JSc:_atanhl
ocd:__ZNKSt3__29basic_iosIcNS_11char_traitsIcEEE3eofEv
Kha:__ZN6Path2DD0Ev
gAb:_png_do_gamma
ISc:_atanhf
F9a:__ZN12MatrixBinder6rotateEP9lua_State
Rfc:_mpg123_open_handle
p2b:__ZL13db_setupvalueP9lua_State
Fad:__ZNSt3__212future_errorC2ERKS0_
QBa:__ZN13b2DynamicTree7BalanceEi
sA:_glfwGetGLVersion
Gxc:_compare_uni_maps
qrd:__ZNKSt3__25ctypeIwE5do_isEtw
z7:__ZNSt3__25dequeINS_4pairIP5TimeriEENS_9allocatorIS4_EEE9pop_frontEv
ROd:__ZN10__cxxabiv116__shim_type_infoD0Ev
egc:_mpg123_framebyframe_decode
Gxd:__ZNSt3__214codecvt_bynameIDsc11__mbstate_tEC2EPKcj
ard:__ZNKSt3__28numpunctIcE16do_decimal_pointEv
km:_alGetBufferf
SU:__ZTv0_n12_NSt3__218basic_stringstreamIcNS_11char_traitsIcEENS_9allocatorIcEEED1Ev
LAa:__ZN16b2BlockAllocatorD2Ev
mm:_alGetBufferi
tDc:_ft_gzip_file_skip_output
VB:_gnu_dev_minor
Pxb:_png_gamma_16bit_correct
B6a:__ZN11Application19setClearColorBufferEb
xR:__ZNK5GMesh8getIndexEiPt
WAb:_png_handle_tIME
CVb:_luaH_getn
Xlb:_gevent_CreateEventStruct2
Ylb:_gevent_CreateEventStruct3
pD:_posix_spawn_file_actions_adddup2
bDc:_ft_realloc
w5:__ZNSt3__26vectorIfNS_9allocatorIfEEE21__push_back_slow_pathIfEEvOT_
uV:__ZNSt3__214__split_bufferIhRNS_9allocatorIhEEE18__construct_at_endEjRKh
I1b:__ZL12luaB_getfenvP9lua_State
JMd:__ZNSt3__212system_errorD2Ev
vuc:_cf2_doBlend
vQd:__ZNSt3__2plIcNS_11char_traitsIcEEN10__cxxabiv112_GLOBAL__N_112malloc_allocIcEEEENS_12basic_stringIT_T0_T1_EEPKS8_RKSB_
X:getTotalMemory
mLa:__ZN15b2TypedFreeListI16b2ParticleHandleE4FreeEPS0_
lAc:_ft_angle_mean
skb:__ZN9g_private14TextureManager19RestoreTempTexturesEv
oy:_glGetProgramInfoLog
Sfa:__ZN17ogl2ShaderProgram13getGenericVBOEi
F0c:_tre_stack_push_int
Hgd:__ZNSt3__213basic_ostreamIcNS_11char_traitsIcEEE3putEc
Mxa:__Z5b2MulRK7b2Mat22RK6b2Vec2
J8a:__ZNSt3__26__treeINS_12__value_typeINS_12basic_stringIcNS_11char_traitsIcEENS_9allocatorIcEEEEN6Sprite11ShaderParamEEENS_19__map_value_compareIS7_SA_NS_4lessIS7_EELb1EEENS5_ISA_EEE12__find_equalIS7_EERPNS_16__tree_node_baseIPvEERPNS_15__tree_end_nodeISL_EERKT_
FFb:_read_markers
A0:__ZNK4SlotI9MovieClip15EnterFrameEventE6objectEv
jGd:__ZNSt3__212basic_stringIcNS_11char_traitsIcEENS_9allocatorIcEEE13__move_assignERS5_NS_17integral_constantIbLb0EEE
Ssc:_tt_check_trickyness
Z9b:__ZN6snappyL18InternalUncompressINS_28SnappyDecompressionValidatorEEEbPNS_6SourceEPT_j
XUa:__ZN11AudioBinder22SoundChannel_getVolumeEP9lua_State
H4:__ZL5isnanf
zoc:_tt_get_interface
yLd:__ZNSt3__212_GLOBAL__N_19as_stringINS_12basic_stringIwNS_11char_traitsIwEENS_9allocatorIwEEEEPFiPwjPKwzExEET_T0_SD_PKNSD_10value_typeET1_
Qkd:__ZNSt3__2L10init_am_pmEv
LTd:runPostSets60
fRd:__ZN10__cxxabiv112_GLOBAL__N_111string_pairC2ILj10EEERAT__Kc
IC:_llvm_mono_load_i8_p0i8
SPa:__ZN16b2ParticleSystem10ApplyForceEiiRK6b2Vec2
Aja:_number
vMd:__ZNSt3__224__generic_error_categoryD0Ev
BV:__ZNK3Dib5to565Ev
NTd:runPostSets62
eKd:__ZNSt3__25stoulERKNS_12basic_stringIwNS_11char_traitsIwEENS_9allocatorIwEEEEPji
Ju:_emscripten_set_mouseenter_callback
QTd:runPostSets65
gna:_ginputp_mouseMove
eHa:__ZN16b2ParticleSystem13LimitVelocityERK10b2TimeStep
sNc:___pthread_self_447
iDb:_png_get_uint_16
eqd:__ZNSt3__2L13utf8_to_utf16EPKhS1_RS1_PtS3_RS3_mNS_12codecvt_modeE
Mab:__ZNK4SlotI13TimerListener10TimerEventE6objectEv
Ifa:__ZN17ogl2ShaderProgramD0Ev
$4a:__ZN9b2WorldED22SetDestructionListenerEP21b2DestructionListener
uDc:_ft_gzip_file_fill_output
Ncc:_INT123_parse_new_id3
Fna:__ZNSt3__26__treeINS_12__value_typeIj7PointerEENS_19__map_value_compareIjS3_NS_4lessIjEELb1EEENS_9allocatorIS3_EEE13__lower_boundIjEENS_15__tree_iteratorIS3_PNS_11__tree_nodeIS3_PvEEiEERKT_SG_PNS_15__tree_end_nodeIPNS_16__tree_node_baseISE_EEEE
uMd:__ZNSt3__214error_categoryD2Ev
hKb:_jpeg_fdct_5x5
Qca:__ZNK6Sprite16getRedMultiplierEv
KV:___cxx_global_var_init_113
E7:__ZN14TimerContainer18getAdditionalDelayEPK5Timer
Dt:_emscripten_gluPerspective
lfa:__ZN16ogl2ShaderBufferD2Ev
xI:establishStackSpace
Era:__Z21g_checkStringPropertybPKc
Iob:_gaudio_ChannelSetPaused
ZWc:___pthread_self_444
lha:__ZN16ogl2ShaderEngine10clearColorEffff
LLd:__ZNSt3__212strstreambufD2Ev
K$a:__ZN18b2ParticleGroupDefC2Ev
ohb:__ZN9g_private12TimerManager8pauseAllEv
rFc:_virt_voicepos
vm:_alGetIntegerv
Ufc:_INT123_open_feed
IRa:__ZL16lzstream_cleanupP9lua_StateP9lz_stream
Ny:_glIsProgram
whd:__ZNSt3__214basic_iostreamIcNS_11char_traitsIcEEE4swapERS3_
DK:__ZNK5Event2idEv
Uo:_emscripten_SDL_SetEventHandler
Cu:_emscripten_set_keypress_callback
DFa:__ZN16b2PrismaticJointC2EPK19b2PrismaticJointDef
$Ya:__ZN9AutoUnrefD2Ev
MKa:__ZNK12_GLOBAL__N_118FixtureParticleSet4FindERKNS_15LightweightPairIP9b2FixtureiEE
Hpb:_gvfs_init
klb:__ZNSt3__24moveIPN6gevent12EventManager17EventQueueElementES3_S4_RS3_PS4_iLi0EEENS_16__deque_iteratorIT0_T1_T2_T3_T4_XT5_EEET_SE_SD_PNS_9enable_ifIXsr27__is_random_access_iteratorISE_EE5valueEvE4typeE
web:_block_split
ODd:__ZNKSt3__212basic_stringIcNS_11char_traitsIcEENS_9allocatorIcEEE13__get_pointerEv
w:tempInt
fqc:_Ins_SFVFS
avb:_fixedtables_6
SR:__ZN21StageOrientationEvent5applyEP12EventVisitor
WAa:__ZN6b2Stat6RecordEf
oCd:__ZNSt3__219__shared_mutex_base4lockEv
RTc:_pzero
Ogc:_mpg123_set_string
$Xc:_nftw
Jia:__ZL11kh_del_pathP9kh_path_tj
Hrb:___sclose
eUa:__ZN14ViewportBinder13setProjectionEP9lua_State
Ji:___syscall193
Ii:___syscall192
Hi:___syscall191
Oaa:__ZN6Sprite13removeChildAtEiP7GStatus
Ni:___syscall197
Mi:___syscall196
Li:___syscall195
Pca:__ZNK6Sprite4refZEv
ZRb:_CacheVertex
Pi:___syscall199
Oi:___syscall198
xsd:__ZNKSt3__215__codecvt_utf16IwLb1EE9do_lengthER11__mbstate_tPKcS5_j
sHb:_decode_mcu_sub
ry:_glGetQueryObjectivEXT
vhc:_ft_outline_glyph_bbox
KGb:_jinit_1pass_quantizer
Tt:_emscripten_lock_orientation
rO:__ZN13TextFieldBase13setDimensionsEff
sid:__ZNKSt3__27collateIcE12do_transformEPKcS3_
j0:__ZN15EventDispatcher19removeEventListenerI15EnterFrameEvent9MovieClipS1_EEvRK9EventTypeIT_EPT0_MS8_FvPT1_E
eNc:_getint
zsa:__ZN10emscripten8internal20writeGenericWireTypeIiEEvRPNS0_15GenericWireTypeET_
jXb:_lua_typename
CNa:__ZNK12b2MotorJoint19GetCorrectionFactorEv
xv:_emscripten_vr_request_present
qKc:_aligned_alloc
zIc:__ZN10emscripten8internal6TypeIDINSt3__212basic_stringIwNS2_11char_traitsIwEENS2_9allocatorIwEEEEE3getEv
d2c:_fgetln
Uzd:__ZNSt3__26locale5__imp12install_fromINS_7codecvtIwc11__mbstate_tEEEEvRKS1_
vWd:_pthread_mutex_trylock__wrapper
cfc:_feed_read
F3c:_swprintf
hNd:__ZNSt3__218__hidden_allocatorIPNS_17__assoc_sub_stateEE10deallocateEPS2_j
RV:__ZNSt3__213__vector_baseIN11Application10ImageScaleENS_9allocatorIS2_EEED2Ev
P:Math_ceil
pod:__ZNKSt3__217moneypunct_bynameIwLb1EE16do_decimal_pointEv
kSb:_InitPriorityQ
WZa:__ZN17ApplicationBinder6getFpsEP9lua_State
r_a:__ZNK14LuaApplication17getHardwareHeightEv
KDc:_unroll_loop
Fqd:__ZNSt3__212ctype_bynameIcED2Ev
jp:_emscripten_async_wget_data
s5a:__ZN20EventContactListener13dispatchEventERK9EventTypeI5EventEP9b2ContactPK10b2ManifoldPK16b2ContactImpulse
ead:__ZNSt3__223__future_error_categoryD0Ev
qxc:_cff_ps_get_font_info
Mba:__ZN6Sprite12setBlendFuncEN12ShaderEngine11BlendFactorES1_
f7:__ZNSt3__26__treeINS_12__value_typeIdNS_6vectorIP5TimerNS_9allocatorIS4_EEEEEENS_19__map_value_compareIdS8_NS_4lessIdEELb1EEENS5_IS8_EEE12__find_equalIdEERPNS_16__tree_node_baseIPvEERPNS_15__tree_end_nodeISJ_EERKT_
o8b:__ZN8pystring10splitlinesERKNSt3__212basic_stringIcNS0_11char_traitsIcEENS0_9allocatorIcEEEERNS0_6vectorIS6_NS4_IS6_EEEEb
GOa:__ZNSt3__213__rotate_leftIPPvEET_S3_S3_
FJ:__ZNSt3__26vectorIN9Particles5ColorENS_9allocatorIS2_EEE18__construct_at_endEj
dad:__ZSt17rethrow_exceptionSt13exception_ptr
sHc:_xmp_set_position
mAa:__ZNK19b2IntrusiveListNode7IsEmptyEv
nNd:__ZNSt3__26vectorINS_4pairIPNS_18condition_variableEPNS_5mutexEEENS_18__hidden_allocatorIS6_EEE26__swap_out_circular_bufferERNS_14__split_bufferIS6_RS8_EE
o7c:__ZNSt3__26__sortIRNS_6__lessIaaEEPaEEvT0_S5_T_
Zbb:__ZN16EventTypeVisitor5visitEP10ErrorEvent
$0a:__ZN12Box2DBinder227b2WeldJoint_getDampingRatioEP9lua_State
Mg:_TTF_RenderText_Shaded
Th:___gxx_personality_v0
Ffc:_halfspeed_prepare
X0b:_luaL_gsub
xra:__Z13setWindowSizeii
AZb:__ZL13discharge2regP9FuncStateP7expdesci
ARd:__ZN10__cxxabiv112_GLOBAL__N_121parse_integer_literalINS0_2DbEEEPKcS4_S4_RKNT_6StringERS5_
Jva:__ZN24b2TypedIntrusiveListNodeI14b2TrackedBlockE12InsertBeforeEPS0_
Glc:_inflate_codes_free
f8a:__ZN12SpriteBinder7getSkewEP9lua_State
eDd:__ZNSt3__212basic_stringIcNS_11char_traitsIcEENS_9allocatorIcEEEC2EPKcRKS4_
Hc:invoke_viiiiiiiiiiiii
x2c:___fputwc_unlocked
BB:_glutInitWindowSize
CHa:__ZNK12b2BroadPhase11GetUserDataEi
Qcd:__ZNKSt3__29basic_iosIwNS_11char_traitsIwEEEcvbEv
rOb:__ZNSt3__25dequeIP12QueueElementNS_9allocatorIS2_EEE8pop_backEv
uzd:__ZNSt3__26locale5__imp7installINS_17moneypunct_bynameIcLb0EEEEEvPT_
xY:__ZN5Pixel16setTextureMatrixEPK7Matrix4
DGb:_output_pass_setup
Bqd:__ZNKSt3__25ctypeIcE9do_narrowEcc
IL:__ZNSt3__211char_traitsIcE4copyEPcPKcj
Ood:__ZNSt3__212basic_stringIwNS_11char_traitsIwEENS_9allocatorIwEEE23__append_forward_unsafeIPwEERS5_T_S9_
hx:_glCopyTexImage2D
LCd:__ZNSt13runtime_errorC2ERKNSt3__212basic_stringIcNS0_11char_traitsIcEENS0_9allocatorIcEEEE
Ogb:__ZNSt3__26__treeINS_12__value_typeIdNS_6vectorIiNS_9allocatorIiEEEEEENS_19__map_value_compareIdS6_NS_4lessIdEELb1EEENS3_IS6_EEED2Ev
IW:__ZN11Application14broadcastEventEP5Event
ueb:_block_mark_as_used
e$a:__ZN12Box2DBinder220getPrismaticJointDefEP9lua_State
R5a:__ZN15TextFieldBinder12setTextColorEP9lua_State
CSc:_log1pf
swb:_png_free
bYc:_lstat
FQa:__ZN14LuaApplicationD0Ev
DIb:_build_rgb_y_table
qcd:__ZNKSt3__29basic_iosIcNS_11char_traitsIcEEE10exceptionsEv
Fhb:_gimage_parseJpg
Vhc:_Horizontal_Sweep_Span
WPd:__ZN10__cxxabiv112_GLOBAL__N_111string_pairC2ERKS1_
u6a:__ZN11StageBinder14getOrientationEP9lua_State
uRb:_RenderTriangle
ESb:_IsWindingInside
xoc:_tt_driver_init
CBd:__ZnajRKSt9nothrow_t
ryd:__ZNSt3__212_GLOBAL__N_14makeINS_10moneypunctIcLb1EEEjEERT_T0_
e4a:__ZN12Box2DBinder218b2World_CreateBodyEP9lua_State
hGc:_is_first_frame
Smb:__ZN14GGSoundManager9SoundPlayEmb
dn:_alSourceUnqueueBuffers
CRb:___gl_noCombineData
Ojd:__ZNKSt3__27num_getIwNS_19istreambuf_iteratorIwNS_11char_traitsIwEEEEE23__do_get_floating_pointIfEES4_S4_S4_RNS_8ios_baseERjRT_
Jlb:__ZN19gevent_CallbackList11addCallbackEPFviPvS0_ES0_
Hz:_glUniformMatrix2fv
Qjc:_tt_face_goto_table
uYb:__ZL10removevarsP8LexStatei
V2c:_arg_n_701
eob:__ZN14GGAudioManager26BackgroundMusicIsAvailableEv
cib:_gimage_premultiplyAlpha
CUb:_luaM_toobig
KDb:_png_default_write_data
_K:__ZNK9EventTypeI10MouseEventE2idEv
vVc:_remainderl
foa:__ZN12_GLOBAL__N_121GGStreamOpenALManagerD0Ev
Zqc:_Ins_NPUSHW
IHc:_prepare_scan
Ctb:__Z21getTemporaryDirectoryv
Yqc:_Ins_NPUSHB
lM:__ZN7GStatusD2Ev
E$a:__ZN12Box2DBinder227b2ParticleSystem_setTextureEP9lua_State
lbb:__ZN4SlotI12CppLuaBridge8LuaEventEC2EPS0_MS0_FvPS1_E
SCc:_FT_Stream_GetUShortLE
izd:__ZNSt3__214collate_bynameIwEC2ERKNS_12basic_stringIcNS_11char_traitsIcEENS_9allocatorIcEEEEj
jKa:__ZN12_GLOBAL__N_118FixtureParticleSet10InitializeEPK21b2ParticleBodyContactiPKj
gBd:__ZNSt3__25mutex4lockEv
_h:___restore_sigs
WI:__ZN12VertexBufferIhED2Ev
bB:_glfwSetWindowSizeCallback
XW:__ZN11Application10ImageScaleC2EPKcf
sfb:__ZN6GProxyD0Ev
r4:__ZNSt3__213__vector_baseINS_6vectorI6Point2IfENS_9allocatorIS3_EEEENS4_IS6_EEED2Ev
Zfd:__ZNSt3__213basic_istreamIwNS_11char_traitsIwEEE7getlineEPwi
m4a:__ZN12Box2DBinder218b2World_getGravityEP9lua_State
dLb:_emit_dht
FS:__ZNK15MaxRectsBinPack38FindPositionForNewNodeBestShortSideFitEiiRiS0_
QAb:_png_handle_bKGD
WKc:_clog
QGd:__ZNSt3__212basic_stringIwNS_11char_traitsIwEENS_9allocatorIwEEED2Ev
d$:__ZL11easeOutQuadd
Hta:__ZL14gui_eventAlertmiPKc
bJd:__ZNKSt3__212basic_stringIwNS_11char_traitsIwEENS_9allocatorIwEEE5rfindEwj
oQb:__ZNK11CPVRTString13find_first_ofEPKcj
D_:__ZL14easeOutElasticd
cra:__ZN21GGSampleOpenALManager5SoundD2Ev
T3a:__ZNK6b2Body17GetAngularDampingEv
Ikd:__ZNKSt3__28time_getIcNS_19istreambuf_iteratorIcNS_11char_traitsIcEEEEE6do_getES4_S4_RNS_8ios_baseERjP2tmcc
uda:__ZN7Matrix46invertEv
cxa:__Z6b2MulTRK5b2RotS1_
tua:_main_registerPlugin
TDc:_subinstrument_alloc
sQ:__ZNSt3__25dequeI5ColorNS_9allocatorIS1_EEE9push_backERKS1_
DSb:_AddRegionBelow
PQ:__ZN5GMesh4is3dEv
O8b:__ZN8pystring2os4path11basename_ntERKNSt3__212basic_stringIcNS2_11char_traitsIcEENS2_9allocatorIcEEEE
Qe:_SDL_GetVideoSurface
VYb:__ZL7forstatP8LexStatei
on:_alcCaptureStart
u$c:_sockatmark
mb:ftCall_viddd
T:Math_clz32
FFa:__ZN15b2DistanceJointC2EPK18b2DistanceJointDef
Ygb:__ZNSt3__23mapIdNS_6vectorIiNS_9allocatorIiEEEENS_4lessIdEENS2_INS_4pairIKdS4_EEEEEixEOd
ZJc:_independent_comalloc
iK:__ZNK9Particles8getDecayEiPfS0_S0_S0_
Sr:_emscripten_glGetQueryObjectivEXT
Thd:__ZNSt3__211__stdoutbufIwE6xsputnEPKwi
tw:_gethostbyaddr
EOd:__ZNSt16invalid_argumentD0Ev
aNa:__ZN16b2PrismaticJoint16SetMaxMotorForceEf
I8a:__ZNSt3__26__treeINS_12__value_typeINS_12basic_stringIcNS_11char_traitsIcEENS_9allocatorIcEEEEN6Sprite11ShaderParamEEENS_19__map_value_compareIS7_SA_NS_4lessIS7_EELb1EEENS5_ISA_EEE25__emplace_unique_key_argsIS7_JRKNS_21piecewise_construct_tENS_5tupleIJRKS7_EEENSL_IJEEEEEENS_4pairINS_15__tree_iteratorISA_PNS_11__tree_nodeISA_PvEEiEEbEERKT_DpOT0_
$Pd:__ZNSt3__26vectorINS0_IN10__cxxabiv112_GLOBAL__N_111string_pairENS2_11short_allocIS3_Lj4096EEEEENS4_IS6_Lj4096EEEE21__push_back_slow_pathIS6_EEvOT_
Dkd:__ZNKSt3__28time_getIcNS_19istreambuf_iteratorIcNS_11char_traitsIcEEEEE11do_get_timeES4_S4_RNS_8ios_baseERjP2tm
Whd:__ZNSt3__211__stdoutbufIcED2Ev
KVb:_luaV_tonumber
x4c:_do_read_774
_ub:_z_inflatePrime
lD:_nanosleep
S_a:__ZN12Box2DBinder220b2CircleShape_createEP9lua_State
Hic:_tt_cmap2_char_next
e7b:__ZL8addfieldP9lua_StateP11luaL_Bufferi
CJ:__ZNSt3__26vectorItNS_9allocatorItEEE26__swap_out_circular_bufferERNS_14__split_bufferItRS2_EE
jK:__ZN9Particles6setTagEiPKc
N1b:__ZL10luaB_pcallP9lua_State
zU:__ZNSt3__26__treeINS_12__value_typeIiN4Font12TextureGlyphEEENS_19__map_value_compareIiS4_NS_4lessIiEELb1EEENS_9allocatorIS4_EEE25__emplace_unique_key_argsIiJRKNS_21piecewise_construct_tENS_5tupleIJRKiEEENSG_IJEEEEEENS_4pairINS_15__tree_iteratorIS4_PNS_11__tree_nodeIS4_PvEEiEEbEERKT_DpOT0_
SPd:__ZN10__cxxabiv112_GLOBAL__N_119parse_cv_qualifiersEPKcS2_Rj
rdb:__ZN14LuaApplication13setResolutionEii
XL:__ZNSt3__26__treeINS_12__value_typeIi14GStatusElementEENS_19__map_value_compareIiS3_NS_4lessIiEELb1EEENS_9allocatorIS3_EEE12__find_equalIiEERPNS_16__tree_node_baseIPvEERPNS_15__tree_end_nodeISF_EERKT_
Drb:__ZN6ObjectC2Ev
Gdd:__ZNSt3__215basic_streambufIcNS_11char_traitsIcEEEC2Ev
dXc:_getpriority
PWd:_emscripten_set_keydown_callback__wrapper
_Fa:__ZN8b2Island5ClearEv
lKa:__ZNK16b2ParticleSystem23GetFixtureContactFilterEv
gJd:__ZNKSt3__212basic_stringIwNS_11char_traitsIwEENS_9allocatorIwEEE13find_first_ofEPKwj
i3c:_wms_write
cda:__ZNK9Transform9rotationYEv
snd:__ZNKSt3__210moneypunctIwLb0EE16do_positive_signEv
fyb:_png_write_destroy
_I:__ZNSt3__213__vector_baseIhNS_9allocatorIhEEED2Ev
cdc:_INT123_init_layer12
qOa:__ZNSt3__213__rotate_leftIPjEET_S2_S2_
zkb:__ZNSt3__26__treeIPN9g_private14TextureManager18TempTextureElementENS_4lessIS4_EENS_9allocatorIS4_EEE16__construct_nodeIJRKS4_EEENS_10unique_ptrINS_11__tree_nodeIS4_PvEENS_22__tree_node_destructorINS7_ISG_EEEEEEDpOT_
wDa:__ZN10b2ManifoldC2Ev
RCb:_make_gray_file_colormap
b2b:_luaopen_debug
AVa:__ZN12_GLOBAL__N_114GGSoundChannel10callback_sEiPvS1_
S4a:__ZNSt3__26vectorIP9b2FixtureNS_9allocatorIS2_EEE26__swap_out_circular_bufferERNS_14__split_bufferIS2_RS4_EE
$cd:__ZNSt3__29basic_iosIwNS_11char_traitsIwEEEC2EPNS_15basic_streambufIwS2_EE
gCb:_png_set_bgr
Qoa:__ZNSt3__214__split_bufferIPNS_4pairIjjEERNS_9allocatorIS3_EEED2Ev
aqa:__ZN21GGSampleOpenALManager14SoundGetLengthEm
_Ra:__ZNSt3__26__treeINS_12__value_typeINS_12basic_stringIcNS_11char_traitsIcEENS_9allocatorIcEEEEdEENS_19__map_value_compareIS7_S8_NS_4lessIS7_EELb1EEENS5_IS8_EEE12__find_equalIS7_EERPNS_16__tree_node_baseIPvEERPNS_15__tree_end_nodeISJ_EERKT_
hjd:__ZNKSt3__27num_getIcNS_19istreambuf_iteratorIcNS_11char_traitsIcEEEEE17__do_get_unsignedIyEES4_S4_S4_RNS_8ios_baseERjRT_
oUd:_pthread_mutex_trylock
cva:__ZNK11b2EdgeShape11ComputeAABBEP6b2AABBRK11b2Transformi
le:_SDL_EnableUNICODE
awa:__ZNK6b2Vec213LengthSquaredEv
yub:_z_compress
mZa:__ZN11ShapeBinder9beginPathEP9lua_State
MHd:__ZNSt3__212basic_stringIwNS_11char_traitsIwEENS_9allocatorIwEEEixEj
Hpd:__ZNKSt3__27codecvtIcc11__mbstate_tE11do_encodingEv
BKc:___uflow
vzd:__ZNSt3__26locale5__imp7installINS_17moneypunct_bynameIcLb1EEEEEvPT_
VIb:_finish_pass1
dNd:__ZNSt3__215__thread_structD2Ev
AMb:_int_downsample
KLd:__ZNSt3__212_GLOBAL__N_19as_stringINS_12basic_stringIwNS_11char_traitsIwEENS_9allocatorIwEEEEPFiPwjPKwzEeEET_T0_SD_PKNSD_10value_typeET1_
vtb:_gpath_getPathDrive
Bed:__ZNSt3__213basic_istreamIcNS_11char_traitsIcEEE6sentryC2ERS3_b
lpd:__ZNKSt3__28messagesIwE8do_closeEi
Qld:__ZNKSt3__28time_getIwNS_19istreambuf_iteratorIwNS_11char_traitsIwEEEEE11__get_year4ERiRS4_S4_RjRKNS_5ctypeIwEE
Reb:___cxx_global_var_init_1_105
C3:__ZNSt3__26__treeINS_12__value_typeIiN8TTBMFont12TextureGlyphEEENS_19__map_value_compareIiS4_NS_4lessIiEELb1EEENS_9allocatorIS4_EEE13__lower_boundIiEENS_15__tree_iteratorIS4_PNS_11__tree_nodeIS4_PvEEiEERKT_SH_PNS_15__tree_end_nodeIPNS_16__tree_node_baseISF_EEEE
KBd:__ZnwjSt11align_val_tRKSt9nothrow_t
k7c:__ZNSt3__27__sort4IRNS_6__lessIwwEEPwEEjT0_S5_S5_S5_T_
Etc:_cff_slot_done
Bac:_mpg123_feature
ONc:_BF_set_key
CMa:__ZN6b2Body12SetTransformERK6b2Vec2f
kj:___syscall272
rp:_emscripten_autodebug_i16
QGc:_fix_period
BQd:__ZN10__cxxabiv112_GLOBAL__N_118parse_alignof_exprINS0_2DbEEEPKcS4_S4_RT_
PRd:__ZNKSt3__26vectorINS0_INS0_IN10__cxxabiv112_GLOBAL__N_111string_pairENS2_11short_allocIS3_Lj4096EEEEENS4_IS6_Lj4096EEEEENS4_IS8_Lj4096EEEE8max_sizeEv
VMd:__ZNSt3__212system_errorC2EiRKNS_14error_categoryE
K8:__ZN11LayoutEventC2ERK9EventTypeIS_Eff
Azc:_FT_Library_SetLcdFilter
XQc:___duplocale
wcc:_INT123_frame_set_seek
IJb:_term_mem_destination
ofb:__ZNSt3__26__treeINS_12__value_typeIPvP11GReferencedEENS_19__map_value_compareIS2_S5_NS_4lessIS2_EELb1EEENS_9allocatorIS5_EEE16__insert_node_atEPNS_15__tree_end_nodeIPNS_16__tree_node_baseIS2_EEEERSG_SG_
gpd:__ZNKSt3__28messagesIcE8do_closeEi
rzc:_FT_GlyphSlot_Own_Bitmap
aib:__ZNSt3__26vectorIPhNS_9allocatorIS1_EEE18__construct_at_endEj
Ula:__ZNSt3__213__vector_baseIP17ginput_MouseEventNS_9allocatorIS2_EEED2Ev
jMb:_emit_restart
Gec:_mpg123_par
o9a:__ZN12MatrixBinder5getTxEP9lua_State
JYb:__ZL4saveP8LexStatei
A5:__ZN12GraphicsBaseC2EOS_
Vyd:__ZNSt3__26vectorIPNS_6locale5facetENS_15__sso_allocatorIS3_Lj28EEEE18__construct_at_endEj
i6:__ZNSt3__26__treeIP15EventDispatcherNS_4lessIS2_EENS_9allocatorIS2_EEE4findIS2_EENS_15__tree_iteratorIS2_PNS_11__tree_nodeIS2_PvEEiEERKT_
fsc:_Ins_MDRP
UM:__ZN10BitmapData5cloneEv
Cib:__ZNSt3__26__treeINS_12__value_typeINS_6vectorIcNS_9allocatorIcEEEEPN9g_private14TextureElementEEENS_19__map_value_compareIS5_S9_NS_4lessIS5_EELb1EEENS3_IS9_EEED2Ev
UU:__ZNSt3__26__treeINS_12__value_typeIiN4Font12TextureGlyphEEENS_19__map_value_compareIiS4_NS_4lessIiEELb1EEENS_9allocatorIS4_EEEC2ERKS8_
Tjd:__ZNKSt3__27num_getIwNS_19istreambuf_iteratorIwNS_11char_traitsIwEEEEE17__do_get_unsignedItEES4_S4_S4_RNS_8ios_baseERjRT_
sGd:__ZNKSt3__212basic_stringIwNS_11char_traitsIwEENS_9allocatorIwEEE9__is_longEv
Z_a:__ZN12Box2DBinder221b2ChainShape_destructEP9lua_State
Rka:__ZN18ApplicationManager4stopEv
ora:_GGSampleOpenALManagerDelete
GL:__ZN5Stage7keyDownEii
QPc:_cycle
N1c:_asprintf
Yka:__ZNSt3__26vectorINS_12basic_stringIcNS_11char_traitsIcEENS_9allocatorIcEEEENS4_IS6_EEE21__push_back_slow_pathIRKS6_EEvOT_
Nwb:_png_get_copyright
bC:_llvm_bswap_i64
_Lc:_cpowf
Ycb:__ZN8MemCacheC2Ev
Xrd:__ZNSt3__2L19utf8_to_ucs2_lengthEPKhS1_jmNS_12codecvt_modeE
Lkd:__ZNKSt3__220__time_get_c_storageIcE7__am_pmEv
Gub:_gz_init
ogd:__ZNSt3__213basic_ostreamIcNS_11char_traitsIcEEE4swapERS3_
AOa:__ZNSt3__214__rotate_rightIPP15b2ParticleGroupEET_S4_S4_
r9b:__ZN6snappy15UnalignedCopy64EPKvPv
Eo:_eglInitialize
QHb:_jpeg_idct_8x16
sYb:__ZL5checkP8LexStatei
RHa:__ZNK15b2ParticleGroup17GetLinearVelocityEv
zF:_times
W1a:__ZNK15b2DistanceJoint9GetLengthEv
sWd:_pthread_cond_signal__wrapper
hea:__ZN12ShaderEngine13setProjectionE7Matrix4
hJd:__ZNKSt3__212basic_stringIwNS_11char_traitsIwEENS_9allocatorIwEEE13find_first_ofEwj
r$c:_setservent
FQ:__Z10glSetColorffff
H$:__ZN9MovieClipC2ENS_4TypeEP11Applicationb
dDa:__ZN9b2Contact6CreateEP9b2FixtureiS1_iP16b2BlockAllocator
yia:__ZNSt3__26vectorI8vector4fNS_9allocatorIS1_EEE18__construct_at_endIPS1_EENS_9enable_ifIXsr21__is_forward_iteratorIT_EE5valueEvE4typeES8_S8_j
Fjb:__ZNSt3__26__treeIPN9g_private14TextureElementENS_4lessIS3_EENS_9allocatorIS3_EEE16__construct_nodeIJRKS3_EEENS_10unique_ptrINS_11__tree_nodeIS3_PvEENS_22__tree_node_destructorINS6_ISF_EEEEEEDpOT_
fKc:_malloc_stats
_zd:__ZNSt3__26locale5__imp12install_fromINS_9money_getIwNS_19istreambuf_iteratorIwNS_11char_traitsIwEEEEEEEEvRKS1_
Aka:__ZN14NetworkManager7saveMD5Ev
u5c:_wcsncmp
Xic:_tt_cmap6_get_info
Lib:__ZNSt3__26__treeINS_12__value_typeImPN9g_private14TextureElementEEENS_19__map_value_compareImS5_NS_4lessImEELb1EEENS_9allocatorIS5_EEE5eraseENS_21__tree_const_iteratorIS5_PNS_11__tree_nodeIS5_PvEEiEE
Jcc:_convert_utf16bom
njb:_gtexture_delete
Bpa:__ZNSt3__26__treeINS_12__value_typeImPN12_GLOBAL__N_121GGStreamOpenALManager7ChannelEEENS_19__map_value_compareImS6_NS_4lessImEELb1EEENS_9allocatorIS6_EEE14__erase_uniqueImEEjRKT_
Xkd:__ZNKSt3__28time_getIcNS_19istreambuf_iteratorIcNS_11char_traitsIcEEEEE10__get_hourERiRS4_S4_RjRKNS_5ctypeIcEE
r9c:__ZNSt3__224__libcpp_debug_exception28__libcpp_debug_exception_impC2Ev
Bdc:_mpg123_exit
w6a:__ZN11StageBinder19getClearColorBufferEP9lua_State
XBd:__ZNSt19bad_optional_accessD0Ev
Vpd:__ZNSt3__27codecvtIwc11__mbstate_tED0Ev
MGb:_jinit_merged_upsampler
Fsc:_Direct_Move
SMb:_jpeg_calc_jpeg_dimensions
OFa:__ZN16b2ParticleSystem21UserOverridableBufferIiEC2Ev
RSb:___gl_edgeEval
a5a:__ZN21b2DestructionListenerC2Ev
pc:invoke_viiiiddi
tjd:__ZNKSt3__27num_getIcNS_19istreambuf_iteratorIcNS_11char_traitsIcEEEEE15__do_get_signedIlEES4_S4_S4_RNS_8ios_baseERjRT_
c2c:_fgetc
Yda:__ZN13ShaderProgram17getSystemConstantENS_14SystemConstantE
myd:__ZNSt3__26locale5__imp7installINS_7num_putIcNS_19ostreambuf_iteratorIcNS_11char_traitsIcEEEEEEEEvPT_
ccb:__ZN16EventTypeVisitor10visitOtherEP5EventPv
lra:__ZNSt3__26__treeINS_12__value_typeImPN21GGSampleOpenALManager7ChannelEEENS_19__map_value_compareImS5_NS_4lessImEELb1EEENS_9allocatorIS5_EEED2Ev
Mra:__ZNSt3__26__treeINS_12__value_typeIm12GHttpContextEENS_19__map_value_compareImS3_NS_4lessImEELb1EEENS_9allocatorIS3_EEEC2ERKS7_
r0:__ZNSt3__26__treeINS_12__value_typeIiNS_6vectorIP8SlotBaseNS_9allocatorIS4_EEEEEENS_19__map_value_compareIiS8_NS_4lessIiEELb1EEENS5_IS8_EEE12__find_equalIiEERPNS_16__tree_node_baseIPvEERPNS_15__tree_end_nodeISJ_EERKT_
Xnb:__ZN14GGAudioManager18ChannelGetStreamIdEm
i0a:__ZNK9b2Contact14GetRestitutionEv
oAa:__ZN7b2Timer5ResetEv
Bma:_ginput_startGyroscope
zrc:_Ins_ADD
zOa:__ZNSt3__213__rotate_leftIPP15b2ParticleGroupEET_S4_S4_
tWc:__strcolcmp
CMd:__ZNSt3__212_GLOBAL__N_113do_strerror_rEi
uCd:__ZNSt3__218shared_timed_mutexC2Ev
dOb:__ZN11NetworkBase7sendAckEj
QZ:__ZNSt3__26vectorIfNS_9allocatorIfEEE13__move_assignERS3_NS_17integral_constantIbLb1EEE
Aec:_INT123_synth_ntom_mono
Ptc:_cff_get_glyph_data
Wqd:__ZNKSt3__212ctype_bynameIwE8do_widenEPKcS3_Pw
uG:getShiftFromSize
sz:_glUniform1fv
bu:_emscripten_request_fullscreen
a_:__ZNSt3__23mapIiNS_6vectorIPN9MovieClip5FrameENS_9allocatorIS4_EEEENS_4lessIiEENS5_INS_4pairIKiS7_EEEEED2Ev
_Ed:__ZNSt3__212basic_stringIcNS_11char_traitsIcEENS_9allocatorIcEEE5eraseENS_11__wrap_iterIPKcEE
Sgd:__ZNSt3__213basic_ostreamIwNS_11char_traitsIwEEEaSEOS3_
ar:_emscripten_glDisableVertexAttribArray
Cnb:__ZNSt3__26__treeINS_12__value_typeINS_12basic_stringIcNS_11char_traitsIcEENS_9allocatorIcEEEE13GGAudioLoaderEENS_19__map_value_compareIS7_S9_NS_4lessIS7_EELb1EEENS5_IS9_EEE5eraseENS_21__tree_const_iteratorIS9_PNS_11__tree_nodeIS9_PvEEiEE
Gsd:__ZNKSt3__215__codecvt_utf16IDsLb0EE11do_encodingEv
qjd:__ZNSt3__227__num_get_unsigned_integralItEET_PKcS3_Rji
F4a:__ZN17MyRayCastCallbackD0Ev
MMd:__ZNSt3__212__do_messageD0Ev
Ac:ftCall_viiiiiiii
uKc:_strtoull_l
af:_SDL_InitSubSystem
e6a:__ZNSt3__26vectorIN8FontBase8FontSpecENS_9allocatorIS2_EEE26__swap_out_circular_bufferERNS_14__split_bufferIS2_RS4_EE
_3b:__ZL11Lutf8_lowerP9lua_State
Ulc:_gray_raster_new
k4a:__ZN12Box2DBinder219b2World_createJointEP9lua_State
FPa:__ZZN16b2ParticleSystem18JoinParticleGroupsEP15b2ParticleGroupS1_ENK24JoinParticleGroupsFilter17ShouldCreateTriadEiii
hqa:__ZN21GGSampleOpenALManager15ChannelIsPausedEm
uKb:_jpeg_fdct_16x8
Xtb:_bi_flush
bRd:__ZN10__cxxabiv112_GLOBAL__N_120parse_ctor_dtor_nameINS0_2DbEEEPKcS4_S4_RT_
$Qc:_find_charmap
zAc:_FT_CeilFix
uJb:_quantize_fs_dither
BHb:_decode_mcu_AC_refine
evc:_cf2_hint_isTop
GKa:__ZNK6b2Body14GetLocalCenterEv
cu:_emscripten_request_fullscreen_strategy
vCb:_png_image_memory_read
BU:__ZNSt3__26__treeINS_12__value_typeIiN4Font12TextureGlyphEEENS_19__map_value_compareIiS4_NS_4lessIiEELb1EEENS_9allocatorIS4_EEE16__construct_nodeIJRKNS_21piecewise_construct_tENS_5tupleIJRKiEEENSG_IJEEEEEENS_10unique_ptrINS_11__tree_nodeIS4_PvEENS_22__tree_node_destructorINS9_ISO_EEEEEEDpOT_
t_a:__ZNK14LuaApplication16getLogicalScaleYEv
Rgc:_mpg123_grow_string
I2a:__ZNKSt3__26vectorI6b2Vec2NS_9allocatorIS1_EEE8max_sizeEv
gZ:__ZN6Screen4drawE7Matrix4
qk:__embind_finalize_value_array
Nqa:__ZNSt3__26__treeINS_12__value_typeImPN21GGSampleOpenALManager7ChannelEEENS_19__map_value_compareImS5_NS_4lessImEELb1EEENS_9allocatorIS5_EEE4findImEENS_15__tree_iteratorIS5_PNS_11__tree_nodeIS5_PvEEiEERKT_
of:_SDL_JoystickOpen
Rzd:__ZNSt3__26locale5__imp12install_fromINS_7codecvtIcc11__mbstate_tEEEEvRKS1_
VHb:_jpeg_idct_10x5
Kxb:_png_fixed
YM:___cxx_global_var_init_16
Xjd:__ZNSt3__27num_putIcNS_19ostreambuf_iteratorIcNS_11char_traitsIcEEEEED2Ev
Ymc:_af_warper_compute_line_best
k:ABORT
nb:invoke_vidddd
mrc:_Ins_GT
L_a:__ZN12Box2DBinder2C2EP9lua_State
Pyc:_ps_mask_table_test_intersect
SIa:__ZN12b2StackQueueIN16b2VoronoiDiagram20b2VoronoiDiagramTaskEE4PushERKS1_
Hp:_emscripten_exit_with_live_runtime
UVb:__ZL9callTMresP9lua_StateP10lua_TValuePKS1_S4_S4_
VAd:__ZNSt3__219__shared_weak_count16__release_sharedEv
Z$b:_lua_getstack
lxa:__ZN23b2EdgeAndPolygonContactD0Ev
PYb:__ZL9statementP8LexState
kjb:__ZNKSt3__26__treeINS_12__value_typeINS_6vectorIcNS_9allocatorIcEEEEPN9g_private14TextureElementEEENS_19__map_value_compareIS5_S9_NS_4lessIS5_EELb1EEENS3_IS9_EEE10__root_ptrEv
Crd:__ZNSt3__27codecvtIcc11__mbstate_tED0Ev
Mp:_emscripten_get_callstack_js
oPb:__ZN11CPVRTStringaSEPKc
wNb:__ZN21CPVRTMemoryFileSystem7CAtExitD2Ev
$sd:__ZNKSt3__215__codecvt_utf16IDiLb0EE10do_unshiftER11__mbstate_tPcS4_RS4_
LA:_glfwOpenWindow
xRd:__ZNSt3__214__split_bufferIN10__cxxabiv112_GLOBAL__N_111string_pairERNS2_11short_allocIS3_Lj4096EEEED2Ev
vpc:_ft_trig_pseudo_polarize
STb:_unz64local_getByte
s0b:__ZL11close_stateP9lua_State
kyd:__ZNSt3__26locale5__imp7installINS_7num_getIwNS_19istreambuf_iteratorIwNS_11char_traitsIwEEEEEEEEvPT_
Z$a:__ZN12Box2DBinder224b2Contact_getChildIndexAEP9lua_State
TWb:_luaO_chunkid
S4c:_mempcpy
dQd:__ZNKSt3__212basic_stringIcNS_11char_traitsIcEEN10__cxxabiv112_GLOBAL__N_112malloc_allocIcEEE7compareEjjPKcj
eDc:_FT_Add_Default_Modules
cBd:__ZNSt3__221undeclare_no_pointersEPcj
wJb:_jpeg_core_output_dimensions
hsd:__ZNKSt3__215__codecvt_utf16IwLb0EE6do_outER11__mbstate_tPKwS5_RS5_PcS7_RS7_
u$b:_luaU_header
lub:_gen_bitlen
xYb:_luaX_newstring
bgd:__ZNSt3__213basic_istreamIwNS_11char_traitsIwEEE4readEPwi
Aba:__ZNSt3__214__split_bufferIP7Matrix4NS_9allocatorIS2_EEE9push_backEOS2_
UZ:__ZNK9MovieClip11extraBoundsEPfS0_S0_S0_
i7:__ZNKSt3__26__treeINS_12__value_typeIdNS_6vectorIP5TimerNS_9allocatorIS4_EEEEEENS_19__map_value_compareIdS8_NS_4lessIdEELb1EEENS5_IS8_EEE10__root_ptrEv
vja:_prParseSvgPath
Fc:invoke_viiiiiiiiiii
Km:_alIsBuffer
O5b:__ZL9math_sqrtP9lua_State
yTa:__ZL18buildParticleTableP9lua_StateP9Particlesi
UN:__ZN6Point2IfEC2Eff
bIc:_xmp_start_smix
qIc:__ZN12_GLOBAL__N_1L16register_integerItEEvPKc
eZc:_mbsnrtowcs
YYc:_btowc
Zfb:__ZNSt3__2plIcNS_11char_traitsIcEENS_9allocatorIcEEEENS_12basic_stringIT_T0_T1_EERKS9_SB_
hP:__ZNK3Dib5widthEv
lxd:__ZNSt3__29money_putIwNS_19ostreambuf_iteratorIwNS_11char_traitsIwEEEEEC2Ej
p7:__ZNSt3__29remove_ifINS_11__wrap_iterIPP5TimerEENS_9binder2ndINS_8equal_toIS3_EEEEEET_SA_SA_T0_
zgd:__ZNSt3__213basic_ostreamIcNS_11char_traitsIcEEElsEm
WQa:__ZNSt3__26__treeINS_12__value_typeIibEENS_19__map_value_compareIiS2_NS_4lessIiEELb1EEENS_9allocatorIS2_EEE25__emplace_unique_key_argsIiJRKNS_21piecewise_construct_tENS_5tupleIJRKiEEENSE_IJEEEEEENS_4pairINS_15__tree_iteratorIS2_PNS_11__tree_nodeIS2_PvEEiEEbEERKT_DpOT0_
aHc:_set_period_ft2
tM:__ZN8ViewportD0Ev
F$b:__ZL10DumpNumberdP9DumpState
Gyc:_ps_mask_table_ensure
bXa:__ZN17AlertDialogBinder4showEP9lua_State
Fba:__ZNK6Sprite5widthEv
XBc:_FT_Request_Size
hY:__ZN9TextField14createGraphicsEv
mzd:__ZNSt3__26locale5__imp7installINS_14codecvt_bynameIcc11__mbstate_tEEEEvPT_
nrb:_g_registerEnterFrameCallback
Cxd:__ZNSt3__214codecvt_bynameIcc11__mbstate_tEC2ERKNS_12basic_stringIcNS_11char_traitsIcEENS_9allocatorIcEEEEj
T$c:_setstate
Gqa:__ZN21GGSampleOpenALManager7ChannelD2Ev
KLb:_encode_mcu_AC_refine_163
nAb:_png_do_unshift
KZa:__ZN17ApplicationBinder16getLogicalBoundsEP9lua_State
AEc:_xlat_volfx
ouc:_cf2_arrstack_setCount
bXb:_lua_gettop
Fk:__embind_register_integer
nIa:__ZN16b2ParticleSystem19CompareTriadIndicesERKNS_5TriadES2_
cN:__ZN7TextureD2Ev
TXc:___fseeko
Sn:_boxColor
YUd:mftCall_iiiiid
xn:_alcGetIntegerv
j5c:_wcsncpy
lYc:_readlink
rPc:_alphasort
wX:__ZN11Application12removeTickerEP6Ticker
bT:__ZN8FontBase11ChunkLayoutD2Ev
bFb:_png_set_text_compression_level
gkd:__ZNSt3__214__num_put_base18__identify_paddingEPcS1_RKNS_8ios_baseE
RGc:_copy_channel
lnd:__ZNKSt3__210moneypunctIcLb1EE13do_neg_formatEv
Q6b:__ZL12getboolfieldP9lua_StatePKc
Bta:__ZNSt3__26__treeINS_12__value_typeIm8UiDialogEENS_19__map_value_compareImS3_NS_4lessImEELb1EEENS_9allocatorIS3_EEE16__construct_nodeIJRKNS_21piecewise_construct_tENS_5tupleIJRKmEEENSF_IJEEEEEENS_10unique_ptrINS_11__tree_nodeIS3_PvEENS_22__tree_node_destructorINS8_ISN_EEEEEEDpOT_
_y:_glReadPixels
Fod:__ZNSt3__214__ptr_in_rangeIcEEbPKT_S3_S3_
Swb:_png_reset_zstream
C7:__ZNSt3__26vectorIP5TimerNS_9allocatorIS2_EEE8allocateEj
i2c:___ftello_unlocked
gDb:_png_get_uint_32
Dca:__ZN6Sprite3getEiP7GStatus
DV:__ZNK3Dib5to888Ev
OOd:__ZNSt10bad_typeidD0Ev
Yia:__ZL8cubic_toP12reduced_pathffffffff
Rvc:_cff_parser_run
JQb:__ZN11CPVRTStringaSEc
uvc:_cf2_glyphpath_hintPoint
k2:__ZN11TTTextFieldC2EP11ApplicationP6TTFontPKcS5_PN8FontBase20TextLayoutParametersE
xLd:__ZNKSt3__212_GLOBAL__N_114initial_stringINS_12basic_stringIwNS_11char_traitsIwEENS_9allocatorIwEEEExLb0EEclEv
Dia:__ZL15kh_put_vector4fP13kh_vector4f_t8vector4fPi
wQd:__ZN10__cxxabiv112_GLOBAL__N_118parse_expr_primaryINS0_2DbEEEPKcS4_S4_RT_
__c:_ns_get32
Xx:_glFrontFace
pNd:__ZNSt3__218__hidden_allocatorINS_4pairIPNS_18condition_variableEPNS_5mutexEEEE8allocateEj
hMd:__ZNSt3__212strstreambufC2Ei
y7c:__ZNSt3__218__insertion_sort_3IRNS_6__lessIhhEEPhEEvT0_S5_T_
whb:__ZN9g_private12TimerManager4tickEv
Kbc:_bc_poolsize
Wbc:_frame_free_toc
n_c:_if_nametoindex
Kzd:__ZNSt3__26locale5__impC2ERKS1_
gvc:_cf2_arrstack_clear
_Da:__ZN16b2ParticleSystem25FreeUserOverridableBufferIjEEvPNS_21UserOverridableBufferIT_EE
xba:__ZNSt3__214__split_bufferIP7Matrix4RNS_9allocatorIS2_EEEC2EjjS5_
tka:__ZNSt3__214__split_bufferINS_4pairINS_12basic_stringIcNS_11char_traitsIcEENS_9allocatorIcEEEEfEERNS5_IS8_EEEC2EjjSA_
VDb:_png_write_cHRM_fixed
zPd:__ZNSt3__212basic_stringIcNS_11char_traitsIcEEN10__cxxabiv112_GLOBAL__N_112malloc_allocIcEEE6appendEPKcj
l7b:__ZL9dooptionsP9lua_Statei
Vbc:_INT123_frame_reset
m0a:__ZN9b2Contact11SetFrictionEf
hgb:__ZNSt3__214__split_bufferIPNS_12basic_stringIcNS_11char_traitsIcEENS_9allocatorIcEEEERNS4_IS7_EEED2Ev
Iqa:__ZNSt3__26__treeIPN21GGSampleOpenALManager7ChannelENS_4lessIS3_EENS_9allocatorIS3_EEE4findIS3_EENS_15__tree_iteratorIS3_PNS_11__tree_nodeIS3_PvEEiEERKT_
p5a:__ZN20EventContactListener10EndContactEP16b2ParticleSystemii
py:_glGetProgramiv
Qid:__ZNSt3__29__num_getIcE17__stage2_int_loopEciPcRS2_RjcRKNS_12basic_stringIcNS_11char_traitsIcEENS_9allocatorIcEEEEPjRSD_S2_
SFb:_get_dqt
vCc:_ft_add_renderer
cz:_glScissor
iQb:__ZNK11CPVRTString17find_first_not_ofEcj
IXd:_glUniform1i__wrapper
mcd:__ZNSt3__29basic_iosIcNS_11char_traitsIcEEE8setstateEj
Csa:__ZNK10emscripten8internal12WithPoliciesIJEE11ArgTypeListIJiNS_3valES4_RS4_S4_S4_S4_iiiEE8getCountEv
Seb:___cxx_global_var_init_2_226
_$:__ZN9ParameteraSERKS_
Ixd:__ZNSt3__214codecvt_bynameIDic11__mbstate_tEC2EPKcj
pQc:_scalbn
HDc:_convert_endian
M5a:__ZN15TextFieldBinder8destructEP9lua_State
ABa:__ZN15b2DistanceInputC2Ev
q1:__ZNSt3__26__treeINS_12__value_typeIiNS_6vectorIPN9MovieClip5FrameENS_9allocatorIS5_EEEEEENS_19__map_value_compareIiS9_NS_4lessIiEELb1EEENS6_IS9_EEE25__emplace_unique_key_argsIiJRKNS_21piecewise_construct_tENS_5tupleIJRKiEEENSK_IJEEEEEENS_4pairINS_15__tree_iteratorIS9_PNS_11__tree_nodeIS9_PvEEiEEbEERKT_DpOT0_
nF:_strftime_l
K7c:__ZNSt3__218__insertion_sort_3IRNS_6__lessIttEEPtEEvT0_S5_T_
mSb:___gl_pqSortExtractMin
mvd:__ZNSt3__210__time_getC2ERKNS_12basic_stringIcNS_11char_traitsIcEENS_9allocatorIcEEEE
FHb:_get_byte
tja:__ZN6Path2D7setPathEPK6PrPath
bQa:__ZN15b2ParticleColor3SetERK7b2Color
vl:__exit
WAc:_FT_Stream_New
Eyc:_ps_mask_ensure
H4c:_wcstoumax
ZBc:_FT_Set_Pixel_Sizes
wFb:_consume_markers
k1b:__ZL7l_allocPvS_jj_1817
EWc:_dup2
jYb:__ZL8f_parserP9lua_StatePv
Qic:_tt_cmap4_char_map_linear
yM:__ZN7Matrix43setEffffffffffffffffNS_4TypeE
oS:__ZN15MyTexturePacker6offsetEi
Bp:_emscripten_destroy_worker
gsb:__cleanup
RZa:__ZN17ApplicationBinder14getOrientationEP9lua_State
Jhd:__ZNSt3__28ios_base4InitC2Ev
ROa:__ZN15b2SlabAllocatorI16b2ParticleHandleE8AllocateEv
aLc:_csqrtf
kW:__ZNK11Application11orientationEv
ZEa:__ZN16b2ParticleSystem16ReallocateBufferIP16b2ParticleHandleEEPT_PNS_21UserOverridableBufferIS3_EEiib
Eec:_mpg123_decoder
D1a:__ZN12Box2DBinder225b2MouseJoint_setFrequencyEP9lua_State
d1c:_add_icase_literals
iId:__ZNSt3__212basic_stringIwNS_11char_traitsIwEENS_9allocatorIwEEE6assignERKS5_jj
i2b:__ZL15db_getmetatableP9lua_State
UZa:__ZN17ApplicationBinder20setLogicalDimensionsEP9lua_State
yPb:__ZN11CPVRTString6appendEPKc
cPc:___tolower_l
Ya:ftCall_iiiiiiiiiii
tSd:___cxa_guard_release
FAc:_ft_hash_str_init
vwc:_cff_builder_init
FHc:_load_prologue
D7c:__ZNSt3__27__sort5IRNS_6__lessIssEEPsEEjT0_S5_S5_S5_S5_T_
iUa:__ZN14ViewportBinder6lookAtEP9lua_State
Awa:__ZN15b2ContactFilterD2Ev
KEb:_png_write_filtered_row
z$b:__ZL10DumpStringPK7TStringP9DumpState
nV:__ZNSt3__26__treeINS_12__value_typeIiN4Font12TextureGlyphEEENS_19__map_value_compareIiS4_NS_4lessIiEELb1EEENS_9allocatorIS4_EEE5clearEv
l2b:__ZL10db_sethookP9lua_State
pmc:_ft_smooth_render
BHd:__ZNSt3__212basic_stringIwNS_11char_traitsIwEENS_9allocatorIwEEE9__grow_byEjjjjjj
Mzd:__ZNSt3__26locale5__impC2ERKS1_S3_i
QHa:__ZN15b2QueryCallbackD0Ev
Pjc:_tt_face_load_bdf_props
Mwd:__ZNSt3__2L31checked_string_to_wchar_convertERwPKcP15__locale_struct
JE:_rotozoomSurface
vVa:__ZN11AudioBinder15Sound_getLengthEP9lua_State
AXb:_lua_pushnil
fqb:__ZNSt3__23mapINS_12basic_stringIcNS_11char_traitsIcEENS_9allocatorIcEEEE8FileInfoNS_4lessIS6_EENS4_INS_4pairIKS6_S7_EEEEEixEOS6_
MIb:_merged_2v_upsample
AHd:__ZNSt3__212basic_stringIwNS_11char_traitsIwEENS_9allocatorIwEEE6appendEjw
gmc:_gray_cubic_to
Una:__ZNSt3__26__treeINS_12__value_typeINS_12basic_stringIcNS_11char_traitsIcEENS_9allocatorIcEEEE13GGAudioLoaderEENS_19__map_value_compareIS7_S9_NS_4lessIS7_EELb1EEENS5_IS9_EEE16__construct_nodeIJRKNS_21piecewise_construct_tENS_5tupleIJOS7_EEENSK_IJEEEEEENS_10unique_ptrINS_11__tree_nodeIS9_PvEENS_22__tree_node_destructorINS5_ISR_EEEEEEDpOT_
_wa:__Z19b2ClipSegmentToLineP12b2ClipVertexPKS_RK6b2Vec2fi
hy:_glGetAttribLocation
aGd:__ZNKSt3__212basic_stringIcNS_11char_traitsIcEENS_9allocatorIcEEE7compareEjjRKS5_jj
qSb:_DoneEdgeDict
o7:__ZNSt3__26__treeIP5TimerNS_4lessIS2_EENS_9allocatorIS2_EEE14__erase_uniqueIS2_EEjRKT_
g8a:__ZN12SpriteBinder13localToGlobalEP9lua_State
amc:_gray_hline
q6a:__ZN14FontBaseBinder10layoutTextEP9lua_State
rdd:__ZNSt3__29basic_iosIwNS_11char_traitsIwEEE9set_rdbufEPNS_15basic_streambufIwS2_EE
zMc:___crypt_md5
dPb:__ZL10DecompressP17AMTC_BLOCK_STRUCTiiiiPh
Fyc:_ps_mask_table_alloc
bLd:__ZNSt3__29to_stringEf
vjb:_gtexture_setCachingEnabled
kO:__ZN12GBitmapArray11setPositionEiff
sLd:__ZNSt3__212_GLOBAL__N_19as_stringINS_12basic_stringIwNS_11char_traitsIwEENS_9allocatorIwEEEEPFiPwjPKwzElEET_T0_SD_PKNSD_10value_typeET1_
jdb:__ZN14LuaApplication12clearBuffersEv
XK:__ZNKSt3__26__treeINS_12__value_typeIiNS_6vectorIP8SlotBaseNS_9allocatorIS4_EEEEEENS_19__map_value_compareIiS8_NS_4lessIiEELb1EEENS5_IS8_EEE4findIiEENS_21__tree_const_iteratorIS8_PNS_11__tree_nodeIS8_PvEEiEERKT_
JDd:__ZNSt3__212basic_stringIcNS_11char_traitsIcEENS_9allocatorIcEEE27__invalidate_iterators_pastEj
eFb:_png_set_text_compression_window_bits
uMb:_sep_downsample
eSc:_gettext
ird:__ZNKSt3__28numpunctIwE16do_thousands_sepEv
$Rb:___gl_meshMakeEdge
L4c:_index
Q:Math_imul
Dg:_TTF_FontAscent
G1a:__ZN12Box2DBinder228b2MouseJoint_getDampingRatioEP9lua_State
w$c:___dns_doqueries
HYc:_getword
vca:__ZN9Transform11setScaleXYZEfff
Yca:__ZNK9Transform4refZEv
IUa:__ZN18RenderTargetBinder6createEP9lua_State
Qzc:_ft_stroke_border_grow
mzb:_png_get_PLTE
SYc:_munlockall
nSa:__ZNSt3__26__treeINS_12__value_typeINS_12basic_stringIcNS_11char_traitsIcEENS_9allocatorIcEEEEP11ProfileInfoEENS_19__map_value_compareIS7_SA_NS_4lessIS7_EELb1EEENS5_ISA_EEE12__find_equalIS7_EERPNS_16__tree_node_baseIPvEERPNS_15__tree_end_nodeISL_EERKT_
EFc:_xmp_play_frame
H1a:__ZN12Box2DBinder230b2PulleyJoint_getGroundAnchorAEP9lua_State
SDc:_instrument_name
ETd:runPostSets53
v4c:_wcstof
y4c:_wcstod
dNc:_out
Q0a:__ZNK7Matrix43getEv
Kc:ftCall_viiiiiiiiiiiiiii
F4c:_wcstol
Wmc:_af_latin_align_serif_edge
wo:_eglGetConfigAttrib
aLb:_emit_marker
gXa:__ZN13GGAlertDialog10callback_sEiPvS0_
Hvc:_cf2_computeDarkening
FQb:__ZN11CPVRTString4swapERS_
zKd:__ZNSt3__24stodERKNS_12basic_stringIcNS_11char_traitsIcEENS_9allocatorIcEEEEPj
Gjc:_tt_cmap14_def_char_count
GAb:_png_handle_unknown
NAb:_png_handle_iCCP
XAa:__ZNK6b2Stat8GetCountEv
dg:_SDL_ThreadID
Iu:_emscripten_set_mousedown_callback
l0:__ZNK9EventTypeI15EnterFrameEventE2idEv
XIb:_pass2_no_dither
Zya:__ZNK12b2MotorJoint10GetAnchorAEv
rLb:_jinit_c_prep_controller
oaa:__ZNSt3__214__split_bufferIPPK6SpriteNS_9allocatorIS4_EEED2Ev
Tpd:__ZNKSt3__27codecvtIwc11__mbstate_tE13do_max_lengthEv
Kta:_gui_hide
TUa:__ZN11AudioBinder17SoundChannel_stopEP9lua_State
eKa:__ZNSt3__27__sort5IRNS_6__lessIN16b2ParticleSystem5ProxyES3_EEPS3_EEjT0_S7_S7_S7_S7_T_
mRd:__ZNSt3__212basic_stringIcNS_11char_traitsIcEEN10__cxxabiv112_GLOBAL__N_112malloc_allocIcEEE9push_backEc
VXa:__ZN13GGGeolocationD2Ev
Qjb:__ZNSt3__26__treeINS_12__value_typeImPN9g_private19RenderTargetElementEEENS_19__map_value_compareImS5_NS_4lessImEELb1EEENS_9allocatorIS5_EEE25__emplace_unique_key_argsImJRKNS_21piecewise_construct_tENS_5tupleIJRKmEEENSH_IJEEEEEENS_4pairINS_15__tree_iteratorIS5_PNS_11__tree_nodeIS5_PvEEiEEbEERKT_DpOT0_
WJd:__ZNSt3__24stoiERKNS_12basic_stringIwNS_11char_traitsIwEENS_9allocatorIwEEEEPji
AVb:__ZL5ArithP9lua_StateP10lua_TValuePKS1_S4_3TMS
RYb:__ZL6ifstatP8LexStatei
Ehc:_FT_Outline_New_Internal
dfd:__ZNSt3__213basic_istreamIcNS_11char_traitsIcEEE3getERNS_15basic_streambufIcS2_EEc
Ena:__ZNSt3__26__treeINS_12__value_typeIj7PointerEENS_19__map_value_compareIjS3_NS_4lessIjEELb1EEENS_9allocatorIS3_EEE5eraseENS_21__tree_const_iteratorIS3_PNS_11__tree_nodeIS3_PvEEiEE
fqd:__ZNSt3__2L13utf16_to_utf8EPKtS1_RS1_PhS3_RS3_mNS_12codecvt_modeE
pWc:_a_ctz_64
cla:__ZN18ApplicationManagerD2Ev
c6b:__ZL11str_reverseP9lua_State
X5:__ZN5Timer4stopEv
Ucb:__ZN8MemCache5ResetEv
XV:__ZNSt3__213__vector_baseIP11GReferencedNS_9allocatorIS2_EEED2Ev
dVb:__ZL11unlinkupvalP5UpVal
Qo:_eglWaitNative
Gtb:__Z20setResourceDirectoryPKc
GPd:__ZN10__cxxabiv112_GLOBAL__N_15arenaILj4096EE17pointer_in_bufferEPc
xIb:_int_upsample
OMa:__ZNK6b2Body13GetLocalPointERK6b2Vec2
CSb:_AddRightEdges
Ypc:_Write_CVT_Stretched
oGd:__ZNSt3__212basic_stringIwNS_11char_traitsIwEENS_9allocatorIwEEE6__zeroEv
ag:_SDL_ShowCursor
xZa:__ZN17ApplicationBinder14getDeviceWidthEP9lua_State
acb:__ZN16EventTypeVisitor5visitEP13CompleteEvent
m4:__ZN5ShapeD0Ev
upa:__ZNSt3__26__treeINS_12__value_typeImPN12_GLOBAL__N_121GGStreamOpenALManager7ChannelEEENS_19__map_value_compareImS6_NS_4lessImEELb1EEENS_9allocatorIS6_EEE16__insert_node_atEPNS_15__tree_end_nodeIPNS_16__tree_node_baseIPvEEEERSI_SI_
Dtd:__ZNKSt3__220__codecvt_utf8_utf16IDiE13do_max_lengthEv
Scb:__ZN21StageOrientationEventC2ERK9EventTypeIS_E24gapplication_Orientation
rra:__Z13getDeviceInfov
BKd:__ZNSt3__212_GLOBAL__N_115as_float_helperIdNS_12basic_stringIcNS_11char_traitsIcEENS_9allocatorIcEEEEPFdPKcPPcEEET_RKS7_RKT0_PjT1_
bY:__ZNK9TextField13letterSpacingEv
Gab:__ZN4SlotI13TimerListener10TimerEventE6equalsEPK8SlotBase
Epa:__ZNSt3__23setIPN12_GLOBAL__N_121GGStreamOpenALManager7ChannelENS_4lessIS4_EENS_9allocatorIS4_EEED2Ev
JVd:mftCall_viiiddddidii
y0:__ZNK4SlotI9MovieClip15EnterFrameEventE2t1Ev
_Qd:__ZN10__cxxabiv112_GLOBAL__N_132parse_unresolved_qualifier_levelINS0_2DbEEEPKcS4_S4_RT_
byb:_png_destroy_read_struct
L5c:_cfmakeraw
__:__ZL14easeInOutCubicd
pCd:__ZNSt3__219__shared_mutex_base8try_lockEv
sH:FUNCTION_TABLE_iiiii
ihb:__ZN9g_private12TimerManager4stopEi
Nhc:_Render_Glyph
oNd:__ZNSt3__214__split_bufferINS_4pairIPNS_18condition_variableEPNS_5mutexEEERNS_18__hidden_allocatorIS6_EEED2Ev
XM:__GLOBAL__sub_I_stopwatch_cpp
Xbd:__ZThn8_NSt3__214basic_iostreamIcNS_11char_traitsIcEEED0Ev
UIb:_prescan_quantize
dQ:__ZNSt3__214__split_bufferIN7TileMap6TileIdERNS_9allocatorIS2_EEED2Ev
oT:__ZN4FontD2Ev
AIa:__ZNSt3__213__upper_boundIRPFbRKN16b2ParticleSystem5TriadES4_EPS2_S2_EET0_S9_S9_RKT1_T_
Gka:__ZNSt3__26__treeINS_12__value_typeINS_12basic_stringIcNS_11char_traitsIcEENS_9allocatorIcEEEENS_6vectorIhNS5_IhEEEEEENS_19__map_value_compareIS7_SB_NS_4lessIS7_EELb1EEENS5_ISB_EEE5clearEv
Nvd:__ZNSt3__28time_putIwNS_19ostreambuf_iteratorIwNS_11char_traitsIwEEEEEC2EPKcj
Ypd:__ZNKSt3__27codecvtIDsc11__mbstate_tE6do_outERS1_PKDsS5_RS5_PcS7_RS7_
Pmd:__ZNSt3__215time_put_bynameIcNS_19ostreambuf_iteratorIcNS_11char_traitsIcEEEEED0Ev
FC:_llvm_minnum_f64
Pfb:_md5_process
WLa:__ZN6b2Body14GetFixtureListEv
YUc:_lrintl
nmb:__ZNSt3__26__treeINS_12__value_typeINS_12basic_stringIcNS_11char_traitsIcEENS_9allocatorIcEEEE13GGAudioLoaderEENS_19__map_value_compareIS7_S9_NS_4lessIS7_EELb1EEENS5_IS9_EEE7destroyEPNS_11__tree_nodeIS9_PvEE
Dvd:__ZNSt3__28time_putIcNS_19ostreambuf_iteratorIcNS_11char_traitsIcEEEEEC2Ej
Mka:__ZNKSt3__26__treeINS_12__value_typeINS_12basic_stringIcNS_11char_traitsIcEENS_9allocatorIcEEEENS_6vectorIhNS5_IhEEEEEENS_19__map_value_compareIS7_SB_NS_4lessIS7_EELb1EEENS5_ISB_EEE10__root_ptrEv
dyb:_png_destroy_png_struct
dD:_log
Pvc:_cf2_getLanguageGroup
Fld:__ZNKSt3__28time_getIwNS_19istreambuf_iteratorIwNS_11char_traitsIwEEEEE9__get_dayERiRS4_S4_RjRKNS_5ctypeIwEE
wW:__ZN11Application21correctTouchPositionsEP17ginput_TouchEvent
$Wc:___getopt_long
_5a:__ZN12TTFontBinderC2EP9lua_State
Dab:__ZN15EventDispatcher16addEventListenerI10TimerEvent13TimerListenerS1_EEvRK9EventTypeIT_EPT0_MS8_FvPT1_E
cZc:_mbrtoc16
yua:_JSNative_enqueueEvent
JYc:___madvise
kZc:_wcstombs
wNa:__ZN15b2MotorJointDef10InitializeEP6b2BodyS1_
_wc:_cff_index_init
tQ:__ZNSt3__25dequeI5ColorNS_9allocatorIS1_EEE19__add_back_capacityEv
Wjb:__ZN9g_private14TextureManager18RenderTargetGetFBOEm
edc:_INT123_init_layer12_table
zEc:_itsex_decompress8
PJb:_jpeg_mem_src
sOc:___isspace_l
Fd:_Mix_ReserveChannels
Bqa:__ZNSt3__26__treeINS_12__value_typeImPN21GGSampleOpenALManager5SoundEEENS_19__map_value_compareImS5_NS_4lessImEELb1EEENS_9allocatorIS5_EEE16__construct_nodeIJRKNS_21piecewise_construct_tENS_5tupleIJRKmEEENSH_IJEEEEEENS_10unique_ptrINS_11__tree_nodeIS5_PvEENS_22__tree_node_destructorINSA_ISP_EEEEEEDpOT_
$6b:__ZL4setnP9lua_State
V7a:__ZN12SpriteBinder9setScaleZEP9lua_State
Sx:_glEndQueryEXT
Pl:_acos
Eoa:__ZN12_GLOBAL__N_121GGStreamOpenALManager19SoundCreateFromFileEPKcRK13GGAudioLoaderP12gaudio_Error
oja:__ZL13init_segmentsv
ild:__ZNSt3__28time_getIwNS_19istreambuf_iteratorIwNS_11char_traitsIwEEEEED2Ev
fpc:_FT_List_Add
tDb:_png_set_iCCP
XFd:__ZNKSt3__212basic_stringIcNS_11char_traitsIcEENS_9allocatorIcEEE7compareERKS5_
W3a:__ZN6b2Body19ApplyAngularImpulseEfb
Hob:_gaudio_ChannelGetPosition
rNa:__ZN15b2RevoluteJoint11EnableLimitEb
Zic:_tt_cmap8_char_next
$hd:__ZNSt3__211__stdoutbufIcE8overflowEi
IMa:__ZNK12b2MouseJoint11GetMaxForceEv
dFb:_png_set_text_compression_strategy
lW:__ZN11Application9mouseDownEiiii
HQ:__Z14colorStackSizev
cXb:_lua_settop
jCc:_FT_Get_Name_Index
nHb:_decode_mcu_DC_refine_2
OYc:___mprotect
Oob:_gaudio_ChannelSetPitch
SCb:_make_rgb_colormap
eQd:__ZNSt3__212basic_stringIcNS_11char_traitsIcEEN10__cxxabiv112_GLOBAL__N_112malloc_allocIcEEE7replaceEjjPKc
Pdb:_block_from_ptr
_T:__ZNSt3__26vectorIiNS_9allocatorIiEEE6resizeEj
qfd:__ZNSt3__213basic_istreamIwNS_11char_traitsIwEEEC2EPNS_15basic_streambufIwS2_EE
JCa:__ZNK9b2Fixture8IsSensorEv
Wdd:__ZNSt3__215basic_streambufIwNS_11char_traitsIwEEE10pubseekoffExNS_8ios_base7seekdirEj
Vvd:__ZNKSt3__210moneypunctIcLb0EE13thousands_sepEv
qL:__ZN5Stage9mouseMoveEiiiiffff
z7a:__ZN12SpriteBinder19getLayoutParametersEP9lua_State
h3b:__ZL6f_readP9lua_State
mf:_SDL_JoystickNumButtons
_S:__ZNSt3__26vectorIN8FontBase11ChunkLayoutENS_9allocatorIS2_EEE21__push_back_slow_pathIRKS2_EEvOT_
FF:_uuid_clear
DVb:__ZL10call_binTMP9lua_StatePK10lua_TValueS3_PS1_3TMS
Gm:_alGetSourcefv
vZc:___dn_expand
tza:__ZNK13b2PulleyJoint17GetReactionTorqueEf
KSa:__ZN12ScreenBinder6createEP9lua_State
Nyd:__ZNSt3__212_GLOBAL__N_14makeINS_8messagesIcEEjEERT_T0_
kB:_glfwWaitEvents
Ytb:_deflate_stored
yfb:_Cipher
pjd:__ZNKSt3__27num_getIcNS_19istreambuf_iteratorIcNS_11char_traitsIcEEEEE17__do_get_unsignedItEES4_S4_S4_RNS_8ios_baseERjRT_
Tdc:_INT123_synth_4to1_real
Vpc:_Read_CVT
Maa:__ZN6Sprite14swapChildrenAtEiiP7GStatus
rTc:_dd_mul
B3b:__ZL3LleP9lua_State
Jyd:__ZNSt3__212_GLOBAL__N_14makeINS_8time_putIcNS_19ostreambuf_iteratorIcNS_11char_traitsIcEEEEEEjEERT_T0_
qb:ftCall_vidddddd
pS:__ZNSt3__26vectorI8RectSizeNS_9allocatorIS1_EEE21__push_back_slow_pathIRKS1_EEvOT_
cSa:__ZNSt3__26__treeINS_12__value_typeIP7ClosureP11ProfileInfoEENS_19__map_value_compareIS3_S6_NS_4lessIS3_EELb1EEENS_9allocatorIS6_EEE5clearEv
mFd:__ZNSt3__212basic_stringIcNS_11char_traitsIcEENS_9allocatorIcEEE7replaceIPKcEENS_9enable_ifIXsr19__is_input_iteratorIT_EE5valueERS5_E4typeENS_11__wrap_iterIS8_EESF_SA_SA_
jEa:__ZN16b2ParticleSystem10FreeBufferINS_4PairEEEvPPT_i
k9a:__ZN12MatrixBinder6getM11EP9lua_State
J0:__ZN9MovieClip9addChild2EP6Sprite
Cuc:_cf2_glyphpath_lineTo
k1c:_tre_tag_order
f1b:_luaL_unref
I6:__ZNSt3__26__treeINS_12__value_typeIdNS_6vectorIP5TimerNS_9allocatorIS4_EEEEEENS_19__map_value_compareIdS8_NS_4lessIdEELb1EEENS5_IS8_EEEC2ERKSC_
Lgb:__ZNSt3__26__treeINS_12__value_typeIiN9g_private12TimerManager12TimerElementEEENS_19__map_value_compareIiS5_NS_4lessIiEELb1EEENS_9allocatorIS5_EEEC2ERKS9_
sYa:__ZN11GGUrlLoader16getOrCreateEventEPKcS1_
kva:__ZmiRK6b2Vec2S1_
AYc:_is_lost_conn
Rh:___execvpe
Q3a:__ZNK6b2Body15GetGravityScaleEv
lq:_emscripten_glBindBuffer
iPa:__ZN15b2ParticleColorC2Ev
zka:__ZNSt3__26__treeINS_12__value_typeINS_12basic_stringIcNS_11char_traitsIcEENS_9allocatorIcEEEENS_6vectorIhNS5_IhEEEEEENS_19__map_value_compareIS7_SB_NS_4lessIS7_EELb1EEENS5_ISB_EEE5eraseENS_21__tree_const_iteratorISB_PNS_11__tree_nodeISB_PvEEiEE
dra:__ZNSt3__26__treeINS_12__value_typeImPN21GGSampleOpenALManager5SoundEEENS_19__map_value_compareImS5_NS_4lessImEELb1EEENS_9allocatorIS5_EEE5eraseENS_21__tree_const_iteratorIS5_PNS_11__tree_nodeIS5_PvEEiEE
ezd:__ZNSt3__26locale7classicEv
XD:_pthread_getattr_np
loa:__ZN12_GLOBAL__N_121GGStreamOpenALManager18ChannelSetPositionEmj
cW:__ZN11Application16configureFrustumEfff
k8b:__ZN8pystring6rindexERKNSt3__212basic_stringIcNS0_11char_traitsIcEENS0_9allocatorIcEEEES8_ii
zfa:__ZN17ogl2ShaderProgram8activateEv
lAb:_png_do_expand_16
Mjc:_tt_get_cmap_info
Vld:__ZNKSt3__215time_get_bynameIcNS_19istreambuf_iteratorIcNS_11char_traitsIcEEEEE13do_date_orderEv
uWd:_pthread_getspecific__wrapper
wec:_INT123_synth_4to1_mono
d3:__ZNKSt3__26__treeINS_12__value_typeIiN6TTFont9GlyphDataEEENS_19__map_value_compareIiS4_NS_4lessIiEELb1EEENS_9allocatorIS4_EEE10__root_ptrEv
ync:_FT_Get_Char_Index
_Wb:_luaE_newthread
XVb:__ZL6newkeyP9lua_StateP5TablePK10lua_TValue
Njb:__ZN9g_private14TextureManager18RenderTargetCreateEiiii
_rb:_g_funlockfile
$Sc:_exp10f
HZc:_freeaddrinfo
yGb:_jpeg_input_complete
wPc:_close
Hyb:_png_get_y_offset_microns
_M:__ZN9StopWatch5clockEv
jz:_glStencilOp
UQa:__ZL9yieldHookP9lua_StateP9lua_Debug
Zr:_emscripten_glGetShaderSource
Fz:_glUniform4i
Dz:_glUniform4f
Hnd:__ZNKSt3__210moneypunctIwLb1EE13do_neg_formatEv
xtd:__ZNKSt3__220__codecvt_utf8_utf16IDiE6do_outER11__mbstate_tPKDiS5_RS5_PcS7_RS7_
hFb:_png_set_write_user_transform_fn
iGb:_self_destruct
mYc:_setdomainname
pec:_INT123_synth_1to1_8bit_mono
O9:__ZNK14ColorTransform15alphaMultiplierEv
QP:__ZeqRK8Matrix2DS1_
bfd:__ZNSt3__213basic_istreamIcNS_11char_traitsIcEEE3getEPcic
Z3a:__ZN6Binder11setInstanceEiPv
b8:__ZN14TextureManagerC2EP11Application
HXb:_lua_pushcclosure
M$a:__ZL11tableToVec2P9lua_Statei
Jod:__ZNSt3__29money_getIwNS_19istreambuf_iteratorIwNS_11char_traitsIwEEEEED2Ev
U0c:_tre_add_tag_right
x9b:__ZN6snappy18SnappyDecompressorD2Ev
q1b:__ZL14luaB_corunningP9lua_State
B2b:__ZL10createmetaP9lua_State
fib:_gtexture_get_engine
qZb:_luaK_exp2val
hN:__ZN12SplashScreenD0Ev
R6c:_setuid
yE:_pthread_sigmask
Cpc:_tt_interpolate_deltas
Oab:__ZN13TimerListenerD0Ev
z3c:_scanf
zZa:__ZN17ApplicationBinder7vibrateEP9lua_State
Xgb:__ZNSt3__23mapIiN9g_private12TimerManager12TimerElementENS_4lessIiEENS_9allocatorINS_4pairIKiS3_EEEEEixERS8_
gTa:__ZN15ParticlesBinder16setParticleAngleEP9lua_State
Ppa:__ZN17GGStreamInterfaceD0Ev
gMb:_encode_mcu_DC_refine
I7:__ZNSt3__214__split_bufferIPNS_4pairIP5TimeriEERNS_9allocatorIS5_EEEC2EjjS8_
vB:_glutGet
Z2:__ZNSt3__23mapIiN6TTFont9GlyphDataENS_4lessIiEENS_9allocatorINS_4pairIKiS2_EEEEEixERS7_
nlc:_ft_cmap_done_internal
NGc:_get_subinstrument
$sc:_TT_Init_Glyph_Loading
n0b:_luaC_freeall
ofa:__ZN16ogl2ShaderBuffer10readPixelsEiiiiN13ShaderTexture6FormatENS0_7PackingEPv
pw:_getaddrinfo
Wwc:_cff_sid_to_glyph_name
KYb:_luaX_token2str
LC:_llvm_mono_store_i8_p0i8
D$c:___dns_count_addrs
rWd:_pthread_cond_destroy__wrapper
JWc:_uname
jEd:__ZNSt3__212basic_stringIcNS_11char_traitsIcEENS_9allocatorIcEEE26__invalidate_all_iteratorsEv
E1:__ZN9MovieClip11clearActionEi
ULd:__ZTv0_n12_NSt3__210istrstreamD1Ev
dd:_Mix_FadeInMusicPos
sk:__embind_register_bool
Ktb:_z_deflateInit_
bQb:__ZNK11CPVRTStringneERKS_
Thb:__ZL16term_destinationP20jpeg_compress_struct
Q$c:_lcg64
Yoa:__ZNSt3__23mapImPN12_GLOBAL__N_121GGStreamOpenALManager5SoundENS_4lessImEENS_9allocatorINS_4pairIKmS4_EEEEEixERS9_
Dfa:__ZN17ogl2ShaderProgram10drawArraysEN13ShaderProgram9ShapeTypeEij
M0b:_luaL_checkany
Mnb:__ZN14GGAudioManager14SoundGetLengthEm
Pud:__ZNKSt3__28time_getIcNS_19istreambuf_iteratorIcNS_11char_traitsIcEEEEE8get_yearES4_S4_RNS_8ios_baseERjP2tm
JBa:__ZN12b2BroadPhase10BufferMoveEi
Jhc:_ft_black_reset
P8b:__ZN8pystring2os4path14basename_posixERKNSt3__212basic_stringIcNS2_11char_traitsIcEENS2_9allocatorIcEEEE
EGb:_prepare_for_output_pass
uVb:_luaD_reallocCI
kcc:_INT123_frame_outs
uqb:__ZNSt3__26__treeINS_12__value_typeIPKciEENS_19__map_value_compareIS3_S4_N8StringId5ltstrELb1EEENS_9allocatorIS4_EEEC2ERKS8_
rjd:__ZNKSt3__27num_getIcNS_19istreambuf_iteratorIcNS_11char_traitsIcEEEEE15__do_get_signedIxEES4_S4_S4_RNS_8ios_baseERjRT_
_ad:__ZNSt3__215basic_streambufIcNS_11char_traitsIcEEE7seekoffExNS_8ios_base7seekdirEj
job:__ZN14GGAudioManager21BackgroundChannelStopEm
Yk:__emval_addMethodCaller
wi:___syscall15
oi:___syscall14
ii:___syscall12
di:___syscall10
Jdd:__ZNSt3__215basic_streambufIcNS_11char_traitsIcEEE4swapERS3_
o$c:_sendmmsg
s4:__ZNSt3__213__vector_baseIP11TextureBaseNS_9allocatorIS2_EEED2Ev
Spc:_tt_size_done_bytecode
src:_Ins_IF
nqb:__ZNKSt3__26__treeINS_12__value_typeIPvP11GReferencedEENS_19__map_value_compareIS2_S5_NS_4lessIS2_EELb1EEENS_9allocatorIS5_EEE4findIS2_EENS_21__tree_const_iteratorIS5_PNS_11__tree_nodeIS5_S2_EEiEERKT_
S1:__ZN10MouseEventD0Ev
lPa:__ZN11b2Transform11SetIdentityEv
JAb:_png_handle_gAMA
jub:_scan_tree
uUc:_lgammaf
eP:__ZN3DibC2EOS_
g1c:_tre_tnfa_run_backtrack
Ggb:__ZN9g_private9StopWatch6resumeEv
Tqc:_Ins_IP
tf:_SDL_LoadBMP
buc:_cf2_font_setup
iCb:_png_set_swap
$jd:__ZNKSt3__27num_putIcNS_19ostreambuf_iteratorIcNS_11char_traitsIcEEEEE6do_putES4_RNS_8ios_baseEcx
bkd:__ZNKSt3__27num_putIcNS_19ostreambuf_iteratorIcNS_11char_traitsIcEEEEE6do_putES4_RNS_8ios_baseEcy
BM:__ZN7Matrix4C2Ev
vEd:__ZNSt3__212basic_stringIcNS_11char_traitsIcEENS_9allocatorIcEEE6appendENS_17basic_string_viewIcS2_EE
tyd:__ZNSt3__212_GLOBAL__N_14makeINS_10moneypunctIwLb0EEEjEERT_T0_
We:_SDL_HasMMX
RCa:__ZNK6b2Body7IsAwakeEv
QYa:__ZN15MovieClipBinder13setGotoActionEP9lua_State
_jd:__ZNKSt3__27num_putIcNS_19ostreambuf_iteratorIcNS_11char_traitsIcEEEEE6do_putES4_RNS_8ios_baseEcl
akd:__ZNKSt3__27num_putIcNS_19ostreambuf_iteratorIcNS_11char_traitsIcEEEEE6do_putES4_RNS_8ios_baseEcm
Qc:ClassHandle_isDeleted
cYc:_access
ckd:__ZNKSt3__27num_putIcNS_19ostreambuf_iteratorIcNS_11char_traitsIcEEEEE6do_putES4_RNS_8ios_baseEcd
kGa:__ZN15b2ContactSolver13StoreImpulsesEv
Zjd:__ZNKSt3__27num_putIcNS_19ostreambuf_iteratorIcNS_11char_traitsIcEEEEE6do_putES4_RNS_8ios_baseEcb
Jnc:_af_cjk_hints_detect_features
FGd:__ZNSt3__212basic_stringIwNS_11char_traitsIwEENS_9allocatorIwEEEC2Ejw
czd:__ZNSt3__26vectorIPNS_6locale5facetENS_15__sso_allocatorIS3_Lj28EEEE8allocateEj
Z0b:_luaL_addlstring
Bha:__ZNSt3__26__treeINS_12__value_typeINS_12basic_stringIcNS_11char_traitsIcEENS_9allocatorIcEEEES7_EENS_19__map_value_compareIS7_S8_NS_4lessIS7_EELb1EEENS5_IS8_EEE16__construct_nodeIJRKNS_21piecewise_construct_tENS_5tupleIJOS7_EEENSJ_IJEEEEEENS_10unique_ptrINS_11__tree_nodeIS8_PvEENS_22__tree_node_destructorINS5_ISQ_EEEEEEDpOT_
Az:_glUniform3fv
qMa:__ZN9b2Fixture8RefilterEv
Yxa:__ZN7b2Joint11ShiftOriginERK6b2Vec2
VC:_llvm_sqrt_f64
Ex:_glDrawArraysInstancedANGLE
qZc:___dns_parse
aDb:_png_set_gamma_fixed
Axc:_ps_unicodes_char_index
n5:__ZN10Tesselator12AddToCleanupEPd
yoc:_tt_driver_done
Bhb:__ZN9g_private12TimerManager15getCurrentCountEi
Ofb:_md5_starts
mCa:__ZNK13b2DynamicTree17ValidateStructureEi
GFb:_read_restart_marker
sB:_glutDestroyWindow
g9b:__ZN6snappy8internalL15FindMatchLengthEPKcS2_S2_
vLb:_jinit_c_coef_controller
pEb:_png_write_pHYs
iyc:_psh_glyph_done
gNd:__ZNSt3__213__vector_baseIPNS_17__assoc_sub_stateENS_18__hidden_allocatorIS2_EEED2Ev
xca:__ZN9Transform12setRotationXEf
Auc:_cf2_stack_popFixed
AJ:__ZNSt3__214__split_bufferItRNS_9allocatorItEEEC2EjjS3_
l9b:__ZN6snappyL18EmitCopyLessThan64EPcji
_6b:__ZL7tremoveP9lua_State
jC:_llvm_eh_exception
hCc:_FT_Face_GetVariantsOfChar
Xq:_emscripten_glDepthMask
pn:_alcCaptureStop
hr:_emscripten_glDrawBuffers
Vxc:_t2_hints_stems
Beb:_align_up
qhd:__ZNSt3__213basic_ostreamIwNS_11char_traitsIwEEEC1Ev
KKd:__ZNSt3__212_GLOBAL__N_115as_float_helperIeNS_12basic_stringIwNS_11char_traitsIwEENS_9allocatorIwEEEEPFePKwPPwEEET_RKNS2_IcNS3_IcEENS5_IcEEEERKT0_PjT1_
vLc:_catanl
DUa:__ZN12ShaderBinder16getEngineVersionEP9lua_State
yDa:__Z16b2MixRestitutionff
qLc:_catanf
tmc:_ft_smooth_render_generic
e5b:__ZL7to_utf8P9lua_StateiPPKc
v3b:__ZL4LnewP9lua_State
Ix:_glDrawBuffers
Cwd:__ZNKSt3__210moneypunctIwLb1EE11frac_digitsEv
B7a:__ZN12SpriteBinder13getLayoutInfoEP9lua_State
Inc:_af_cjk_hints_apply
uGa:__ZN15b2ContactSolverC2EP18b2ContactSolverDef
bwa:__ZN14b2PolygonShapeC2Ev
olb:__ZN6gevent12EventManager10equal_typeINS0_17EventQueueElementEEC2Ei
vGc:_get_lfo_ft2
BBd:__Znaj
DEa:__ZN16b2ParticleSystem34ReallocateInternalAllocatedBuffersEi
nFc:_mixer_voicepos
NXb:_lua_gettable
cQb:__ZNK11CPVRTStringneEPKc
Agb:__Z8drawInfov
KSb:_TopRightRegion
by:_glGenVertexArrays
r8c:__ZNSt3__27__sort5IRNS_6__lessIyyEEPyEEjT0_S5_S5_S5_S5_T_
gEb:_optimize_cmf
sZc:_getlens
d:HEAPU8
jAb:_png_do_chop
jY:__ZNSt3__213__vector_baseI12GraphicsBaseNS_9allocatorIS1_EEED2Ev
NNd:__ZN10__cxxabiv117__class_type_infoD0Ev
rOa:__ZNSt3__214__rotate_rightIPjEET_S2_S2_
fqa:__ZN21GGSampleOpenALManager18ChannelGetPositionEm
TOb:__ZNK10ByteBuffer4sizeEv
Y4b:__ZL13find_in_rangeP11range_tablejj
L6b:__ZL9os_renameP9lua_State
Rv:_endprotoent
G5c:_mkstemp
a6:__ZNSt3__23setIP15EventDispatcherNS_4lessIS2_EENS_9allocatorIS2_EEED2Ev
Lvb:_z_zError
L2b:__ZL8io_inputP9lua_State
F7b:__ZN8pystring12_GLOBAL__N_115reverse_stringsERNSt3__26vectorINS1_12basic_stringIcNS1_11char_traitsIcEENS1_9allocatorIcEEEENS6_IS8_EEEE
q0:__ZNSt3__26__treeINS_12__value_typeIiNS_6vectorIP8SlotBaseNS_9allocatorIS4_EEEEEENS_19__map_value_compareIiS8_NS_4lessIiEELb1EEENS5_IS8_EEE25__emplace_unique_key_argsIiJRKNS_21piecewise_construct_tENS_5tupleIJOiEEENSJ_IJEEEEEENS_4pairINS_15__tree_iteratorIS8_PNS_11__tree_nodeIS8_PvEEiEEbEERKT_DpOT0_
ZOb:__ZN10ByteBuffer3getERi
zzc:_FT_Library_SetLcdFilterWeights
opc:_TT_Goto_CodeRange
cQa:__ZNK15b2ParticleColor8GetColorEv
dza:__ZN12b2MotorJoint23InitVelocityConstraintsERK12b2SolverData
qcc:_INT123_frame_gapless_realinit
yC:_llvm_log2_f64
Zq:_emscripten_glDepthRangef
$ia:__ZL18endpoint_to_centerddddiiPdS_dS_S_S_S_
tTb:_fill_zlib_filefunc64_32_def_from_filefunc32
jIc:___cxx_global_var_init_2364
nwb:_png_warning
wK:__ZN5Stage9mouseDownEiiiiffff
yf:_SDL_LogSetOutputFunction
MR:__ZN6Bitmap9setCoordsEv
lL:__ZNSt3__212__deque_baseIP6SpriteNS_9allocatorIS2_EEE5beginEv
qvc:_cff_lookup_glyph_by_stdcharcode
kMa:__ZN9b2Fixture4DumpEi
yNd:__ZNKSt3__218__hidden_allocatorIPNS_17__assoc_sub_stateEE8max_sizeEv
fpa:__ZNSt3__26__treeINS_12__value_typeImPN12_GLOBAL__N_121GGStreamOpenALManager7ChannelEEENS_19__map_value_compareImS6_NS_4lessImEELb1EEENS_9allocatorIS6_EEE5eraseENS_21__tree_const_iteratorIS6_PNS_11__tree_nodeIS6_PvEEiEE
I1:__ZN13GRenderTargetD2Ev
gq:_emscripten_glActiveTexture
Fxd:__ZNSt3__214codecvt_bynameIwc11__mbstate_tEC2ERKNS_12basic_stringIcNS_11char_traitsIcEENS_9allocatorIcEEEEj
Kia:__ZN12VertexBufferI8vector4fED2Ev
m7a:__ZN12SpriteBinder13removeChildAtEP9lua_State
UNa:__ZNK12b2WheelJoint13GetJointSpeedEv
jDb:_png_set_cHRM_fixed
GI:__ZNK9Particles11extraBoundsEPfS0_S0_S0_
P1b:__ZL13luaB_rawequalP9lua_State
tId:__ZNSt3__212basic_stringIwNS_11char_traitsIwEENS_9allocatorIwEEE6insertENS_11__wrap_iterIPKwEESt16initializer_listIwE
Ttc:_cff_builder_done
fxa:__Z25b2CollidePolygonAndCircleP10b2ManifoldPK14b2PolygonShapeRK11b2TransformPK13b2CircleShapeS6_
_Wa:__ZN17AlertDialogBinderC2EP9lua_State
VO:__ZNSt3__26vectorIN11TexturePack4RectENS_9allocatorIS2_EEE26__swap_out_circular_bufferERNS_14__split_bufferIS2_RS4_EE
ktc:_FT_Get_Glyph_Name
Fsd:__ZNKSt3__215__codecvt_utf16IDsLb0EE10do_unshiftER11__mbstate_tPcS4_RS4_
kc:ftCall_viiiddi
n6c:_getpgid
Jq:_emscripten_glCopyTexSubImage2D
O2:__ZNKSt3__26vectorIN6TTFont8FontFaceENS_9allocatorIS2_EEE8max_sizeEv
oH:FUNCTION_TABLE_ii
CPd:__ZNSt3__213__vector_baseINS_6vectorINS1_IN10__cxxabiv112_GLOBAL__N_111string_pairENS3_11short_allocIS4_Lj4096EEEEENS5_IS7_Lj4096EEEEENS5_IS9_Lj4096EEEED2Ev
B$a:__ZN12Box2DBinder231b2ParticleSystem_createParticleEP9lua_State
Dlb:_gevent_SetFlusher
nNb:_compress_output_182
nH:FUNCTION_TABLE_id
bw:_fabs
ZSa:__ZN15ParticlesBinderC2EP9lua_State
UUd:mftCall_iiddi
c9c:__ZNSt3__218condition_variable4waitERNS_11unique_lockINS_5mutexEEE
Szc:_ft_stroker_inside
SWc:___unlist_locked_file
cOd:__ZN10__cxxabiv112_GLOBAL__N_110construct_Ev
Otb:_putShortMSB
xG:get_first_emval
JJd:__ZNSt3__212basic_stringIwNS_11char_traitsIwEENS_9allocatorIwEEE19__copy_assign_allocERKS5_NS_17integral_constantIbLb0EEE
It:_emscripten_idb_async_delete
tx:_glDeleteVertexArrays
CM:__ZN7Matrix48identityEv
jtc:_tt_face_vary_cvt
PFc:_smix_mono_8bit_nearest
k5b:__ZL10u_posrangePPKcS1_ii
KX:__ZNSt3__214__split_bufferIP11GReferencedRNS_9allocatorIS2_EEED2Ev
nHa:__Z5b2MulRK5b2RotS1_
Syb:_png_get_y_offset_inches
Gba:__ZNK6Sprite6heightEv
Ufd:__ZNSt3__213basic_istreamIwNS_11char_traitsIwEEE3getERw
Ahc:_FT_Vector_Transform
ikc:_ft_mem_strcpyn
zXd:b43
eSb:_MakeVertex
G2a:__ZNSt3__26vectorI6b2Vec2NS_9allocatorIS1_EEE21__push_back_slow_pathIRKS1_EEvOT_
Mtc:_cff_charset_cid_to_gindex
yXd:b42
kT:__ZNSt3__26vectorIN8FontBase11ChunkLayoutENS_9allocatorIS2_EEE26__swap_out_circular_bufferERNS_14__split_bufferIS2_RS4_EEPS2_
rPb:__ZN17CPVRTResourceFile11GetReadPathEv
XGb:_process_data_context_main
VRb:_internal_gluTessNormal
de:_SDL_CreateThread
xQc:_strcasecmp
fwc:_cff_parse_blend
QDd:__ZNKSt3__212basic_stringIcNS_11char_traitsIcEENS_9allocatorIcEEE3endEv
kC:_llvm_eh_selector
Qk:__emscripten_atomic_fetch_and_and_u64
pTb:___gl_pqSortIsEmpty
rE:_pthread_rwlock_wrlock
Xmb:__ZNSt3__26__treeINS_12__value_typeImPN14GGSoundManager7ChannelEEENS_19__map_value_compareImS5_NS_4lessImEELb1EEENS_9allocatorIS5_EEE12__find_equalImEERPNS_16__tree_node_baseIPvEERPNS_15__tree_end_nodeISH_EERKT_
oBb:_png_set_sBIT
lpb:_gaudio_BackgroundChannelRemoveCallbackWithGid
hPa:__ZN13b2ParticleDefC2Ev
F8:__ZN6Sprite13setDimensionsEff
Vkc:_tt_sbit_decoder_load_image
mvc:_cf2_hint_lock
EQb:__ZNK11CPVRTString6substrEjj
Oza:__ZN15b2DistanceJointD0Ev
CEc:_read_bits
kPc:___wctrans_l
pzd:__ZNSt3__26locale5__imp7installINS_14codecvt_bynameIDic11__mbstate_tEEEEvPT_
Tm:_alListeneriv
LMc:___do_des
eba:__ZNSt3__25dequeI7Matrix4NS_9allocatorIS1_EEE8pop_backEv
TN:__ZNSt3__26vectorI6Point2IfENS_9allocatorIS2_EEE6resizeEj
RPb:__ZN11CPVRTString6assignERKS_
Gqc:_Ins_ALIGNPTS
zG:init_ClassHandle
Bwb:_png_set_error_fn
qhc:_FT_Bitmap_Init
EQd:__ZN10__cxxabiv112_GLOBAL__N_121parse_conversion_exprINS0_2DbEEEPKcS4_S4_RT_
tP:__ZNK11TexturePack8locationEiPiS0_S0_S0_S0_S0_S0_S0_
fPa:__ZZN16b2ParticleSystem23DestroyParticlesInShapeERK7b2ShapeRK11b2TransformbEN31DestroyParticlesInShapeCallback14ReportParticleEPKS_i
CAa:__ZN6b2DrawC2Ev
xQ:__ZNSt3__214__split_bufferIP5ColorNS_9allocatorIS2_EEE9push_backEOS2_
jGa:__ZN15b2ContactSolver9WarmStartEv
L9:__ZNK14ColorTransform13redMultiplierEv
Q3b:__ZL9LtonumberP9lua_State
l3b:__ZL5io_gcP9lua_State
NFa:__ZN16b2ParticleSystem21UserOverridableBufferIPvEC2Ev
ybc:_bc_init
Csc:_Project
Os:_emscripten_glTexParameterfv
h_a:__ZNSt3__2lsIcNS_11char_traitsIcEENS_9allocatorIcEEEERNS_13basic_ostreamIT_T0_EES9_RKNS_12basic_stringIS6_S7_T1_EE
Opc:_TT_New_Context
Fkd:__ZNKSt3__28time_getIcNS_19istreambuf_iteratorIcNS_11char_traitsIcEEEEE14do_get_weekdayES4_S4_RNS_8ios_baseERjP2tm
Rc:RegisteredClass
QIb:_build_ycc_rgb_table_19
Eya:__ZN15b2RevoluteJoint4DumpEv
Epd:__ZNKSt3__27codecvtIcc11__mbstate_tE6do_outERS1_PKcS5_RS5_PcS7_RS7_
npb:_gaudio_registerType
KMa:__ZNK12b2MouseJoint12GetFrequencyEv
Nxc:_ps_hint_table_done
P$:__ZNSt3__26vectorIN9MovieClip5FrameENS_9allocatorIS2_EEE21__push_back_slow_pathIRKS2_EEvOT_
sBa:__ZN15b2WorldManifold10InitializeEPK10b2ManifoldRK11b2TransformfS5_f
JI:__ZThn508_N9ParticlesD1Ev
W7a:__ZN12SpriteBinder8setSkewXEP9lua_State
KQa:__ZNK14LuaApplication8getErrorEv
zca:__ZN9Transform4setZEf
C0a:__ZN11b2DebugDraw11DrawSegmentERK6b2Vec2S2_RK7b2Color
R8:__ZNSt3__26__treeIP6SpriteNS_4lessIS2_EENS_9allocatorIS2_EEE14__erase_uniqueIS2_EEjRKT_
Mrb:_g_p_write
yY:__ZN5Pixel18setTexturePositionEff
iZb:_luaK_setoneret
p8b:__ZN8pystring3mulERKNSt3__212basic_stringIcNS0_11char_traitsIcEENS0_9allocatorIcEEEEi
yeb:_mapping_search
pnb:__ZN14GGSoundManager16ChannelGetVolumeEm
omb:__ZNSt3__24pairIKNS_12basic_stringIcNS_11char_traitsIcEENS_9allocatorIcEEEE13GGAudioLoaderED2Ev
iSb:___gl_computeInterior
VYa:__ZN12MovieClipLuaC2EN9MovieClip4TypeEP14LuaApplicationb
db:invoke_vdddddi
aia:__ZL14add_join_bevelP4pathffffff
y3a:__ZN12Box2DBinder222b2Body_getGravityScaleEP9lua_State
l$:__Z5qFabsd
wMb:_fullsize_downsample
e0a:__ZN12Box2DBinder224b2Contact_getRestitutionEP9lua_State
I$:__ZNSt3__26__treeINS_12__value_typeIiNS_6vectorIPN9MovieClip5FrameENS_9allocatorIS5_EEEEEENS_19__map_value_compareIiS9_NS_4lessIiEELb1EEENS6_IS9_EEEC2ERKSD_
t4a:__ZN22b2ParticleSystemSpriteD0Ev
zbb:__ZN16PushEventVisitor5visitEP10MouseEvent
ola:__ZN18ApplicationManager14setOpenProjectEPKc
tJc:__ZN10emscripten8internal6TypeIDIlE3getEv
FTb:_fseek64_file_func
wC:_llvm_log10_f64
QIc:__ZN10emscripten8internal11LightTypeIDINS_11memory_viewIdEEE3getEv
ySb:_ConnectLeftVertex
ied:__ZNSt3__215basic_streambufIwNS_11char_traitsIwEEEC2ERKS3_
Q$b:_lua_newuserdata
r5b:__ZL9math_asinP9lua_State
K4:__ZNKSt3__26vectorINS0_I6Point2IfENS_9allocatorIS2_EEEENS3_IS5_EEE8max_sizeEv
HUb:_luaG_errormsg
L0:__ZNSt3__26__treeINS_12__value_typeIP6SpriteiEENS_19__map_value_compareIS3_S4_NS_4lessIS3_EELb1EEENS_9allocatorIS4_EEE4findIS3_EENS_15__tree_iteratorIS4_PNS_11__tree_nodeIS4_PvEEiEERKT_
nO:__ZN12GBitmapArray17setColorTransformEiffff
FOb:__ZN10ByteBuffer3setEPKci
U7b:__ZN8pystring7isalphaERKNSt3__212basic_stringIcNS0_11char_traitsIcEENS0_9allocatorIcEEEE
Hs:_emscripten_glStencilFuncSeparate
hQb:__ZN11CPVRTString6resizeEjc
uDd:__ZNKSt3__212basic_stringIcNS_11char_traitsIcEENS_9allocatorIcEEEcvNS_17basic_string_viewIcS2_EEEv
Vac:_samples_to_storage
cZ:__ZNSt3__26__treeIP6ScreenNS_4lessIS2_EENS_9allocatorIS2_EEE16__construct_nodeIJS2_EEENS_10unique_ptrINS_11__tree_nodeIS2_PvEENS_22__tree_node_destructorINS5_ISC_EEEEEEDpOT_
Ihc:_ft_black_new
P5b:__ZL9math_tanhP9lua_State
FPc:_readdir_r
Cob:_gaudio_SoundGetLength
ivb:_z_inflateCopy
hC:_llvm_cos_f64
TR:__ZN13CompleteEventD0Ev
zEb:_png_convert_from_time_t
Vp:_emscripten_get_gamepad_status
tMd:__ZNKSt3__212strstreambuf6pcountEv
Qpc:_TT_RunIns
ced:__ZNSt3__215basic_streambufIwNS_11char_traitsIwEEE9sputbackcEw
kVc:_nexttoward
nWd:_pthread_mutex_lock__wrapper
Upc:_Current_Ppem_Stretched
UTc:_j0f
OKb:_jpeg_finish_compress
mua:__ZL10errorAbortPKc
Qxd:__ZNSt3__26locale5__imp7installINS_7collateIcEEEEvPT_
B:tempRet0
qZ:__ZN17GridBagLayoutInfoC2Eii
eS:__ZN15MyTexturePacker12packTexturesEPiS0_ib
dQc:_feraiseexcept
hxb:_png_colorspace_check_xy
pkb:_gtexture_TempTextureGetName
JPb:__ZN21CPVRTMemoryFileSystem11GetFilenameEi
_rd:__ZNSt3__214__codecvt_utf8IDiED0Ev
Hbc:_bad_seek_frame
RUa:__ZN11AudioBinder14Sound_destructEP9lua_State
txd:__ZNSt3__28messagesIwEC2Ej
ZNa:__ZNK12b2WheelJoint14GetMotorTorqueEf
vna:__ZNSt3__26__treeINS_12__value_typeIj7PointerEENS_19__map_value_compareIjS3_NS_4lessIjEELb1EEENS_9allocatorIS3_EEE16__construct_nodeIJRKNS_21piecewise_construct_tENS_5tupleIJOjEEENSF_IJEEEEEENS_10unique_ptrINS_11__tree_nodeIS3_PvEENS_22__tree_node_destructorINS8_ISM_EEEEEEDpOT_
$Gc:_set_lfo_phase
sE:_pthread_rwlockattr_destroy
uua:__Z10flushDrivei
Hfd:__ZNSt3__213basic_istreamIwNS_11char_traitsIwEEErsERt
B_:__ZL16easeOutInElasticd
Gfd:__ZNSt3__213basic_istreamIwNS_11char_traitsIwEEErsERs
Hma:__ZN6ginput12InputManager11newKeyEventEii
$Sa:__ZN15ParticlesBinder8destructEP9lua_State
W1c:___flbf
fjc:_tt_cmap12_char_index
Mcc:_check_bom
XQd:__ZNSt3__212basic_stringIcNS_11char_traitsIcEEN10__cxxabiv112_GLOBAL__N_112malloc_allocIcEEE6assignEPKcj
Mfd:__ZNSt3__213basic_istreamIwNS_11char_traitsIwEEErsERx
Nfd:__ZNSt3__213basic_istreamIwNS_11char_traitsIwEEErsERy
Ofd:__ZNSt3__213basic_istreamIwNS_11char_traitsIwEEErsERf
Pfd:__ZNSt3__213basic_istreamIwNS_11char_traitsIwEEErsERd
Qfd:__ZNSt3__213basic_istreamIwNS_11char_traitsIwEEErsERe
Ffd:__ZNSt3__213basic_istreamIwNS_11char_traitsIwEEErsERb
H_c:_policyof
Kfd:__ZNSt3__213basic_istreamIwNS_11char_traitsIwEEErsERl
Lfd:__ZNSt3__213basic_istreamIwNS_11char_traitsIwEEErsERm
YCa:__ZN12b2BroadPhase11UpdatePairsI16b2ContactManagerEEvPT_
Df:_SDL_NumJoysticks
Ifd:__ZNSt3__213basic_istreamIwNS_11char_traitsIwEEErsERi
Kqd:__ZNKSt3__212ctype_bynameIcE10do_tolowerEPcPKc
GQd:__ZN10__cxxabiv112_GLOBAL__N_121parse_unresolved_nameINS0_2DbEEEPKcS4_S4_RT_
ZZ:__ZNK9Transform6matrixEv
xAc:_FT_Glyph_Stroke
k_a:__ZNSt3__216__pad_and_outputIcNS_11char_traitsIcEEEENS_19ostreambuf_iteratorIT_T0_EES6_PKS4_S8_S8_RNS_8ios_baseES4_
Cbc:_bad_head_read
_2a:__ZN12Box2DBinder215b2Body_SetAngleEP9lua_State
I5a:__ZN15GGAccelerometerD2Ev
Bfb:_ShiftRows
nTa:__ZN15ParticlesBinder15getParticleSizeEP9lua_State
xPa:__ZZN16b2ParticleSystem33CreateParticlesWithShapesForGroupEPKPK7b2ShapeiRK18b2ParticleGroupDefRK11b2TransformENK14CompositeShape11ComputeMassEP10b2MassDataf
LV:__ZN11ApplicationC2Ev
Zh:___mulsc3
sla:__ZN18ApplicationManager9lowMemoryEv
a6c:_getgid
IBa:__ZN13b2DynamicTree11CreateProxyERK6b2AABBPv
Ojb:__ZN9g_private19RenderTargetElementC2Ev
$kc:_tt_sbit_decoder_load_metrics
$Fb:_alloc_large
S4b:__ZL12utf8_islowerj
gJc:__ZN10emscripten8internal11LightTypeIDINS_11memory_viewIaEEE3getEv
LYa:__ZN15MovieClipBinder4playEP9lua_State
Eva:__Z6b2FreePv
M9a:__ZN12MatrixBinder4getZEP9lua_State
iHd:__ZNSt3__212basic_stringIwNS_11char_traitsIwEENS_9allocatorIwEEE13__get_pointerEv
ZNc:_processblock
R4c:_twoway_memmem
sFd:__ZNKSt3__212basic_stringIcNS_11char_traitsIcEENS_9allocatorIcEEE4findERKS5_j
gOb:__ZNSt3__25dequeIP12QueueElementNS_9allocatorIS2_EEE19__add_back_capacityEv
zt:_emscripten_glVertexPointer
xDb:_png_set_read_user_chunk_fn
jPa:__ZN16b2ParticleSystem34CreateParticlesStrokeShapeForGroupEPK7b2ShapeRK18b2ParticleGroupDefRK11b2Transform
dX:__ZNSt3__227__insertion_sort_incompleteIRNS_6__lessIN11Application10ImageScaleES3_EEPS3_EEbT0_S7_T_
xT:__ZN4Font8drawTextEPNSt3__26vectorI12GraphicsBaseNS0_9allocatorIS2_EEEEPKcfffPN8FontBase20TextLayoutParametersEbffRNS9_10TextLayoutE
$lc:_gray_sweep
$fb:__ZNSt3__212__deque_baseINS_12basic_stringIcNS_11char_traitsIcEENS_9allocatorIcEEEENS4_IS6_EEED2Ev
Kcb:__ZN5Event15stopPropagationEv
Uy:_glLinkProgram
dOd:__ZN10__cxxabiv112_GLOBAL__N_19destruct_EPv
U1b:__ZL17luaB_setmetatableP9lua_State
JIc:__ZN12_GLOBAL__N_1L20register_memory_viewImEEvPKc
An:_alcIsExtensionPresent
$Lb:_emit_dc_symbol
zJd:__ZNKSt3__212basic_stringIwNS_11char_traitsIwEENS_9allocatorIwEEE7compareEjjNS_17basic_string_viewIwS2_EE
qHc:_set_position
C1:__ZN9MovieClip16setReverseActionEi
SPc:_telldir
IFd:__ZNKSt3__212basic_stringIcNS_11char_traitsIcEENS_9allocatorIcEEE12find_last_ofERKS5_j
xkd:__ZNSt3__211char_traitsIwE6assignEPwjw
Tbd:__ZNSt3__213basic_ostreamIwNS_11char_traitsIwEEED2Ev
Pqd:__ZNKSt3__212ctype_bynameIwE10do_scan_isEtPKwS3_
gnd:__ZNKSt3__210moneypunctIcLb1EE14do_curr_symbolEv
W4b:__ZL12utf8_isalnumj
Emd:__ZNKSt3__28time_putIcNS_19ostreambuf_iteratorIcNS_11char_traitsIcEEEEE6do_putES4_RNS_8ios_baseEcPK2tmcc
uYd:b70
bpc:_TT_Process_Simple_Glyph
wYd:b72
lcb:__ZNSt3__24pairIKiNS_6vectorIP12CppLuaBridgeNS_9allocatorIS4_EEEEED2Ev
bbc:_INT123_decclass
ACc:_FT_Property_Set
me:_SDL_FillRect
Ru:_emscripten_set_pointerlockerror_callback
M2b:__ZL8io_linesP9lua_State
nic:_Split_Conic
wra:__Z7vibratei
Dcb:__ZN11EventBinder6createEP9lua_State
vdb:__ZN14LuaApplication8setScaleEf
uP:__ZNK11TexturePack8locationEPKcPiS2_S2_S2_S2_S2_S2_S2_
$Nc:_setkey
HCa:__ZNK9b2Contact10IsTouchingEv
j9:__ZN18SpriteProxyFactoryD2Ev
UOd:__ZN10__cxxabiv119__pointer_type_infoD0Ev
Vnb:__ZN14GGAudioManager16ChannelSetVolumeEmf
N4c:_memmem
Mta:__ZNSt3__26__treeINS_12__value_typeIm8UiDialogEENS_19__map_value_compareImS3_NS_4lessImEELb1EEENS_9allocatorIS3_EEE5eraseENS_21__tree_const_iteratorIS3_PNS_11__tree_nodeIS3_PvEEiEE
b5c:_strsep
UCd:__ZNSt3__212basic_stringIcNS_11char_traitsIcEENS_9allocatorIcEEEC2ERKS5_
O7a:__ZN12SpriteBinder4setYEP9lua_State
Pr:_emscripten_glGetProgramInfoLog
hRd:__ZN10__cxxabiv112_GLOBAL__N_111string_pairC2ILj16EEERAT__Kc
kUc:_ynf
Fw:_getpwuid
g3b:__ZL7f_flushP9lua_State
MZc:___netlink_enumerate
utb:_gpath_setAbsolutePathFlags
CT:__ZNSt3__26__treeINS_12__value_typeIiN4Font12TextureGlyphEEENS_19__map_value_compareIiS4_NS_4lessIiEELb1EEENS_9allocatorIS4_EEE4findIiEENS_15__tree_iteratorIS4_PNS_11__tree_nodeIS4_PvEEiEERKT_
$U:__ZN4Font22getTextureGlyphsFormatEPKc
lza:__ZN11b2GearJoint4DumpEv
Dtc:_cff_slot_init
cI:FUNCTION_TABLE_viii
ih:___atomic_exchange_8
Ldb:_block_to_ptr
rN:__ZN12SplashScreenC2EP11Application
P6c:_setresuid
nfc:_buffy_new
bE:_pthread_mutex_init
NUb:__ZL10singlestepP9lua_State
g8b:__ZN8pystring5rjustERKNSt3__212basic_stringIcNS0_11char_traitsIcEENS0_9allocatorIcEEEEi
Fjc:_tt_cmap14_get_def_chars
mBb:_png_inflate_read
VH:FUNCTION_TABLE_viid
rud:__ZNKSt3__27num_putIcNS_19ostreambuf_iteratorIcNS_11char_traitsIcEEEEE3putES4_RNS_8ios_baseEcb
SX:__ZN9TextFieldD2Ev
OUa:__ZN18RenderTargetBinder4saveEP9lua_State
xud:__ZNKSt3__27num_putIcNS_19ostreambuf_iteratorIcNS_11char_traitsIcEEEEE3putES4_RNS_8ios_baseEce
Q_c:_dns_parse_callback
DBc:_raccess_guess_linux_netatalk
G0:__ZNSt3__26__treeINS_12__value_typeIiNS_6vectorIPN9MovieClip5FrameENS_9allocatorIS5_EEEEEENS_19__map_value_compareIiS9_NS_4lessIiEELb1EEENS6_IS9_EEE5eraseENS_21__tree_const_iteratorIS9_PNS_11__tree_nodeIS9_PvEEiEE
nVc:___DOUBLE_BITS_337
sud:__ZNKSt3__27num_putIcNS_19ostreambuf_iteratorIcNS_11char_traitsIcEEEEE3putES4_RNS_8ios_baseEcl
uud:__ZNKSt3__27num_putIcNS_19ostreambuf_iteratorIcNS_11char_traitsIcEEEEE3putES4_RNS_8ios_baseEcm
Mq:_emscripten_glCullFace
I3a:__ZN12Box2DBinder224b2Body_isSleepingAllowedEP9lua_State
OWd:_emscripten_set_touchcancel_callback__wrapper
_jb:__ZNSt3__26vectorIcNS_9allocatorIcEEE10deallocateEv
$Ec:_virt_seteffect
tud:__ZNKSt3__27num_putIcNS_19ostreambuf_iteratorIcNS_11char_traitsIcEEEEE3putES4_RNS_8ios_baseEcx
vud:__ZNKSt3__27num_putIcNS_19ostreambuf_iteratorIcNS_11char_traitsIcEEEEE3putES4_RNS_8ios_baseEcy
ijc:_tt_cmap12_get_info
NGa:__ZN16b2ParticleSystem18UpdateBodyContactsEv
_gc:_mpg123_supported_decoders
mXd:__emval_run_destructors__wrapper
T3b:__ZL5LcallP9lua_State
mTa:__ZN15ParticlesBinder19getParticlePositionEP9lua_State
T_c:_setsockopt
XQa:__ZNSt3__26__treeINS_12__value_typeIibEENS_19__map_value_compareIiS2_NS_4lessIiEELb1EEENS_9allocatorIS2_EEE12__find_equalIiEERPNS_16__tree_node_baseIPvEERPNS_15__tree_end_nodeISE_EERKT_
IVc:___rem_pio2
_pc:_Move_CVT_Stretched
jwb:_png_default_error
afb:__ZN11GReferencedD2Ev
ggd:__ZNSt3__213basic_istreamIwNS_11char_traitsIwEEE5tellgEv
JLb:_encode_mcu_DC_refine_162
xGa:__ZN7b2World8SolveTOIERK10b2TimeStep
ptb:_gpath_getDefaultDrive
XEa:__ZN16b2ParticleSystem16ReallocateBufferIjEEPT_S2_iiib
hJ:__ZN6TickerD0Ev
Kva:__ZN24b2TypedIntrusiveListNodeI14b2TrackedBlockE11GetListNodeEv
haa:__ZN6Sprite15canChildBeAddedEPS_P7GStatus
so:_eglCreateContext
y0a:__ZN11b2DebugDraw11DrawPolygonEPK6b2Vec2iRK7b2Color
Yyb:_png_get_cHRM_XYZ
YBc:_FT_Set_Char_Size
CFb:_jdiv_round_up
QJb:_init_mem_source
Tza:__ZNK12b2WheelJoint10GetAnchorBEv
lea:__ZN12ShaderEngine8getModelEv
kka:__ZNSt3__26vectorINS_4pairINS_12basic_stringIcNS_11char_traitsIcEENS_9allocatorIcEEEEfEENS5_IS8_EEE6resizeEj
OFd:__ZNKSt3__212basic_stringIcNS_11char_traitsIcEENS_9allocatorIcEEE17find_first_not_ofENS_17basic_string_viewIcS2_EEj
H3c:_sw_write
xEd:__ZNSt3__212basic_stringIcNS_11char_traitsIcEENS_9allocatorIcEEE6appendEPKc
UZb:__ZL8condjumpP9FuncState6OpCodeiii
Pnb:__ZN14GGAudioManager11ChannelStopEm
Qad:__ZNSt3__29basic_iosIcNS_11char_traitsIcEEED0Ev
cid:__ZNSt3__210__stdinbufIwE5imbueERKNS_6localeE
gOc:_isblank
WDb:_write_unknown_chunks
V8a:__ZN9Transform8setRefXYEff
mGb:_do_sarray_io
Am:_alGetListeneri
Zxa:__ZN16b2PrismaticJointD0Ev
Zk:__emval_allocateDestructors
aUd:___uremdi3
CEb:_png_write_rows
ym:_alGetListenerf
MUb:_luaC_step
e4:__ZNSt3__26vectorIN8TTBMFont8FontFaceENS_9allocatorIS2_EEE18__construct_at_endEj
ida:__ZN7Matrix29transposeEv
Nvc:_cf2_getFamilyBlues
FD:_pthread_cancel
NT:__ZNSt3__214__split_bufferI12GraphicsBaseRNS_9allocatorIS1_EEEC2EjjS4_
HI:__ZN9Particles6doDrawERK7Matrix4ffff
Xcc:_pop_id3_text
Zga:__ZN16ogl2ShaderEngineD2Ev
lNc:_pad_673
dWa:__ZN10MeshBinder28resizeTextureCoordinateArrayEP9lua_State
TV:__ZNSt3__24pairINS_12basic_stringIcNS_11char_traitsIcEENS_9allocatorIcEEEEfED2Ev
iqd:__ZNSt3__26locale5__impD2Ev
ce:_SDL_CreateRGBSurfaceFrom
WGa:__ZN16b2ParticleSystem12SolveTensileERK10b2TimeStep
qhb:__ZN9g_private12TimerManager9resumeAllEv
ZHd:__ZNSt3__212basic_stringIwNS_11char_traitsIwEENS_9allocatorIwEEE6appendESt16initializer_listIwE
CW:__ZN11Application22setHardwareOrientationE11Orientation
H:Math_sin
okb:__ZNSt3__26__treeINS_12__value_typeImPN9g_private14TextureManager18TempTextureElementEEENS_19__map_value_compareImS6_NS_4lessImEELb1EEENS_9allocatorIS6_EEE13__lower_boundImEENS_15__tree_iteratorIS6_PNS_11__tree_nodeIS6_PvEEiEERKT_SJ_PNS_15__tree_end_nodeIPNS_16__tree_node_baseISH_EEEE
gTb:___gl_pqSortNewPriorityQ
_hb:__ZNSt3__213__vector_baseIPhNS_9allocatorIS1_EEED2Ev
c6c:_checker
Kvc:_cf2_getBlueMetrics
fMc:_creal
hla:__ZN18ApplicationManager14loadPropertiesEv
tCc:_FT_Add_Module
dpb:_gaudio_BackgroundChannelIsPaused
pxc:_cff_get_ps_name
TGa:__ZN16b2ParticleSystem12SolveViscousEv
WPc:_creat
$Ka:__ZNK15b2ParticleGroup7GetNextEv
NLa:__ZN7b2ColorC2Efff
D8b:__ZNSt3__26vectorINS_12basic_stringIcNS_11char_traitsIcEENS_9allocatorIcEEEENS4_IS6_EEE8allocateEj
lQc:___floatscan
_R:__ZNSt3__213__vector_baseI8RectSizeNS_9allocatorIS1_EEED2Ev
qvd:__ZNSt3__218__time_get_storageIwEC2EPKc
EAb:_png_handle_IEND
hNa:__ZNK15b2FrictionJoint12GetMaxTorqueEv
hM:__ZNSt3__26__treeINS_12__value_typeIi14GStatusElementEENS_19__map_value_compareIiS3_NS_4lessIiEELb1EEENS_9allocatorIS3_EEE16__construct_nodeIJRKNS_21piecewise_construct_tENS_5tupleIJRKiEEENSF_IJEEEEEENS_10unique_ptrINS_11__tree_nodeIS3_PvEENS_22__tree_node_destructorINS8_ISN_EEEEEEDpOT_
Fdd:__ZNSt3__215basic_streambufIcNS_11char_traitsIcEEE5sputnEPKci
zkd:__ZNSt3__29__num_putIwE21__widen_and_group_intEPcS2_S2_PwRS3_S4_RKNS_6localeE
pCb:_png_image_read_init
r$b:__ZL9LoadBlockP9LoadStatePvj
PUa:__ZN11AudioBinderC2EP9lua_State
lwa:__ZNK12b2ChainShape11ComputeAABBEP6b2AABBRK11b2Transformi
dwb:_z_deflatePrime
Awd:__ZNKSt3__210moneypunctIwLb1EE13positive_signEv
rvb:_z_gzsetparams
Asa:__ZN10emscripten8internal21writeGenericWireTypesERPNS0_15GenericWireTypeE
G9a:__ZN12MatrixBinder9translateEP9lua_State
X1a:__ZN15b2DistanceJoint9SetLengthEf
XF:constNoSmartPtrRawPointerToWireType
Qp:_emscripten_get_device_pixel_ratio
E_a:__ZN13TileMapBinder9setRepeatEP9lua_State
nEb:_png_write_pCAL
IDa:__ZN15b2GrowableStackIiLi256EE4PushERKi
y2c:___pthread_self_598
CWb:__ZL8symbexecPK5Protoii
oKb:_jpeg_fdct_11x11
sr:_emscripten_glFinish
Ud:_SDL_ClearError
SQ:__ZN5GMesh8setColorEijf
hrb:__ZNKSt3__26vectorI8GGPluginNS_9allocatorIS1_EEE8max_sizeEv
Y:abortOnCannotGrowMemory
svb:_z_deflateParams
s$a:__ZN10b2JointDefC2Ev
fcd:__ZNKSt3__29basic_iosIcNS_11char_traitsIcEEE4failEv
$nd:__ZNKSt3__217moneypunct_bynameIcLb1EE14do_frac_digitsEv
Nw:_glBindFramebuffer
v9a:__ZN12MatrixBinder5setTxEP9lua_State
Rea:__ZNSt3__214__split_bufferIPN12ShaderEngine12DepthStencilERNS_9allocatorIS3_EEED2Ev
Lub:_crc32_combine_
k5c:_wcsnlen
wqd:__ZNKSt3__25ctypeIcE10do_toupperEPcPKc
Kna:__ZN14GGAudioManager13systemCleanupEv
_X:__ZN9TextField12setTextColorEj
pcc:_INT123_ntom_frameoff
yVc:_scalb
uCa:__ZN14b2PolygonShape8SetAsBoxEff
mMb:_forward_DCT
t7c:__ZNSt3__227__insertion_sort_incompleteIRNS_6__lessIaaEEPaEEbT0_S5_T_
NEa:__ZN16b2ParticleSystem16ReallocateBufferIPvEEPT_PNS_21UserOverridableBufferIS2_EEiib
uPb:__ZN17CPVRTResourceFileC2EPKc
kib:_gtexture_init
OR:__ZNK6Bitmap14getAnchorPointEPfS0_
RFb:_get_dht
dNa:__ZN18b2FrictionJointDef10InitializeEP6b2BodyS1_RK6b2Vec2
XNb:__ZN12QueueElementD2Ev
oeb:_tlsf_get_pool
yza:__ZN13b2PulleyJoint24SolveVelocityConstraintsERK12b2SolverData
_$b:_lua_getlocal
fSc:_ngettext
Zpb:__ZNSt3__26__treeINS_12__value_typeIi8FileInfoEENS_19__map_value_compareIiS3_NS_4lessIiEELb1EEENS_9allocatorIS3_EEE16__insert_node_atEPNS_15__tree_end_nodeIPNS_16__tree_node_baseIPvEEEERSF_SF_
Du:_emscripten_set_keyup_callback
Ayb:_png_get_compression_type
Ov:_emscripten_worker_respond_provisionally
aTc:_modff
cJa:__ZNSt3__213__upper_boundIRPFbRKN16b2ParticleSystem4PairES4_EPS2_S2_EET0_S9_S9_RKT1_T_
Pgc:_mpg123_add_string
kyc:_psh_hint_table_activate_mask
aVc:_modfl
ipb:_gaudio_BackgroundChannelIsLooping
xJa:__ZNK16b2ParticleSystem24GetParticleContactFilterEv
iAc:_FT_Stroker_CubicTo
oYb:_luaX_setinput
lWc:_a_ctz_l
F1a:__ZN12Box2DBinder228b2MouseJoint_setDampingRatioEP9lua_State
q2b:__ZL10db_errorfbP9lua_State_1904
g9a:__ZL19createChildrenTableP9lua_State
t2a:__ZN12Box2DBinder233b2RevoluteJoint_setMaxMotorTorqueEP9lua_State
w2a:__ZN12Box2DBinder215b2Joint_getTypeEP9lua_State
sn:_alcDestroyContext
PTa:__ZN11PixelBinder15getTextureScaleEP9lua_State
FO:__ZNSt3__23mapINS_12basic_stringIcNS_11char_traitsIcEENS_9allocatorIcEEEEiNS_4lessIS6_EENS4_INS_4pairIKS6_iEEEEED2Ev
hEb:_png_write_info
rzb:_png_get_unknown_chunks
Jj:___syscall34
Mj:___syscall36
Wca:__ZNK9Transform5skewYEv
Dj:___syscall33
Z9:__ZNSt3__214__split_bufferIPNS_4pairIP6SpritebEERNS_9allocatorIS5_EEED2Ev
oMc:_csqrtl
Oj:___syscall39
Nj:___syscall38
D0c:_tre_stack_num_objects
zn:_alcGetString
fUd:_testSetjmp
Uta:__GLOBAL__sub_I_ggeolocation_js_cpp
Wda:__ZN13ShaderProgramD2Ev
fO:__ZN12GBitmapArrayD0Ev
e1a:__ZN12Box2DBinder232b2WheelJoint_getJointTranslationEP9lua_State
knc:_af_shaper_get_cluster
oLb:_jinit_c_master_control
X$b:_lua_gethookmask
kHa:__ZN11b2TransformC2ERK6b2Vec2RK5b2Rot
XPa:__ZN16b2ParticleSystem17SetStuckThresholdEi
u4a:__ZN22b2ParticleSystemSprite6doDrawERK7Matrix4ffff
wqc:_Ins_JMPR
oAd:__ZNSt3__26locale5__imp11make_globalEv
ZF:craftEmvalAllocator
Ol:_abs
hL:__ZNSt3__214__split_bufferIPP6SpriteRNS_9allocatorIS3_EEE10push_frontERKS3_
_bd:__ZNSt3__214basic_iostreamIcNS_11char_traitsIcEEED2Ev
OUd:mftCall_diii
kIc:__ZN53EmscriptenBindingInitializer_native_and_builtin_typesC2Ev
epc:_FT_List_Find
$Na:__ZN6b2RopeD2Ev
mDc:_ft_gzip_file_init
_ld:__ZNKSt3__215time_get_bynameIcNS_19istreambuf_iteratorIcNS_11char_traitsIcEEEEE3__rEv
P6b:__ZL8getfieldP9lua_StatePKci
Tmb:__ZN14GGSoundManager7ChannelC2EmPNS_5SoundEP16GGSoundInterface
Y6b:__ZL4maxnP9lua_State
FEb:_png_write_finish_row
r1c:_futimens
LMa:__ZN12b2MouseJoint15SetDampingRatioEf
D4a:__ZN17b2RayCastCallbackD2Ev
qQa:__ZNSt3__26__treeINS_12__value_typeIP7ClosureP11ProfileInfoEENS_19__map_value_compareIS3_S6_NS_4lessIS3_EELb1EEENS_9allocatorIS6_EEE7destroyEPNS_11__tree_nodeIS6_PvEE
jo:_difftime
Ywd:__ZNSt3__217moneypunct_bynameIwLb1EEC2EPKcj
v3a:__ZN12Box2DBinder214b2Body_getMassEP9lua_State
e8:__ZL6appendRNSt3__26vectorIcNS_9allocatorIcEEEEPKvj
vfc:_INT123_read_frame
fEb:_png_deflate_claim
kma:__ZNSt3__26__treeINS_12__value_typeIjNS_6vectorIP17ginput_TouchEventNS_9allocatorIS4_EEEEEENS_19__map_value_compareIjS8_NS_4lessIjEELb1EEENS5_IS8_EEE16__insert_node_atEPNS_15__tree_end_nodeIPNS_16__tree_node_baseIPvEEEERSJ_SJ_
qD:_posix_spawn_file_actions_destroy
PEd:__ZNSt3__212basic_stringIcNS_11char_traitsIcEENS_9allocatorIcEEE6insertEjRKS5_
Mt:_emscripten_idb_delete
n7c:__ZNSt3__227__insertion_sort_incompleteIRNS_6__lessIwwEEPwEEbT0_S5_T_
HAc:_hash_str_lookup
jed:__ZNSt3__215basic_streambufIwNS_11char_traitsIwEEEaSERKS3_
epd:__ZNKSt3__28messagesIcE7do_openERKNS_12basic_stringIcNS_11char_traitsIcEENS_9allocatorIcEEEERKNS_6localeE
Rib:__ZNSt3__26__treeINS_12__value_typeINS_6vectorIcNS_9allocatorIcEEEEPN9g_private14TextureElementEEENS_19__map_value_compareIS5_S9_NS_4lessIS5_EELb1EEENS3_IS9_EEE4findIS5_EENS_15__tree_iteratorIS9_PNS_11__tree_nodeIS9_PvEEiEERKT_
TDd:__ZNSt3__212basic_stringIcNS_11char_traitsIcEENS_9allocatorIcEEE4rendEv
LRd:__ZN10__cxxabiv112_GLOBAL__N_111string_pairC2ILj22EEERAT__Kc
Yna:__ZN14GGSoundManager17interfacesCleanupEv
W5:__ZN5Timer4tickEv
m0c:_strcat
oJb:_output_value
iU:__ZN4Font8FontInfoD2Ev
Cw:_getprotoent
Tjb:__ZNSt3__26__treeINS_12__value_typeImPN9g_private19RenderTargetElementEEENS_19__map_value_compareImS5_NS_4lessImEELb1EEENS_9allocatorIS5_EEE16__insert_node_atEPNS_15__tree_end_nodeIPNS_16__tree_node_baseIPvEEEERSH_SH_
Fgb:__ZN9g_private9StopWatch5pauseEv
T_a:__ZN12Box2DBinder222b2CircleShape_destructEP9lua_State
BSd:__ZSt15set_new_handlerPFvvE
vJc:__ZN10emscripten8internal6TypeIDIjE3getEv
POa:__ZN16b2ParticleSystem26GetParticleHandleFromIndexEi
Pja:__ZN14NetworkManager13printToServerEPKci
oq:_emscripten_glBindTexture
$cc:_I_step_one
VTd:_llvm_cttz_i32
Rk:__emscripten_atomic_fetch_and_or_u64
cB:_glfwSetWindowTitle
KEa:__ZN16b2ParticleSystem16ReallocateBufferIfEEPT_S2_iiib
BQa:__ZN8MemCache7GetSizeEPv
Y9:__ZNSt3__214__split_bufferIPNS_4pairIP6SpritebEERNS_9allocatorIS5_EEE18__construct_at_endINS_13move_iteratorIPS5_EEEENS_9enable_ifIXsr21__is_forward_iteratorIT_EE5valueEvE4typeESF_SF_
yzd:__ZNSt3__26locale5__imp7installINS_15time_get_bynameIcNS_19istreambuf_iteratorIcNS_11char_traitsIcEEEEEEEEvPT_
l0c:_sort
Uka:__ZN12luaExceptionD2Ev
PIb:_h2v1_merged_upsample
GDd:__ZNSt3__212basic_stringIcNS_11char_traitsIcEENS_9allocatorIcEEE15__set_long_sizeEj
FBd:__ZdlPvj
t1b:__ZL10luaB_yieldP9lua_State
ZNd:__ZN10__cxxabiv120__si_class_type_infoD0Ev
oE:_pthread_rwlock_tryrdlock
mk:___wait
thd:__ZNSt3__214basic_iostreamIcNS_11char_traitsIcEEEC2EOS3_
Etd:__ZNSt3__220__codecvt_utf8_utf16IDsED0Ev
B0c:_regfree
XUd:mftCall_iiiii
u3:__ZNK8TTBMFont7getTypeEv
led:__ZNKSt3__215basic_streambufIwNS_11char_traitsIwEEE5ebackEv
aKb:_format_message
lja:__ZN6Path2D12setLineColorEjf
vrc:_Ins_NOT
Gsb:_g_putc
XCa:__ZN16b2ContactManager15FindNewContactsEv
RWb:__ZL11currentlineP9lua_StateP8CallInfo
sob:__ZN14GGAudioManager26BackgroundChannelIsLoopingEm
Ab:ftCall_viddid
jyc:_psh_hint_table_done
j7:__ZNSt3__26__treeIP5TimerNS_4lessIS2_EENS_9allocatorIS2_EEE12__find_equalIS2_EERPNS_16__tree_node_baseIPvEERPNS_15__tree_end_nodeISC_EERKT_
Q8a:__ZN6Sprite10setVisibleEb
H6b:__ZL10os_executeP9lua_State
fac:__ZN6snappy11RawCompressEPKcjPcPj
Cb:ftCall_viddii
qwc:_cff_builder_add_contour
Amc:_FT_Outline_Get_Orientation
Wma:_ginput_addCallback
Slb:__ZN19gevent_CallbackList14removeCallbackEPFviPvS0_ES0_
qp:_emscripten_autodebug_float
v5a:__ZN9b2WorldEDD2Ev
bAb:_png_do_expand
nRb:_RenderMaximumFaceGroup
Hca:__ZNK6Sprite8rotationEv
Yjd:__ZNSt3__27num_putIcNS_19ostreambuf_iteratorIcNS_11char_traitsIcEEEEED0Ev
NWb:_luaH_setstr
Yn:_clearenv
Q9b:__ZN6snappyL23IncrementalCopyFastPathEPKcPci
bob:__ZN14GGAudioManager18ChannelAddCallbackEmPFviPvS0_ES0_
M4c:_memccpy
T9a:__ZN12MatrixBinder4setXEP9lua_State
bNb:_std_huff_tables
Ivc:_cf2_getStdHW
aXc:___getopt_long_core
Bid:__ZNSt3__27num_getIcNS_19istreambuf_iteratorIcNS_11char_traitsIcEEEEED2Ev
fBb:_png_set_pCAL
gbc:_bc_prepare
tO:__ZN13TextFieldBase9getLayoutEv
Ghd:__GLOBAL__I_000101
Rba:__ZN6Sprite3setEifP7GStatus
rab:__ZN11TimerBinder8setDelayEP9lua_State
eVb:_luaC_linkupval
FRb:_noBegin
GA:_glfwInit
TLd:__ZNSt3__210istrstreamD0Ev
_Bc:_FT_Get_Kerning
Ksa:__ZN10emscripten8internal20writeGenericWireTypeIbEEvRPNS0_15GenericWireTypeET_
DSd:___cxa_can_catch
PXb:_lua_rawget
gv:_emscripten_sleep
ogb:__Z14md5_frombufferPKhjPh
bEb:_png_check_keyword
Ds:_emscripten_glScissor
UHb:_jpeg_idct_8x4
kvd:__ZNSt3__215time_get_bynameIcNS_19istreambuf_iteratorIcNS_11char_traitsIcEEEEEC2ERKNS_12basic_stringIcS3_NS_9allocatorIcEEEEj
hO:__ZN12GBitmapArray6doDrawERK7Matrix4ffff
g7:__ZNSt3__26__treeINS_12__value_typeIdNS_6vectorIP5TimerNS_9allocatorIS4_EEEEEENS_19__map_value_compareIdS8_NS_4lessIdEELb1EEENS5_IS8_EEE16__construct_nodeIJRKNS_21piecewise_construct_tENS_5tupleIJOdEEENSJ_IJEEEEEENS_10unique_ptrINS_11__tree_nodeIS8_PvEENS_22__tree_node_destructorINS5_ISQ_EEEEEEDpOT_
SLa:__ZNK16b2ParticleSystem17GetPositionBufferEv
b6b:__ZL7str_repP9lua_State
Sac:_mpg123_fmt_support
K3:__ZNSt3__26vectorIP11TextureDataNS_9allocatorIS2_EEE26__swap_out_circular_bufferERNS_14__split_bufferIS2_RS4_EE
dyd:__ZNSt3__212_GLOBAL__N_14makeINS_8numpunctIcEEjEERT_T0_
Qoc:_TT_Load_Glyph
S$c:_savestate
_Jc:_bulk_free
ef:_SDL_JoystickGetBall
xKb:_jpeg_fdct_10x5
f6b:__ZL8posrelatij
rV:__ZL8nextpow2j
Tja:__ZNSt3__26__treeINS_12__value_typeINS_12basic_stringIcNS_11char_traitsIcEENS_9allocatorIcEEEENS_6vectorIhNS5_IhEEEEEENS_19__map_value_compareIS7_SB_NS_4lessIS7_EELb1EEENS5_ISB_EEED2Ev
tAc:_FT_Stroker_ExportBorder
Gsa:__ZN10emscripten8internal6TypeIDIbE3getEv
IDc:_convert_delta
Imd:__ZNSt3__28time_putIwNS_19ostreambuf_iteratorIwNS_11char_traitsIwEEEEED2Ev
s1b:__ZL11luaB_cowrapP9lua_State
jfa:__ZN13ShaderProgram14LoadShaderFileEPKcS1_Pl
kJa:__ZNSt3__222__merge_move_constructIRPFbRKN16b2ParticleSystem4PairES4_EPS2_S8_EEvT0_S9_T1_SA_PNS_15iterator_traitsIS9_E10value_typeET_
Br:_emscripten_glGenTextures
rb:invoke_vidddddddd
Uvb:_z_gzseek
nz:_glTexParameterfv
mda:__ZN7Matrix314getDeterminantEv
DMd:__ZNSt3__223__system_error_categoryD0Ev
hdb:__ZNSt3__25dequeIN14LuaApplication12AsyncLuaTaskENS_9allocatorIS2_EEE9pop_frontEv
Dbc:_bad_head_shift
pzc:_FT_Bitmap_Embolden
AOd:__ZNSt13runtime_errorD2Ev
_s:_emscripten_glUniform3f
c0:__ZNSt3__26vectorIPN9MovieClip5FrameENS_9allocatorIS3_EEE21__push_back_slow_pathIS3_EEvOT_
wUb:_unzGetOffset2
vHa:__ZL10computeTagff
G_a:__ZN7TileMap9setRepeatEbb
kFd:__ZNSt3__212basic_stringIcNS_11char_traitsIcEENS_9allocatorIcEEE7replaceENS_11__wrap_iterIPKcEES9_jc
wbb:__ZN12EventVisitorC2Ev
Osb:_g_tmpfile
HNa:__ZN11b2GearJoint8SetRatioEf
pWd:_pthread_mutex_destroy__wrapper
zQb:__ZNK11CPVRTString6lengthEv
I6a:__ZN12BitmapBinder10setTextureEP9lua_State
aa:ftCall_d
lDa:__ZN16b2PolygonContact7DestroyEP9b2ContactP16b2BlockAllocator
bwb:_z_deflateSetHeader
wa:ftCall_i
xJc:__ZN10emscripten8internal6TypeIDIiE3getEv
$hb:__ZNSt3__26vectorIPhNS_9allocatorIS1_EEE8allocateEj
cl:__emval_decref
fab:__ZN12MatrixBinder8getScaleEP9lua_State
KTc:___FLOAT_BITS_274
lOb:__ZNSt3__214__split_bufferIPP12QueueElementNS_9allocatorIS3_EEE10push_frontEOS3_
cb:ftCall_v
CTc:___FLOAT_BITS_270
IE:_res_query
gsc:_Ins_PUSHW
S_b:__ZL9singlevarP8LexStateP7expdesc
oRb:_RenderLonelyTriangles
oWa:__ZN10MeshBinder8getColorEP9lua_State
JVb:_luaD_poscall
gYc:___ptsname_r
Wta:_ggeolocation_init
CWa:__ZN21TextInputDialogBinderC2EP9lua_State
Fx:_glDrawArraysInstancedARB
tBd:__ZNSt3__221recursive_timed_mutexC2Ev
JGa:__ZN16b2ParticleSystem14SolveLifetimesERK10b2TimeStep
TBd:__ZSt17__throw_bad_allocv
E4a:__ZN17b2RayCastCallbackC2Ev
DP:__ZNK8Matrix2D14transformPointEffPfS0_
bia:__ZL15add_stroke_lineP4pathdddd
YRc:_strncasecmp_l
lO:__ZN12GBitmapArray11setRotationEif
i3b:__ZL6f_seekP9lua_State
aW:__ZN11Application10enterFrameEv
zx:_glDetachShader
ahb:__ZNSt3__26__treeINS_12__value_typeIdNS_6vectorIiNS_9allocatorIiEEEEEENS_19__map_value_compareIdS6_NS_4lessIdEELb1EEENS3_IS6_EEE16__insert_node_atEPNS_15__tree_end_nodeIPNS_16__tree_node_baseIPvEEEERSH_SH_
_ec:_generic_tell
m:STACK_MAX
DHd:__ZNSt3__212basic_stringIwNS_11char_traitsIwEENS_9allocatorIwEEE6resizeEj
gHa:__ZN16b2ParticleSystem14SolveCollisionERK10b2TimeStep
HTc:___FLOAT_BITS_272
_Yc:_c16rtomb
oqa:__ZN21GGSampleOpenALManager16ChannelIsLoopingEm
TE:_setitimer
ppb:_gaudio_WavOpen
yCc:_ft_remove_renderer
X4:__ZNSt3__24listI12GraphicsBaseNS_9allocatorIS1_EEE8pop_backEv
$id:__ZNSt3__29__num_getIcE19__stage2_float_prepERNS_8ios_baseEPcRcS5_
Ema:_ginputp_keyDown
dfc:_feed_skip_bytes
ZYc:___pthread_self_433
O1c:_vasprintf
tIa:__ZN16b2VoronoiDiagram12AddGeneratorERK6b2Vec2ib
SEb:_png_write_image
VKc:_csqrt
HJ:__ZNSt3__214__split_bufferIN9Particles5ColorERNS_9allocatorIS2_EEEC2EjjS5_
F3:__ZNSt3__23mapIiN8TTBMFont12TextureGlyphENS_4lessIiEENS_9allocatorINS_4pairIKiS2_EEEEEixERS7_
x6a:__ZN11StageBinder19setClearColorBufferEP9lua_State
fTa:__ZN15ParticlesBinder15setParticleSizeEP9lua_State
jRc:___pthread_self_438
wh:___cxa_allocate_exception
Mcd:__ZNSt3__29basic_iosIcNS_11char_traitsIcEEE4moveEOS3_
hTa:__ZN15ParticlesBinder16setParticleDecayEP9lua_State
U5a:__ZN15TextFieldBinder13getLineHeightEP9lua_State
h_c:_if_freenameindex
WQ:__ZNKSt3__26vectorIN5GMesh5ColorENS_9allocatorIS2_EEE8max_sizeEv
N6a:__ZN16BitmapDataBinder6createEP9lua_State
soa:__ZN12_GLOBAL__N_121GGStreamOpenALManager18ChannelGetStreamIdEm
Dmc:_af_glyph_hints_rescale
enc:_af_latin_metrics_init_widths
EMb:_rgb_ycc_start
ZTa:__ZN5Pixel9setHeightEf
SUc:_logbf
lWd:b13
DJc:__ZN10emscripten8internal6TypeIDIhE3getEv
R_b:_luaK_fixline
Xsc:_tt_face_load_prep
NPa:__ZN16b2ParticleSystem17SetVelocityBufferEP6b2Vec2i
m1:__ZNSt3__214__split_bufferIP8SlotBaseRNS_9allocatorIS2_EEEC2EjjS5_
tDd:__ZNKSt3__212basic_stringIcNS_11char_traitsIcEENS_9allocatorIcEEE14__get_long_capEv
KYa:__ZN15MovieClipBinder8destructEP9lua_State
grd:__ZNSt3__28numpunctIwED0Ev
kpa:__ZNSt3__26__treeIPN12_GLOBAL__N_121GGStreamOpenALManager7ChannelENS_4lessIS4_EENS_9allocatorIS4_EEE13__lower_boundIS4_EENS_15__tree_iteratorIS4_PNS_11__tree_nodeIS4_PvEEiEERKT_SF_PNS_15__tree_end_nodeIPNS_16__tree_node_baseISD_EEEE
VWa:__ZN17GGTextInputDialogC2EP9lua_StatePKcS3_S3_S3_S3_S3_
_3:__ZN8TTBMFont8FontInfoC2Ev
Aub:_z_gzclose
w9b:__ZN6snappy18SnappyDecompressor22ReadUncompressedLengthEPj
xPc:_dirfd
XLa:__ZN9b2Fixture7GetNextEv
yId:__ZNSt3__212basic_stringIwNS_11char_traitsIwEENS_9allocatorIwEEE7replaceEjjRKS5_
rgd:__ZNSt3__213basic_ostreamIcNS_11char_traitsIcEEElsEPFRNS_9basic_iosIcS2_EES6_E
hGa:__ZN8b2IslandD2Ev
xVb:_luaV_settable
VHc:_hio_size
Bvb:_gz_avail
tAb:_png_do_read_invert_alpha
y$c:_cleanup_525
UAb:_png_handle_pCAL
tob:__ZN14GGAudioManager28BackgroundChannelAddCallbackEmPFviPvS0_ES0_
Iqd:__ZNKSt3__212ctype_bynameIcE10do_toupperEPcPKc
b0c:_fnmatch_internal
BTa:__ZN11PixelBinderC2EP9lua_State
QNd:__ZNK10__cxxabiv117__class_type_info9can_catchEPKNS_16__shim_type_infoERPv
SGb:_jinit_huff_decoder
MDc:_pattern_tracks_alloc
m6b:__ZL11end_captureP10MatchStatePKcS2_
t9b:__ZN6snappy18SnappyDecompressor9RefillTagEv
px:_glDeleteQueriesEXT
Vdc:_INT123_synth_ntom
R0:__ZNKSt3__26__treeINS_12__value_typeIP6SpriteiEENS_19__map_value_compareIS3_S4_NS_4lessIS3_EELb1EEENS_9allocatorIS4_EEE10__root_ptrEv
cJ:__ZN9ParticlesC2EP11Application
dTa:__ZN15ParticlesBinder16setParticleColorEP9lua_State
rma:__ZNSt3__214__split_bufferIP17ginput_MouseEventRNS_9allocatorIS2_EEEC2EjjS5_
cLa:__ZN15b2ParticleColoraSERKS_
Cad:__ZNSt3__27promiseIvEC2Ev
fo:_cosf
w9:__ZN6Sprite14getLayoutStateEv
C9:__ZN6Sprite4drawERK7Matrix4ffff
jXd:_glDeleteShader__wrapper
go:_cosl
FEa:__ZN16b2ParticleSystem23ReallocateHandleBuffersEi
qgd:__ZNSt3__213basic_ostreamIcNS_11char_traitsIcEEElsEPFRS3_S4_E
Jpd:__ZNKSt3__27codecvtIcc11__mbstate_tE9do_lengthERS1_PKcS5_j
Om:_alListener3f
FJc:__ZN10emscripten8internal6TypeIDIaE3getEv
QG:setDelayFunction
Okc:_tt_name_entry_ascii_from_utf16
cnc:_af_latin_metrics_scale_dim
Pm:_alListener3i
rob:__ZN14GGAudioManager27BackgroundChannelSetLoopingEmb
rCd:__ZNSt3__219__shared_mutex_base11lock_sharedEv
oca:__ZN14ColorTransform16setRedMultiplierEf
OTc:_ilogbl
Vrd:__ZNKSt3__214__codecvt_utf8IDsE9do_lengthER11__mbstate_tPKcS5_j
gja:__ZL14kh_resize_pathP9kh_path_tj
NBd:__ZdlPvSt11align_val_t
Gpa:__ZNSt3__26__treeIPN12_GLOBAL__N_121GGStreamOpenALManager7ChannelENS_4lessIS4_EENS_9allocatorIS4_EEE7destroyEPNS_11__tree_nodeIS4_PvEE
Rwa:__ZN9b2ContactD2Ev
_w:_glClear
iZc:_wcsnrtombs
w0a:__ZN11b2DebugDrawD0Ev
Kaa:__ZN6Sprite13setChildIndexEPS_iP7GStatus
qg:_SDL_WM_SetCaption
kjd:__ZNSt3__227__num_get_unsigned_integralIyEET_PKcS3_Rji
uIa:__ZN16b2VoronoiDiagramD2Ev
ipd:__ZNSt3__28messagesIwED0Ev
LK:__ZNSt3__25dequeIP6SpriteNS_9allocatorIS2_EEE8pop_backEv
Fmc:_af_latin_metrics_scale
CKd:__ZNSt3__24stodERKNS_12basic_stringIwNS_11char_traitsIwEENS_9allocatorIwEEEEPj
Boa:__ZN16GGSoundInterface23ChannelSetWorldPositionEmffffff
Yed:__ZNSt3__213basic_istreamIcNS_11char_traitsIcEEErsERPv
gzc:_FT_Outline_Get_BBox
PZ:__ZNSt3__26vectorIdNS_9allocatorIdEEE10deallocateEv
Twa:__ZN9b2Fixture8GetShapeEv
awd:__ZNKSt3__210moneypunctIcLb0EE10neg_formatEv
IMb:_rgb_ycc_convert
Crb:__ZN6GProxyC2ENS_5GTypeE
AQc:_catopen
Nsd:__ZNSt3__215__codecvt_utf16IDsLb1EED0Ev
xhd:__ZNSt3__28ios_base7failureC2ERKNS_12basic_stringIcNS_11char_traitsIcEENS_9allocatorIcEEEERKNS_10error_codeE
HS:__ZNK15MaxRectsBinPack34FindPositionForNewNodeContactPointEiiRi
BLa:__ZNSt3__218__insertion_sort_3IRN12_GLOBAL__N_124ExpirationTimeComparatorEPiEEvT0_S5_T_
VQb:__Z20PVRTTextureLoadTiledPhjjPKhjjjb
xE:_pthread_setspecific
DLa:__ZNK7b2World14QueryShapeAABBEP15b2QueryCallbackRK7b2ShapeRK11b2Transform
Mzb:_png_push_read_IDAT
Hva:__ZN14b2TrackedBlock8AllocateEj
aC:_llvm_atomic_load_add_i32_p0i32
GE:_rectangleColor
Yo:_emscripten_alcResetDeviceSOFT
jbb:__ZN15EventDispatcher19removeEventListenerI8LuaEvent12CppLuaBridgeS1_EEvRK9EventTypeIT_EPT0_MS8_FvPT1_E
sic:_ft_multo64
mg:_SDL_VideoModeOK
qAa:__ZN10b2FreeList8AllocateEv
I_a:__ZN9DibBinder6createEP9lua_State
x3c:_rename
zec:_INT123_synth_4to1_s32_mono
Izb:_png_push_restore_buffer
MLd:__ZNSt3__212strstreambufD0Ev
yqb:__ZNSt3__26__treeINS_12__value_typeIPKciEENS_19__map_value_compareIS3_S4_N8StringId5ltstrELb1EEENS_9allocatorIS4_EEED2Ev
lgd:__ZNSt3__213basic_ostreamIcNS_11char_traitsIcEEEC2EOS3_
HBd:__ZdaPvRKSt9nothrow_t
gT:__ZNSt3__214__split_bufferIN8FontBase11ChunkLayoutERNS_9allocatorIS2_EEEC2EjjS5_
Wr:_emscripten_glGetRenderbufferParameteriv
xod:__ZNKSt3__217moneypunct_bynameIwLb1EE13do_neg_formatEv
XMb:_jpeg_add_quant_table
FL:__ZN5Stage13touchesCancelEP17ginput_TouchEventffff
BIa:__ZNSt3__213__lower_boundIRPFbRKN16b2ParticleSystem5TriadES4_EPS2_S2_EET0_S9_S9_RKT1_T_
IGc:_read_event_it
SK:__ZNKSt3__26vectorIP6SpriteNS_9allocatorIS2_EEE8max_sizeEv
ted:__ZNSt3__215basic_streambufIwNS_11char_traitsIwEEE5pbumpEi
p_a:__ZNK14LuaApplication16getLogicalHeightEv
S8:__ZNSt3__26__treeIP6SpriteNS_4lessIS2_EENS_9allocatorIS2_EEE4findIS2_EENS_15__tree_iteratorIS2_PNS_11__tree_nodeIS2_PvEEiEERKT_
ZXa:__ZN15UrlLoaderBinder8destructEP9lua_State
ebc:_INT123_init_id3
Yrc:_Ins_IDEF
dv:_emscripten_set_webglcontextlost_callback
wLc:_ccos
RXb:_lua_createtable
Zkd:__ZNKSt3__28time_getIcNS_19istreambuf_iteratorIcNS_11char_traitsIcEEEEE18__get_day_year_numERiRS4_S4_RjRKNS_5ctypeIcEE
Ilc:_inflate_flush
Jcd:__ZNSt3__29basic_iosIcNS_11char_traitsIcEEEC2Ev
Ysd:__ZNSt3__215__codecvt_utf16IDiLb0EED0Ev
ySd:__ZSt14get_unexpectedv
qra:___cxx_global_var_init_571
D_b:_lua_concat
gxb:_png_colorspace_set_chromaticities
KIc:__ZN12_GLOBAL__N_1L20register_memory_viewIfEEvPKc
hab:__ZN11TimerBinder6createEP9lua_State
$zd:__ZNSt3__26locale5__imp12install_fromINS_9money_putIcNS_19ostreambuf_iteratorIcNS_11char_traitsIcEEEEEEEEvRKS1_
UTa:__ZN5Pixel11hasGradientEv
Jxa:__ZN12b2MouseJoint24SolveVelocityConstraintsERK12b2SolverData
_8:__ZN6Sprite16clearLayoutStateEv
$aa:__ZNSt3__214__split_bufferIP7Matrix4NS_9allocatorIS2_EEED2Ev
Xgd:__ZNSt3__213basic_ostreamIwNS_11char_traitsIwEEElsEPFRNS_8ios_baseES5_E
cYd:b58
dYd:b59
mia:__ZL20create_fill_geometryP4path
Dd:_Mix_QuickLoad_RAW
Xk:__emscripten_traverse_stack
UXd:b52
S5:__Z14glSetBlendFuncN12ShaderEngine11BlendFactorES0_
SXd:b50
TXd:b51
aYd:b56
bYd:b57
WXd:b54
XXd:b55
xRc:_iswblank_l
OYb:__ZL12block_followi
E6a:__ZN12BitmapBinder6createEP9lua_State
nka:__ZN18ApplicationManager20setProjectPropertiesERK17ProjectProperties
HJa:__ZN12_GLOBAL__N_117FixedSetAllocator9GetBufferEv
tec:_INT123_synth_2to1_8bit_mono
OSa:__ZN12ScreenBinder10setContentEP9lua_State
fCd:__ZNSt3__220__get_collation_nameEPKc
vPd:__ZN10__cxxabiv112_GLOBAL__N_18demangleINS0_2DbEEEvPKcS4_RT_Ri
qQd:__ZN10__cxxabiv112_GLOBAL__N_114parse_decltypeINS0_2DbEEEPKcS4_S4_RT_
STc:_qzero
UI:__ZNSt3__213__vector_baseINS_12basic_stringIcNS_11char_traitsIcEENS_9allocatorIcEEEENS4_IS6_EEED2Ev
GXd:_glDetachShader__wrapper
NUa:__ZN18RenderTargetBinder9getPixelsEP9lua_State
Uhb:__ZL14write_png_dataP14png_struct_defPhj
Y7c:__ZNSt3__26__sortIRNS_6__lessIllEEPlEEvT0_S5_T_
tJ:__ZNSt3__214__split_bufferINS_12basic_stringIcNS_11char_traitsIcEENS_9allocatorIcEEEERNS4_IS6_EEEC2EjjS8_
Nlc:_inflate_codes
Dgc:_mpg123_feedseek
y1c:_mknod
mAd:__ZNSt3__26locale5__imp12install_fromINS_8messagesIwEEEEvRKS1_
Bja:_comma
Bbb:__ZN16PushEventVisitor5visitEP10TimerEvent
TNa:__ZNK12b2WheelJoint19GetJointTranslationEv
V$:__ZNSt3__26vectorI9ParameterNS_9allocatorIS1_EEEC2ERKS4_
eDa:__ZN9b2Contact19InitializeRegistersEv
DUd:_llvm_rint_f64
Ys:_emscripten_glUniform2i
Ws:_emscripten_glUniform2f
Fsa:__ZN10emscripten8internal12WireTypePackIJbEEC2EOb
ICa:__ZN9b2Contact7DestroyEPS_P16b2BlockAllocator
eBb:_png_set_sCAL_s
_Mb:_jpeg_quality_scaling
pX:__ZNK11Application14getImageSuffixEPKcPf
Jl:__restoreHiddenElements
J5:__ZNSt3__214__split_bufferIP9BlendFuncRNS_9allocatorIS2_EEEC2EjjS5_
ptd:__ZNKSt3__220__codecvt_utf8_utf16IwE10do_unshiftER11__mbstate_tPcS4_RS4_
dIa:__ZN16b2ParticleSystem18ComparePairIndicesERKNS_4PairES2_
YXa:__ZN15UrlLoaderBinder6createEP9lua_State
iJc:__ZN10emscripten8internal11LightTypeIDINS_11memory_viewIcEEE3getEv
WOd:__ZNK10__cxxabiv117__pbase_type_info9can_catchEPKNS_16__shim_type_infoERPv
o4c:_strtof
Z3c:_strtod
lIa:__ZZN16b2ParticleSystem20UpdatePairsAndTriadsEiiRKNS_16ConnectionFilterEEN20UpdateTriadsCallbackC2EPS_PS1_
Pwc:_cff_cmap_encoding_done
J7a:__ZN12SpriteBinder9getScaleYEP9lua_State
IKc:_strtol
OJc:_realloc
mOb:__ZNSt3__214__split_bufferIPP12QueueElementRNS_9allocatorIS3_EEE9push_backEOS3_
Bba:__ZNSt3__214__split_bufferIP7Matrix4NS_9allocatorIS2_EEE10push_frontEOS2_
l_b:_luaX_lookahead
zcb:__ZNSt3__214__split_bufferIP12CppLuaBridgeRNS_9allocatorIS2_EEED2Ev
Ae:_SDL_GetAppState
RD:_pthread_condattr_setclock
ped:__ZNSt3__215basic_streambufIwNS_11char_traitsIwEEE4setgEPwS4_S4_
_3c:_strtox
Hfc:_handle_id3v2
Bua:__ZL18g_initializePluginP9lua_State
tFa:__ZN11b2RopeJointC2EPK14b2RopeJointDef
GCd:__ZNSt3__218__libcpp_refstringC2ERKS0_
Bsb:_g_clearerr
dhd:__ZNSt3__213basic_ostreamIwNS_11char_traitsIwEEElsEx
GHc:_load_epilogue
exb:_png_colorspace_sync_info
nWa:__ZN10MeshBinder8getIndexEP9lua_State
iad:__ZNSt3__212future_errorD0Ev
nUb:_unztell
jEc:_mread
Ce:_SDL_GetClipRect
QUa:__ZN11AudioBinder12Sound_createEP9lua_State
cHc:_get_sequence
ixc:_cff_property_get
XHd:__ZNSt3__212basic_stringIwNS_11char_traitsIwEENS_9allocatorIwEEE9push_backEw
IEc:_disable_continue_fx
EY:__ZN11TextureBaseD0Ev
ztd:__ZNKSt3__220__codecvt_utf8_utf16IDiE10do_unshiftER11__mbstate_tPcS4_RS4_
imb:__ZNSt3__26__treeINS_12__value_typeImPN14GGSoundManager7ChannelEEENS_19__map_value_compareImS5_NS_4lessImEELb1EEENS_9allocatorIS5_EEEC2ERKS9_
lA:_glfwDestroyMutex
iLb:_emit_lse_ict
tUc:___cos
Pod:__ZNSt3__214__ptr_in_rangeIwEEbPKT_S3_S3_
sV:__ZNSt3__26vectorIhNS_9allocatorIhEEE6resizeEjRKh
Tgd:__ZNSt3__213basic_ostreamIwNS_11char_traitsIwEEE4swapERS3_
$wd:__ZNSt3__29money_getIcNS_19istreambuf_iteratorIcNS_11char_traitsIcEEEEEC2Ej
lva:__Z5b2MaxIfET_S0_S0_
VK:__ZNSt3__214__split_bufferIP6SpriteRNS_9allocatorIS2_EEED2Ev
dHa:__ZN16b2ParticleSystem11SolveSpringERK10b2TimeStep
kbb:__ZN14EventBinderMap6removeEiP12CppLuaBridge
cHd:__ZNSt3__212basic_stringIwNS_11char_traitsIwEENS_9allocatorIwEEE15__set_long_sizeEj
ond:__ZNKSt3__210moneypunctIwLb0EE16do_decimal_pointEv
JAa:__ZN16b2BlockAllocatorC2Ev
Bda:__ZNK7Matrix414transformPointEfffPfS0_S0_
II:__ZN9Particles4tickEv
Gea:__ZNSt3__214__split_bufferIPN12ShaderEngine7ScissorERNS_9allocatorIS3_EEED2Ev
zxd:__ZNSt3__215messages_bynameIwEC2EPKcj
H6:__ZNSt3__26__treeIP5TimerNS_4lessIS2_EENS_9allocatorIS2_EEEC2ERKS4_
tv:_emscripten_vr_get_eye_parameters
sgc:_mpg123_timeframe
tGb:_jpeg_abort_decompress
jy:_glGetBufferParameteriv
C4b:__ZL17start_captureUTF8P14MatchStateUTF8PKcS2_i
JBc:_Mac_Read_POST_Resource
CQ:__ZNSt3__25dequeI5ColorNS_9allocatorIS1_EEE8pop_backEv
f4c:_fcvt
UWc:___overflow
SL:__ZNSt3__26__treeINS_12__value_typeIi14GStatusElementEENS_19__map_value_compareIiS3_NS_4lessIiEELb1EEENS_9allocatorIS3_EEEC2ERKS7_
Elb:_gevent_Flush
lUd:_memset
TWc:___pthread_self_606
dj:___syscall218
ej:___syscall219
FKb:_jpeg_fdct_5x10
i9c:__ZNSt3__224__libcpp_debug_exceptionD2Ev
and:__ZNKSt3__210moneypunctIcLb0EE13do_neg_formatEv
rEb:_png_write_sPLT
dsb:___sinit
_i:___syscall210
$i:___syscall211
aj:___syscall212
bj:___syscall213
cj:___syscall214
aK:__ZN9Particles8setAngleEif
Ded:__ZNSt3__213basic_ostreamIcNS_11char_traitsIcEEE6sentryC2ERS3_
B9:__ZN6Sprite20getLayoutConstraintsEv
F8a:__ZN6Sprite17setShaderConstantENS_11ShaderParamE
YTa:__ZN5Pixel13clearGradientEv
B8:__ZN14TextureManager14destroyTextureEP11TextureData
Y5:__ZN15EventDispatcherD2Ev
bOa:__ZN6b2Rope4StepEfi
O6c:_setresgid
bvc:_cf2_blues_capture
hSd:__ZN10__cxxabiv112_GLOBAL__N_110save_valueIjEC2ERj
m2a:__ZN12Box2DBinder227b2RevoluteJoint_enableLimitEP9lua_State
CG:init_emval
kHc:_scan_sequences
QXb:_lua_rawgeti
UAc:_ft_hash_num_lookup
UUc:_logbl
E9b:__ZN6snappy13RawUncompressEPNS_6SourceEPc
HT:__ZNSt3__212basic_stringIiNS_11char_traitsIiEENS_9allocatorIiEEE6appendEji
tzb:_png_get_user_chunk_ptr
m6:__ZN15EventDispatcher12removeTargetEPS_
vvb:_z_adler32_combine64
vsa:__ZN10emscripten8internal11BindingTypeIiE12fromWireTypeEi
ybd:__ZNSt3__211char_traitsIwE4copyEPwPKwj
ghd:__ZNSt3__213basic_ostreamIwNS_11char_traitsIwEEElsEd
yr:_emscripten_glGenFramebuffers
HAa:__ZN6b2Draw11AppendFlagsEj
vjd:__ZNSt3__214__scan_keywordINS_19istreambuf_iteratorIcNS_11char_traitsIcEEEEPKNS_12basic_stringIcS3_NS_9allocatorIcEEEENS_5ctypeIcEEEET0_RT_SE_SD_SD_RKT1_Rjb
a2c:___freadptrinc
cld:__ZNKSt3__28time_getIcNS_19istreambuf_iteratorIcNS_11char_traitsIcEEEEE12__get_secondERiRS4_S4_RjRKNS_5ctypeIcEE
uEd:__ZNSt3__212basic_stringIcNS_11char_traitsIcEENS_9allocatorIcEEEpLENS_17basic_string_viewIcS2_EE
DRd:__ZN10__cxxabiv112_GLOBAL__N_121parse_floating_numberIdNS0_2DbEEEPKcS4_S4_RT0_
UBb:_png_read_finish_IDAT
Xfa:__ZNSt3__26__treeIP20gl2ShaderBufferCacheNS_4lessIS2_EENS_9allocatorIS2_EEE25__emplace_unique_key_argsIS2_JS2_EEENS_4pairINS_15__tree_iteratorIS2_PNS_11__tree_nodeIS2_PvEEiEEbEERKT_DpOT0_
gbd:__ZNSt3__215basic_streambufIcNS_11char_traitsIcEEE6xsputnEPKci
gFa:__ZN6b2BodyC2EPK9b2BodyDefP7b2World
aAc:_FT_Tan
eXc:_getresgid
vXb:_lua_objlen
JQc:___munmap
bba:__ZNSt3__212__deque_baseI7Matrix4NS_9allocatorIS1_EEE3endEv
sac:_INT123_compat_close
A$b:__ZL7DumpIntiP9DumpState
sRb:___gl_noEndData
trc:_Ins_AND
qKa:__ZN16b2ParticleSystem18BodyContactCompareERK21b2ParticleBodyContactS2_
lkd:__ZNSt3__29__num_putIcE21__widen_and_group_intEPcS2_S2_S2_RS2_S3_RKNS_6localeE
Bc:invoke_viiiiiiiii
kqc:_Ins_SRP0
a8:__ZN11TextureData2idEv
i0c:_match_in_dir
nkc:_sfnt_init_face
DEb:_png_write_row
Jwb:_png_save_int_32
sLa:__ZN16b2ParticleSystem15DestroyParticleEi
nJc:__ZN10emscripten8internal6TypeIDIdE3getEv
VSc:_erfcf
wDb:_png_permit_mng_features
Y3a:__ZN6b2Body10ApplyForceERK6b2Vec2S2_b
bKa:__ZltRKN16b2ParticleSystem5ProxyES2_
Kdc:_INT123_synth_1to1_8bit
NLb:_jpeg_make_c_derived_tbl
XSc:_erfcl
YIa:__ZNK15b2ParticleGroup13GetGroupFlagsEv
Leb:_block_trim_used
nJd:__ZNKSt3__212basic_stringIwNS_11char_traitsIwEENS_9allocatorIwEEE17find_first_not_ofERKS5_j
Rnc:_af_cjk_snap_width
Ipa:__ZNSt3__23mapImPN12_GLOBAL__N_121GGStreamOpenALManager5SoundENS_4lessImEENS_9allocatorINS_4pairIKmS4_EEEEED2Ev
bub:_z__tr_flush_block
BD:_pthread_attr_setstacksize
yod:__ZNSt3__29money_getIcNS_19istreambuf_iteratorIcNS_11char_traitsIcEEEEED2Ev
Pec:_INT123_open_stream
Xl:_alBufferi
Uj:___syscall51
m$:__Z5qAsind
Wj:___syscall57
Aea:__ZNSt3__25dequeIN12ShaderEngine7ScissorENS_9allocatorIS2_EEE9push_backERKS2_
Vj:___syscall54
zg:_SDL_mutexP
Vfd:__ZNSt3__213basic_istreamIwNS_11char_traitsIwEEE3getEPwi
Eza:__ZN11b2RopeJoint4DumpEv
gtd:__ZNKSt3__215__codecvt_utf16IDiLb1EE5do_inER11__mbstate_tPKcS5_RS5_PDiS7_RS7_
dW:__ZN11Application11renderSceneEi
Ag:_SDL_mutexV
Efc:_INT123_compute_bpf
fmb:__ZN14GGSoundManagerC2Ev
yMb:_h2v2_smooth_downsample
eza:__ZN12b2MotorJoint24SolveVelocityConstraintsERK12b2SolverData
QSc:_erfc1
P7b:__ZN8pystring4joinERKNSt3__212basic_stringIcNS0_11char_traitsIcEENS0_9allocatorIcEEEERKNS0_6vectorIS6_NS4_IS6_EEEE
zWd:_glGetUniformLocation__wrapper
eSd:__ZN10__cxxabiv112_GLOBAL__N_111string_pairC2ILj19EEERAT__Kc
wVa:__ZN11AudioBinder25Sound_setListenerPositionEP9lua_State
ye:_SDL_GL_SwapBuffers
vpd:__ZNSt3__2L12utf8_to_ucs4EPKhS1_RS1_PjS3_RS3_mNS_12codecvt_modeE
X6:__ZN14TimerContainer8addTimerEP5Timerd
Ogd:__ZNSt3__213basic_ostreamIwNS_11char_traitsIwEEEC2EPNS_15basic_streambufIwS2_EE
DEc:_mod_test
Lwc:_remove_subset_prefix
je:_SDL_DisplayFormatAlpha
erc:_Ins_MD
yha:__ZTv0_n12_NSt3__219basic_ostringstreamIcNS_11char_traitsIcEENS_9allocatorIcEEED0Ev
FPd:__ZN10__cxxabiv112_GLOBAL__N_15arenaILj4096EE10deallocateEPcj
nyc:_psh_hint_align
Xvd:__ZNKSt3__210moneypunctIcLb0EE11curr_symbolEv
yUc:___cosdf
iOb:__ZNSt3__214__split_bufferIPP12QueueElementRNS_9allocatorIS3_EEE18__construct_at_endINS_13move_iteratorIPS3_EEEENS_9enable_ifIXsr21__is_forward_iteratorIT_EE5valueEvE4typeESD_SD_
rwc:_cff_builder_add_point1
Wg:_XPending
yhd:__ZNSt3__28ios_base6xallocEv
b0:__ZNSt3__23mapIiNS_6vectorIPN9MovieClip5FrameENS_9allocatorIS4_EEEENS_4lessIiEENS5_INS_4pairIKiS7_EEEEEixERSB_
jjc:_tt_cmap12_next
KIa:__ZZN16b2ParticleSystem20UpdatePairsAndTriadsEiiRKNS_16ConnectionFilterEEN20UpdateTriadsCallbackD0Ev
ijb:__ZNSt3__26__treeINS_12__value_typeINS_6vectorIcNS_9allocatorIcEEEEPN9g_private14TextureElementEEENS_19__map_value_compareIS5_S9_NS_4lessIS5_EELb1EEENS3_IS9_EEE16__construct_nodeIJRKNS_21piecewise_construct_tENS_5tupleIJRKS5_EEENSK_IJEEEEEENS_10unique_ptrINS_11__tree_nodeIS9_PvEENS_22__tree_node_destructorINS3_ISS_EEEEEEDpOT_
Va:invoke_iiiiiiiiii
fYc:_ptsname
kNc:_memchr
FSc:_asinhf
O6a:__ZN16BitmapDataBinder8destructEP9lua_State
rba:__ZNSt3__214__split_bufferIP9_cliprectRNS_9allocatorIS2_EEE9push_backEOS2_
GSc:_asinhl
bN:__ZNK9StopWatch8isPausedEv
MI:__ZN11Application17getTimerContainerEv
aka:__ZN14NetworkManager4playERKNSt3__26vectorIcNS0_9allocatorIcEEEE
TYa:__ZN15MovieClipBinder8getFrameEP9lua_State
Iqc:_Ins_UTP
iub:_send_tree
mea:__ZN12ShaderEngine13getProjectionEv
M_b:__ZL9prefixexpP8LexStateP7expdesc
dxb:_png_gamma_significant
O3:__ZNSt3__26__treeINS_12__value_typeIiN8TTBMFont12TextureGlyphEEENS_19__map_value_compareIiS4_NS_4lessIiEELb1EEENS_9allocatorIS4_EEE16__construct_nodeIJRKNS_21piecewise_construct_tENS_5tupleIJRKiEEENSG_IJEEEEEENS_10unique_ptrINS_11__tree_nodeIS4_PvEENS_22__tree_node_destructorINS9_ISO_EEEEEEDpOT_
JN:__ZNSt3__26vectorIhNS_9allocatorIhEEE8allocateEj
OG:runDestructor
psc:_Round_Up_To_Grid
sNd:__ZNSt3__26vectorIPNS_17__assoc_sub_stateENS_18__hidden_allocatorIS2_EEE21__push_back_slow_pathIRKS2_EEvOT_
u0b:_lua_close
Wva:__ZNK14b2PolygonShape7RayCastEP15b2RayCastOutputRK14b2RayCastInputRK11b2Transformi
n$b:__ZL13LoadConstantsP9LoadStateP5Proto
Q7c:__ZNSt3__218__insertion_sort_3IRNS_6__lessIiiEEPiEEvT0_S5_T_
qqd:__ZNSt3__214collate_bynameIwED0Ev
nS:__ZNSt3__214__split_bufferI4RectRNS_9allocatorIS1_EEED2Ev
s2c:_mread_2647
fra:__ZNSt3__26__treeIPN21GGSampleOpenALManager7ChannelENS_4lessIS3_EENS_9allocatorIS3_EEED2Ev
psd:__ZNSt3__2L15utf16be_to_ucs4EPKhS1_RS1_PjS3_RS3_mNS_12codecvt_modeE
Se:_SDL_GetWindowSize
X8c:__ZNSt3__26chrono12system_clock3nowEv
KJd:__ZNSt3__212basic_stringIwNS_11char_traitsIwEENS_9allocatorIwEEE19__copy_assign_allocERKS5_NS_17integral_constantIbLb1EEE
Qlc:_zcfree
Wvc:_cff_parse_fixed_scaled
Lxa:__Z7b2CrossfRK6b2Vec2
HOc:_iswpunct
B9b:__ZN6snappy8internal13WorkingMemoryD2Ev
PCa:__ZNK6b2Body13ShouldCollideEPKS_
Amb:__ZNSt3__26__treeIPN14GGSoundManager7ChannelENS_4lessIS3_EENS_9allocatorIS3_EEED2Ev
$Gb:_set_bottom_pointers
tWd:_pthread_cond_broadcast__wrapper
God:__ZNSt3__211__money_getIcE13__gather_infoEbRKNS_6localeERNS_10money_base7patternERcS8_RNS_12basic_stringIcNS_11char_traitsIcEENS_9allocatorIcEEEESF_SF_SF_Ri
Qzd:__ZNSt3__26locale5__imp12install_fromINS_5ctypeIwEEEEvRKS1_
fPb:__ZL16Unpack5554ColourPK17AMTC_BLOCK_STRUCTPA4_i
CTa:__ZN11PixelBinder6createEP9lua_State
mca:__ZN14ColorTransform17setBlueMultiplierEf
